C51 COMPILER V9.01   CJSON                                                                 06/17/2019 10:07:01 PAGE 1   


C51 COMPILER V9.01, COMPILATION OF MODULE CJSON
OBJECT MODULE PLACED IN .\list\cJSON.obj
COMPILER INVOKED BY: D:\Program Files (x86)\Keil\C51\BIN\C51.EXE app\service\cjsion\cJSON.c LARGE BROWSE INCDIR(.\stclib
                    -;..\stc_lib;.\app;.\app\service\app;.\app\service\AES128;.\app\service\CRC16;.\app\service\GPRS;.\app\service\cjsion) DE
                    -BUG OBJECTEXTEND CODE LISTINCLUDE SYMBOLS PRINT(.\list\cJSON.lst) TABS(2) PREPRINT(.\list\cJSON.i) OBJECT(.\list\cJSON.o
                    -bj)

line level    source

   1          /*
   2            Copyright (c) 2009 Dave Gamble
   3          
   4            Permission is hereby granted, free of charge, to any person obtaining a copy
   5            of this software and associated documentation files (the "Software"), to deal
   6            in the Software without restriction, including without limitation the rights
   7            to use, copy, modify, merge, publish, distribute, sublicense, and/or sell
   8            copies of the Software, and to permit persons to whom the Software is
   9            furnished to do so, subject to the following conditions:
  10          
  11            The above copyright notice and this permission notice shall be included in
  12            all copies or substantial portions of the Software.
  13          
  14            THE SOFTWARE IS PROVIDED "AS IS", WITHOUT WARRANTY OF ANY KIND, EXPRESS OR
  15            IMPLIED, INCLUDING BUT NOT LIMITED TO THE WARRANTIES OF MERCHANTABILITY,
  16            FITNESS FOR A PARTICULAR PURPOSE AND NONINFRINGEMENT. IN NO EVENT SHALL THE
  17            AUTHORS OR COPYRIGHT HOLDERS BE LIABLE FOR ANY CLAIM, DAMAGES OR OTHER
  18            LIABILITY, WHETHER IN AN ACTION OF CONTRACT, TORT OR OTHERWISE, ARISING FROM,
  19            OUT OF OR IN CONNECTION WITH THE SOFTWARE OR THE USE OR OTHER DEALINGS IN
  20            THE SOFTWARE.
  21          */
  22          
  23          /* cJSON */
  24          /* JSON parser in C. */
  25          
  26          #include <string.h>
   1      =1  /*--------------------------------------------------------------------------
   2      =1  STRING.H
   3      =1  
   4      =1  String functions.
   5      =1  Copyright (c) 1988-2002 Keil Elektronik GmbH and Keil Software, Inc.
   6      =1  All rights reserved.
   7      =1  --------------------------------------------------------------------------*/
   8      =1  
   9      =1  #ifndef __STRING_H__
  10      =1  #define __STRING_H__
  11      =1  
  12      =1  #ifndef _SIZE_T
  13      =1   #define _SIZE_T
  14      =1   typedef unsigned int size_t;
  15      =1  #endif
  16      =1  
  17      =1  #ifndef NULL
  18      =1   #define NULL ((void *) 0L)
  19      =1  #endif
  20      =1  
  21      =1  #pragma SAVE
  22      =1  #pragma REGPARMS
  23      =1  extern char *strcat (char *s1, char *s2);
  24      =1  extern char *strncat (char *s1, char *s2, int n);
  25      =1  
  26      =1  extern char strcmp (char *s1, char *s2);
C51 COMPILER V9.01   CJSON                                                                 06/17/2019 10:07:01 PAGE 2   

  27      =1  extern char strncmp (char *s1, char *s2, int n);
  28      =1  
  29      =1  extern char *strcpy (char *s1, char *s2);
  30      =1  extern char *strncpy (char *s1, char *s2, int n);
  31      =1  
  32      =1  extern int strlen (char *);
  33      =1  
  34      =1  extern char *strchr (const char *s, char c);
  35      =1  extern int strpos (const char *s, char c);
  36      =1  extern char *strrchr (const char *s, char c);
  37      =1  extern int strrpos (const char *s, char c);
  38      =1  
  39      =1  extern int strspn (char *s, char *set);
  40      =1  extern int strcspn (char *s, char *set);
  41      =1  extern char *strpbrk (char *s, char *set);
  42      =1  extern char *strrpbrk (char *s, char *set);
  43      =1  extern char *strstr  (char *s, char *sub);
  44      =1  extern char *strtok  (char *str, const char *set);
  45      =1  
  46      =1  extern char memcmp (void *s1, void *s2, int n);
  47      =1  extern void *memcpy (void *s1, void *s2, int n);
  48      =1  extern void *memchr (void *s, char val, int n);
  49      =1  extern void *memccpy (void *s1, void *s2, char val, int n);
  50      =1  extern void *memmove (void *s1, void *s2, int n);
  51      =1  extern void *memset  (void *s, char val, int n);
  52      =1  #pragma RESTORE
  53      =1  
  54      =1  #endif
  27          #include <stdio.h>
   1      =1  /*--------------------------------------------------------------------------
   2      =1  STDIO.H
   3      =1  
   4      =1  Prototypes for standard I/O functions.
   5      =1  Copyright (c) 1988-2002 Keil Elektronik GmbH and Keil Software, Inc.
   6      =1  All rights reserved.
   7      =1  --------------------------------------------------------------------------*/
   8      =1  
   9      =1  #ifndef __STDIO_H__
  10      =1  #define __STDIO_H__
  11      =1  
  12      =1  #ifndef EOF
  13      =1   #define EOF -1
  14      =1  #endif
  15      =1  
  16      =1  #ifndef NULL
           =1  #define NULL ((void *) 0)
           =1 #endif
  19      =1  
  20      =1  #ifndef _SIZE_T
           =1  #define _SIZE_T
           =1  typedef unsigned int size_t;
           =1 #endif
  24      =1  
  25      =1  #pragma SAVE
  26      =1  #pragma REGPARMS
  27      =1  extern char _getkey (void);
  28      =1  extern char getchar (void);
  29      =1  extern char ungetchar (char);
  30      =1  extern char putchar (char);
  31      =1  extern int printf   (const char *, ...);
  32      =1  extern int sprintf  (char *, const char *, ...);
  33      =1  extern int vprintf  (const char *, char *);
C51 COMPILER V9.01   CJSON                                                                 06/17/2019 10:07:01 PAGE 3   

  34      =1  extern int vsprintf (char *, const char *, char *);
  35      =1  extern char *gets (char *, int n);
  36      =1  extern int scanf (const char *, ...);
  37      =1  extern int sscanf (char *, const char *, ...);
  38      =1  extern int puts (const char *);
  39      =1  
  40      =1  #pragma RESTORE
  41      =1  
  42      =1  #endif
  43      =1  
  28          #include <math.h>
   1      =1  /*--------------------------------------------------------------------------
   2      =1  MATH.H
   3      =1  
   4      =1  Prototypes for mathematic functions.
   5      =1  Copyright (c) 1988-2002 Keil Elektronik GmbH and Keil Software, Inc.
   6      =1  All rights reserved.
   7      =1  --------------------------------------------------------------------------*/
   8      =1  
   9      =1  #ifndef __MATH_H__
  10      =1  #define __MATH_H__
  11      =1  
  12      =1  #pragma SAVE
  13      =1  #pragma REGPARMS
  14      =1  extern char  cabs  (char  val);
  15      =1  extern int    abs  (int   val);
  16      =1  extern long  labs  (long  val);
  17      =1  extern float fabs  (float val);
  18      =1  extern float sqrt  (float val);
  19      =1  extern float exp   (float val);
  20      =1  extern float log   (float val);
  21      =1  extern float log10 (float val);
  22      =1  extern float sin   (float val);
  23      =1  extern float cos   (float val);
  24      =1  extern float tan   (float val);
  25      =1  extern float asin  (float val);
  26      =1  extern float acos  (float val);
  27      =1  extern float atan  (float val);
  28      =1  extern float sinh  (float val);
  29      =1  extern float cosh  (float val);
  30      =1  extern float tanh  (float val);
  31      =1  extern float atan2 (float y, float x);
  32      =1  
  33      =1  extern float ceil  (float val);
  34      =1  extern float floor (float val);
  35      =1  extern float modf  (float val, float *n);
  36      =1  extern float fmod  (float x, float y);
  37      =1  extern float pow   (float x, float y);
  38      =1  
  39      =1  #pragma RESTORE
  40      =1  
  41      =1  #endif
  29          #include <stdlib.h>
   1      =1  /*--------------------------------------------------------------------------
   2      =1  STDLIB.H
   3      =1  
   4      =1  Standard functions.
   5      =1  Copyright (c) 1988-2005 Keil Elektronik GmbH and Keil Software, Inc.
   6      =1  All rights reserved.
   7      =1  --------------------------------------------------------------------------*/
   8      =1  
   9      =1  #ifndef __STDLIB_H__
C51 COMPILER V9.01   CJSON                                                                 06/17/2019 10:07:01 PAGE 4   

  10      =1  #define __STDLIB_H__
  11      =1  
  12      =1  #ifndef _SIZE_T
           =1  #define _SIZE_T
           =1  typedef unsigned int size_t;
           =1 #endif
  16      =1  
  17      =1  #ifndef NULL
           =1  #define NULL ((void *) 0L)
           =1 #endif
  20      =1  
  21      =1  #ifndef _WCHAR_T_DEFINED_
  22      =1  #define _WCHAR_T_DEFINED_
  23      =1  typedef char wchar_t;
  24      =1  #endif
  25      =1  
  26      =1  #ifndef RAND_MAX
  27      =1   #define RAND_MAX  32767u
  28      =1  #endif
  29      =1  
  30      =1  #pragma SAVE
  31      =1  #pragma REGPARMS
  32      =1  
  33      =1  extern int    abs  (int   val);
  34      =1  extern long  labs  (long  val);
  35      =1  
  36      =1  extern float atof (char *s1);
  37      =1  extern long  atol (char *s1);
  38      =1  extern int   atoi (char *s1);
  39      =1  extern int   rand ();
  40      =1  extern void  srand (int);
  41      =1  
  42      =1  extern float         strtod  (char *, char **);
  43      =1  extern long          strtol  (char *, char **, unsigned char);
  44      =1  extern unsigned long strtoul (char *, char **, unsigned char);
  45      =1  
  46      =1  #define _MALLOC_MEM_  xdata
  47      =1  
  48      =1  extern void init_mempool          (void _MALLOC_MEM_ *p, unsigned int size);
  49      =1  extern void _MALLOC_MEM_ *malloc  (unsigned int size);
  50      =1  extern void free                  (void _MALLOC_MEM_ *p);
  51      =1  extern void _MALLOC_MEM_ *realloc (void _MALLOC_MEM_ *p, unsigned int size);
  52      =1  extern void _MALLOC_MEM_ *calloc  (unsigned int size, unsigned int len);
  53      =1  
  54      =1  #pragma RESTORE
  55      =1  
  56      =1  #endif
  30          #include <float.h>
   1      =1  /*--------------------------------------------------------------------------
   2      =1  FLOAT.H
   3      =1  
   4      =1  Limits for floating point types.
   5      =1  Copyright (c) 1988-2002 Keil Elektronik GmbH and Keil Software, Inc.
   6      =1  All rights reserved.
   7      =1  --------------------------------------------------------------------------*/
   8      =1  
   9      =1  #ifndef __FLOAT_H__
  10      =1  #define __FLOAT_H__
  11      =1  
  12      =1  #define FLT_RADIX        2
  13      =1  #define FLT_ROUNDS       0
  14      =1  
C51 COMPILER V9.01   CJSON                                                                 06/17/2019 10:07:01 PAGE 5   

  15      =1  #define FLT_DIG          6
  16      =1  #define FLT_EPSILON  5.96046e-8
  17      =1  #define FLT_MANT_DIG     24
  18      =1  #define FLT_MAX    3.40282e38
  19      =1  #define FLT_MAX_EXP      0x7F
  20      =1  #define FLT_MAX_10_EXP   38
  21      =1  #define FLT_MIN    1.17549e-38
  22      =1  #define FLT_MIN_EXP  -125
  23      =1  #define FLT_MIN_10_EXP   -37
  24      =1  
  25      =1  #define DBL_RADIX   FLT_RADIX 
  26      =1  #define DBL_ROUNDS  FLT_ROUNDS
  27      =1  #define DBL_DIG   FLT_DIG
  28      =1  #define DBL_EPSILON FLT_EPSILON
  29      =1  #define DBL_MANT_DIG  FLT_MANT_DIG
  30      =1  #define DBL_MAX   FLT_MAX
  31      =1  #define DBL_MAX_EXP FLT_MAX_EXP
  32      =1  #define DBL_MAX_10_EXP  FLT_MAX_10_EXP
  33      =1  #define DBL_MIN   FLT_MIN
  34      =1  #define DBL_MIN_EXP FLT_MIN_EXP
  35      =1  #define DBL_MIN_10_EXP  FLT_MIN_10_EXP
  36      =1  
  37      =1  #define LDBL_RADIX  FLT_RADIX 
  38      =1  #define LDBL_ROUNDS FLT_ROUNDS
  39      =1  #define LDBL_DIG  FLT_DIG
  40      =1  #define LDBL_EPSILON  FLT_EPSILON
  41      =1  #define LDBL_MANT_DIG FLT_MANT_DIG
  42      =1  #define LDBL_MAX  FLT_MAX
  43      =1  #define LDBL_MAX_EXP  FLT_MAX_EXP
  44      =1  #define LDBL_MAX_10_EXP FLT_MAX_10_EXP
  45      =1  #define LDBL_MIN  FLT_MIN
  46      =1  #define LDBL_MIN_EXP  FLT_MIN_EXP
  47      =1  #define LDBL_MIN_10_EXP FLT_MIN_10_EXP
  48      =1  
  49      =1  #endif /* _floath */
  31          #include <limits.h>
   1      =1  /*--------------------------------------------------------------------------
   2      =1  LIMITS.H
   3      =1  
   4      =1  ANSI standard include file.
   5      =1  Copyright (c) 1988-2008 Keil Elektronik GmbH and Keil Software, Inc.
   6      =1  Copyright (c) 2009 ARM Germany GmbH
   7      =1  All rights reserved.
   8      =1  --------------------------------------------------------------------------*/
   9      =1  
  10      =1  #ifndef __LIMITS_H__
  11      =1  #define __LIMITS_H__
  12      =1  
  13      =1  #define CHAR_BIT         8              /* Number of bits in any "char" */
  14      =1  #define CHAR_MAX         127            /* Max             "char" value */
  15      =1  #define CHAR_MIN       (-128)           /* Min             "char" value */
  16      =1  #define SCHAR_MAX        127            /* Max "signed"    "char" value */
  17      =1  #define SCHAR_MIN      (-128)           /* Min "signed"    "char" value */
  18      =1  #define UCHAR_MAX        255            /* Max "unsigned"  "char" value */
  19      =1  #define SHRT_MAX         32767          /* Max ("signed") "short" value */
  20      =1  #define SHRT_MIN       (-32767-1)       /* Min ("signed") "short" value */
  21      =1  #define USHRT_MAX        0xFFFF         /* Max "unsigned" "short" value */
  22      =1  #define INT_MAX          32767          /* Max ("signed")   "int" value */
  23      =1  #define INT_MIN        (-32767-1)       /* Min ("signed")   "int" value */
  24      =1  #define UINT_MAX         0xFFFF         /* Max "unsigned"   "int" value */
  25      =1  #define LONG_MAX         2147483647     /* Max ("signed")  "long" value */
  26      =1  #define LONG_MIN   (-2147483647L-1L)    /* Min ("signed")  "long" value */
C51 COMPILER V9.01   CJSON                                                                 06/17/2019 10:07:01 PAGE 6   

  27      =1  #define ULONG_MAX        0xFFFFFFFF     /* Max "unsigned"  "long" value */
  28      =1  
  29      =1  #endif
  32          #include <ctype.h>
   1      =1  /*--------------------------------------------------------------------------
   2      =1  CTYPE.H
   3      =1  
   4      =1  Prototypes for character functions.
   5      =1  Copyright (c) 1988-2002 Keil Elektronik GmbH and Keil Software, Inc.
   6      =1  All rights reserved.
   7      =1  --------------------------------------------------------------------------*/
   8      =1  
   9      =1  #ifndef __CTYPE_H__
  10      =1  #define __CTYPE_H__
  11      =1  
  12      =1  #pragma SAVE
  13      =1  #pragma REGPARMS
  14      =1  extern bit isalpha (unsigned char);
  15      =1  extern bit isalnum (unsigned char);
  16      =1  extern bit iscntrl (unsigned char);
  17      =1  extern bit isdigit (unsigned char);
  18      =1  extern bit isgraph (unsigned char);
  19      =1  extern bit isprint (unsigned char);
  20      =1  extern bit ispunct (unsigned char);
  21      =1  extern bit islower (unsigned char);
  22      =1  extern bit isupper (unsigned char);
  23      =1  extern bit isspace (unsigned char);
  24      =1  extern bit isxdigit (unsigned char);
  25      =1  extern unsigned char tolower (unsigned char);
  26      =1  extern unsigned char toupper (unsigned char);
  27      =1  extern unsigned char toint (unsigned char);
  28      =1  
  29      =1  #define _tolower(c) ( (c)-'A'+'a' )
  30      =1  #define _toupper(c) ( (c)-'a'+'A' )
  31      =1  #define toascii(c)  ( (c) & 0x7F )
  32      =1  #pragma RESTORE
  33      =1  
  34      =1  #endif
  33          #include "cJSON.h"
   1      =1  /*
   2      =1    Copyright (c) 2009 Dave Gamble
   3      =1   
   4      =1    Permission is hereby granted, free of charge, to any person obtaining a copy
   5      =1    of this software and associated documentation files (the "Software"), to deal
   6      =1    in the Software without restriction, including without limitation the rights
   7      =1    to use, copy, modify, merge, publish, distribute, sublicense, and/or sell
   8      =1    copies of the Software, and to permit persons to whom the Software is
   9      =1    furnished to do so, subject to the following conditions:
  10      =1   
  11      =1    The above copyright notice and this permission notice shall be included in
  12      =1    all copies or substantial portions of the Software.
  13      =1   
  14      =1    THE SOFTWARE IS PROVIDED "AS IS", WITHOUT WARRANTY OF ANY KIND, EXPRESS OR
  15      =1    IMPLIED, INCLUDING BUT NOT LIMITED TO THE WARRANTIES OF MERCHANTABILITY,
  16      =1    FITNESS FOR A PARTICULAR PURPOSE AND NONINFRINGEMENT. IN NO EVENT SHALL THE
  17      =1    AUTHORS OR COPYRIGHT HOLDERS BE LIABLE FOR ANY CLAIM, DAMAGES OR OTHER
  18      =1    LIABILITY, WHETHER IN AN ACTION OF CONTRACT, TORT OR OTHERWISE, ARISING FROM,
  19      =1    OUT OF OR IN CONNECTION WITH THE SOFTWARE OR THE USE OR OTHER DEALINGS IN
  20      =1    THE SOFTWARE.
  21      =1  */
  22      =1  
  23      =1  #ifndef cJSON__h
C51 COMPILER V9.01   CJSON                                                                 06/17/2019 10:07:01 PAGE 7   

  24      =1  #define cJSON__h
  25      =1  
  26      =1  #ifdef __cplusplus
           =1 extern "C"
           =1 {
           =1 #endif
  30      =1  
  31      =1  /* cJSON Types: */
  32      =1  #define cJSON_False 0
  33      =1  #define cJSON_True 1
  34      =1  #define cJSON_NULL 2
  35      =1  #define cJSON_Number 3
  36      =1  #define cJSON_String 4
  37      =1  #define cJSON_Array 5
  38      =1  #define cJSON_Object 6
  39      =1    
  40      =1  #define cJSON_IsReference 64//256
  41      =1  #define cJSON_StringIsConst 128//512
  42      =1  
  43      =1  /* The cJSON structure: */
  44      =1  typedef struct cJSON {
  45      =1    struct cJSON *next,*prev; /* next/prev allow you to walk array/object chains. Alternatively, use GetArray
             -Size/GetArrayItem/GetObjectItem */
  46      =1    struct cJSON *child;    /* An array or object item will have a child pointer pointing to a chain of the ite
             -ms in the array/object. */
  47      =1  
  48      =1    int type;         /* The type of the item, as above. */
  49      =1  
  50      =1    char *valuestring;      /* The item's string, if type==cJSON_String */
  51      =1    int valueint;       /* The item's number, if type==cJSON_Number */
  52      =1    double valuedouble;     /* The item's number, if type==cJSON_Number */
  53      =1  
  54      =1    char *string;       /* The item's name string, if this item is the child of, or is in the list of subitems o
             -f an object. */
  55      =1  } cJSON;
  56      =1  
  57      =1  typedef struct cJSON_Hooks {
  58      =1        void *(*malloc_fn)(size_t sz);
  59      =1        void (*free_fn)(void *ptr);
  60      =1  } cJSON_Hooks;
  61      =1  
  62      =1  /* Supply malloc, realloc and free functions to cJSON */
  63      =1  extern void cJSON_InitHooks(cJSON_Hooks* hooks);
  64      =1  
  65      =1  
  66      =1  /* Supply a block of JSON, and this returns a cJSON object you can interrogate. Call cJSON_Delete when fin
             -ished. */
  67      =1  extern cJSON *cJSON_Parse(const char *value);
  68      =1  /* Render a cJSON entity to text for transfer/storage. Free the char* when finished. */
  69      =1  extern char  *cJSON_Print(cJSON *item);
  70      =1  /* Render a cJSON entity to text for transfer/storage without any formatting. Free the char* when finished
             -. */
  71      =1  extern char  *cJSON_PrintUnformatted(cJSON *item);
  72      =1  /* Render a cJSON entity to text using a buffered strategy. prebuffer is a guess at the final size. guessi
             -ng well reduces reallocation. fmt=0 gives unformatted, =1 gives formatted */
  73      =1  extern char *cJSON_PrintBuffered(cJSON *item,int prebuffer,int fmt);
  74      =1  /* Delete a cJSON entity and all subentities. */
  75      =1  extern void   cJSON_Delete(cJSON *c);
  76      =1  
  77      =1  /* Returns the number of items in an array (or object). */
  78      =1  extern int    cJSON_GetArraySize(cJSON *array);
  79      =1  /* Retrieve item number "item" from array "array". Returns NULL if unsuccessful. */
C51 COMPILER V9.01   CJSON                                                                 06/17/2019 10:07:01 PAGE 8   

  80      =1  extern cJSON *cJSON_GetArrayItem(cJSON *array,int item);
  81      =1  /* Get item "string" from object. Case insensitive. */
  82      =1  extern cJSON *cJSON_GetObjectItem(cJSON *object,const char *string);
  83      =1  
  84      =1  /* For analysing failed parses. This returns a pointer to the parse error. You'll probably need to look a 
             -few chars back to make sense of it. Defined when cJSON_Parse() returns 0. 0 when cJSON_Parse() succeeds. */
  85      =1  extern const char *cJSON_GetErrorPtr(void);
  86      =1    
  87      =1  /* These calls create a cJSON item of the appropriate type. */
  88      =1  extern cJSON *cJSON_CreateNull(void);
  89      =1  extern cJSON *cJSON_CreateTrue(void);
  90      =1  extern cJSON *cJSON_CreateFalse(void);
  91      =1  extern cJSON *cJSON_CreateBool(int b);
  92      =1  extern cJSON *cJSON_CreateNumber(double num);
  93      =1  extern cJSON *cJSON_CreateString(const char *string);
  94      =1  extern cJSON *cJSON_CreateArray(void);
  95      =1  extern cJSON *cJSON_CreateObject(void);
  96      =1  
  97      =1  /* These utilities create an Array of count items. */
  98      =1  extern cJSON *cJSON_CreateIntArray(const int *numbers,int count);
  99      =1  extern cJSON *cJSON_CreateFloatArray(const float *numbers,int count);
 100      =1  extern cJSON *cJSON_CreateDoubleArray(const double *numbers,int count);
 101      =1  extern cJSON *cJSON_CreateStringArray(const char **strings,int count);
 102      =1  
 103      =1  /* Append item to the specified array/object. */
 104      =1  extern void cJSON_AddItemToArray(cJSON *array, cJSON *item);
 105      =1  extern void cJSON_AddItemToObject(cJSON *object,const char *string,cJSON *item);
 106      =1  extern void cJSON_AddItemToObjectCS(cJSON *object,const char *string,cJSON *item);  /* Use this when string
             - is definitely const (i.e. a literal, or as good as), and will definitely survive the cJSON object */
 107      =1  /* Append reference to item to the specified array/object. Use this when you want to add an existing cJSON
             - to a new cJSON, but don't want to corrupt your existing cJSON. */
 108      =1  extern void cJSON_AddItemReferenceToArray(cJSON *array, cJSON *item);
 109      =1  extern void cJSON_AddItemReferenceToObject(cJSON *object,const char *string,cJSON *item);
 110      =1  
 111      =1  /* Remove/Detatch items from Arrays/Objects. */
 112      =1  extern cJSON *cJSON_DetachItemFromArray(cJSON *array,int which);
 113      =1  extern void   cJSON_DeleteItemFromArray(cJSON *array,int which);
 114      =1  extern cJSON *cJSON_DetachItemFromObject(cJSON *object,const char *string);
 115      =1  extern void   cJSON_DeleteItemFromObject(cJSON *object,const char *string);
 116      =1    
 117      =1  /* Update array items. */
 118      =1  extern void cJSON_InsertItemInArray(cJSON *array,int which,cJSON *newitem); /* Shifts pre-existing items t
             -o the right. */
 119      =1  extern void cJSON_ReplaceItemInArray(cJSON *array,int which,cJSON *newitem);
 120      =1  extern void cJSON_ReplaceItemInObject(cJSON *object,const char *string,cJSON *newitem);
 121      =1  
 122      =1  /* Duplicate a cJSON item */
 123      =1  extern cJSON *cJSON_Duplicate(cJSON *item,int recurse);
 124      =1  /* Duplicate will create a new, identical cJSON item to the one you pass, in new memory that will
 125      =1  need to be released. With recurse!=0, it will duplicate any children connected to the item.
 126      =1  The item->next and ->prev pointers are always zero on return from Duplicate. */
 127      =1  
 128      =1  /* ParseWithOpts allows you to require (and check) that the JSON is null terminated, and to retrieve the p
             -ointer to the final byte parsed. */
 129      =1  extern cJSON *cJSON_ParseWithOpts(const char *value,const char **return_parse_end,int require_null_termina
             -ted);
 130      =1  
 131      =1  extern void cJSON_Minify(char *json);
 132      =1  
 133      =1  /* Macros for creating things quickly. */
 134      =1  #define cJSON_AddNullToObject(object,name)    cJSON_AddItemToObject(object, name, cJSON_CreateNull())
 135      =1  #define cJSON_AddTrueToObject(object,name)    cJSON_AddItemToObject(object, name, cJSON_CreateTrue())
C51 COMPILER V9.01   CJSON                                                                 06/17/2019 10:07:01 PAGE 9   

 136      =1  #define cJSON_AddFalseToObject(object,name)   cJSON_AddItemToObject(object, name, cJSON_CreateFalse())
 137      =1  #define cJSON_AddBoolToObject(object,name,b)  cJSON_AddItemToObject(object, name, cJSON_CreateBool(b))
 138      =1  #define cJSON_AddNumberToObject(object,name,n)  cJSON_AddItemToObject(object, name, cJSON_CreateNumber(n))
 139      =1  #define cJSON_AddStringToObject(object,name,s)  cJSON_AddItemToObject(object, name, cJSON_CreateString(s))
 140      =1  
 141      =1  /* When assigning an integer value, it needs to be propagated to valuedouble too. */
 142      =1  #define cJSON_SetIntValue(object,val)     ((object)?(object)->valueint=(object)->valuedouble=(val):(val))
 143      =1  #define cJSON_SetNumberValue(object,val)    ((object)?(object)->valueint=(object)->valuedouble=(val):(val))
 144      =1  
 145      =1  #ifdef __cplusplus
           =1 }
           =1 #endif
 148      =1  
 149      =1  #endif
  34          
  35          static const char *ep;
  36          
  37          const char *cJSON_GetErrorPtr(void) {return ep;}
  38          
  39          static int cJSON_strcasecmp(const char *s1,const char *s2)
  40          {
  41   1        if (!s1) return (s1==s2)?0:1;if (!s2) return 1;
  42   1        for(; tolower(*s1) == tolower(*s2); ++s1, ++s2) if(*s1 == 0)  return 0;
  43   1        return tolower(*(const unsigned char *)s1) - tolower(*(const unsigned char *)s2);
  44   1      }
  45          
  46          static void *(*cJSON_malloc)(size_t sz) = malloc;
*** WARNING C182 IN LINE 46 OF APP\SERVICE\CJSION\CJSON.C: pointer to different objects
  47          static void (*cJSON_free)(void *ptr) = free;
  48          
  49          static char* cJSON_strdup(const char* str)
  50          {
  51   1            size_t len;
  52   1            char* copy;
  53   1      
  54   1            len = strlen(str) + 1;
  55   1            if (!(copy = (char*)cJSON_malloc(len))) return 0;
  56   1            memcpy(copy,str,len);
  57   1            return copy;
  58   1      }
  59          
  60          void cJSON_InitHooks(cJSON_Hooks* hooks)
  61          {
  62   1          if (!hooks) { /* Reset hooks */
  63   2              cJSON_malloc = malloc;
*** WARNING C182 IN LINE 63 OF APP\SERVICE\CJSION\CJSON.C: pointer to different objects
  64   2              cJSON_free = free;
  65   2              return;
  66   2          }
  67   1      
  68   1        cJSON_malloc = (hooks->malloc_fn)?hooks->malloc_fn:malloc;
  69   1        cJSON_free   = (hooks->free_fn)?hooks->free_fn:free;
  70   1      }
  71          
  72          /* Internal constructor. */
  73          static cJSON *cJSON_New_Item(void)
  74          {
  75   1        cJSON* node = (cJSON*)cJSON_malloc(sizeof(cJSON));
  76   1        if (node) memset(node,0,sizeof(cJSON));
  77   1        return node;
  78   1      }
  79          
C51 COMPILER V9.01   CJSON                                                                 06/17/2019 10:07:01 PAGE 10  

  80          /* Delete a cJSON structure. */
  81          void cJSON_Delete(cJSON *c)
  82          {
  83   1        cJSON *next;
  84   1        while (c)
  85   1        {
  86   2          next=c->next;
  87   2          if (!(c->type&cJSON_IsReference) && c->child) cJSON_Delete(c->child);
  88   2          if (!(c->type&cJSON_IsReference) && c->valuestring) cJSON_free(c->valuestring);
  89   2          if (!(c->type&cJSON_StringIsConst) && c->string) cJSON_free(c->string);
  90   2          cJSON_free(c);
  91   2          c=next;
  92   2        }
  93   1      }
  94          
  95          /* Parse the input text to generate a number, and populate the result into item. */
  96          static const char *parse_number(cJSON *item,const char *num)
  97          {
  98   1        double n=0,sign=1,scale=0;int subscale=0,signsubscale=1;
  99   1      
 100   1        if (*num=='-') sign=-1,num++; /* Has sign? */
 101   1        if (*num=='0') num++;     /* is zero */
 102   1        if (*num>='1' && *num<='9') do  n=(n*10.0)+(*num++ -'0'); while (*num>='0' && *num<='9'); /* Number? */
 103   1        if (*num=='.' && num[1]>='0' && num[1]<='9') {num++;    do  n=(n*10.0)+(*num++ -'0'),scale--; while (*num>='
             -0' && *num<='9');}  /* Fractional part? */
 104   1        if (*num=='e' || *num=='E')   /* Exponent? */
 105   1        { num++;if (*num=='+') num++; else if (*num=='-') signsubscale=-1,num++;    /* With sign? */
 106   2          while (*num>='0' && *num<='9') subscale=(subscale*10)+(*num++ - '0'); /* Number? */
 107   2        }
 108   1      
 109   1        n=sign*n*pow(10.0,(scale+subscale*signsubscale)); /* number = +/- number.fraction * 10^+/- exponent */
 110   1        
 111   1        item->valuedouble=n;
 112   1        item->valueint=(int)n;
 113   1        item->type=cJSON_Number;
 114   1        return num;
 115   1      }
 116          
 117          static int pow2gt (int x) { --x;  x|=x>>1;  x|=x>>2;  x|=x>>4;  x|=x>>8;  x|=x>>16; return x+1; }
 118          
 119          typedef struct {char *buffer; int length; int offset; } printbuffer;
 120          
 121          static char* ensure(printbuffer *p,int needed)
 122          {
 123   1        char *newbuffer;int newsize;
 124   1        if (!p || !p->buffer) return 0;
 125   1        needed+=p->offset;
 126   1        if (needed<=p->length) return p->buffer+p->offset;
 127   1      
 128   1        newsize=pow2gt(needed);
 129   1        newbuffer=(char*)cJSON_malloc(newsize);
 130   1        if (!newbuffer) {cJSON_free(p->buffer);p->length=0,p->buffer=0;return 0;}
 131   1        if (newbuffer) memcpy(newbuffer,p->buffer,p->length);
 132   1        cJSON_free(p->buffer);
 133   1        p->length=newsize;
 134   1        p->buffer=newbuffer;
 135   1        return newbuffer+p->offset;
 136   1      }
 137          
 138          static int update(printbuffer *p)
 139          {
 140   1        char *str;
C51 COMPILER V9.01   CJSON                                                                 06/17/2019 10:07:01 PAGE 11  

 141   1        if (!p || !p->buffer) return 0;
 142   1        str=p->buffer+p->offset;
 143   1        return p->offset+strlen(str);
 144   1      }
 145          
 146          /* Render the number nicely from the given item into a string. */
 147          static char *print_number(cJSON *item,printbuffer *p)
 148          {
 149   1        char *str=0;
 150   1        double d=item->valuedouble;
 151   1        if (d==0)
 152   1        {
 153   2          if (p)  str=ensure(p,2);
 154   2          else  str=(char*)cJSON_malloc(2); /* special case for 0. */
 155   2          if (str) strcpy(str,"0");
 156   2        }
 157   1        else if (fabs(((double)item->valueint)-d)<=DBL_EPSILON && d<=INT_MAX && d>=INT_MIN)
 158   1        {
 159   2          if (p)  str=ensure(p,21);
 160   2          else  str=(char*)cJSON_malloc(21);  /* 2^64+1 can be represented in 21 chars. */
 161   2          if (str)  sprintf(str,"%d",item->valueint);
 162   2        }
 163   1        else
 164   1        {
 165   2          if (p)  str=ensure(p,64);
 166   2          else  str=(char*)cJSON_malloc(64);  /* This is a nice tradeoff. */
 167   2          if (str)
 168   2          {
 169   3            if (fabs(floor(d)-d)<=DBL_EPSILON && fabs(d)<1.0e60)sprintf(str,"%.0f",d);
 170   3            else if (fabs(d)<1.0e-6 || fabs(d)>1.0e9)     sprintf(str,"%e",d);
 171   3            else                        sprintf(str,"%f",d);
 172   3          }
 173   2        }
 174   1        return str;
 175   1      }
 176          
 177          static unsigned parse_hex4(const char *str)
 178          {
 179   1        unsigned h=0;
 180   1        if (*str>='0' && *str<='9') h+=(*str)-'0'; else if (*str>='A' && *str<='F') h+=10+(*str)-'A'; else if (*s
             -tr>='a' && *str<='f') h+=10+(*str)-'a'; else return 0;
 181   1        h=h<<4;str++;
 182   1        if (*str>='0' && *str<='9') h+=(*str)-'0'; else if (*str>='A' && *str<='F') h+=10+(*str)-'A'; else if (*s
             -tr>='a' && *str<='f') h+=10+(*str)-'a'; else return 0;
 183   1        h=h<<4;str++;
 184   1        if (*str>='0' && *str<='9') h+=(*str)-'0'; else if (*str>='A' && *str<='F') h+=10+(*str)-'A'; else if (*s
             -tr>='a' && *str<='f') h+=10+(*str)-'a'; else return 0;
 185   1        h=h<<4;str++;
 186   1        if (*str>='0' && *str<='9') h+=(*str)-'0'; else if (*str>='A' && *str<='F') h+=10+(*str)-'A'; else if (*s
             -tr>='a' && *str<='f') h+=10+(*str)-'a'; else return 0;
 187   1        return h;
 188   1      }
 189          
 190          /* Parse the input text into an unescaped cstring, and populate item. */
 191          static const unsigned char firstByteMark[7] = { 0x00, 0x00, 0xC0, 0xE0, 0xF0, 0xF8, 0xFC };
 192          static const char *parse_string(cJSON *item,const char *str)
 193          {
 194   1        const char *ptr=str+1;char *ptr2;char *out;int len=0;unsigned uc,uc2;
 195   1        if (*str!='\"') {ep=str;return 0;}  /* not a string! */
 196   1        
 197   1        while (*ptr!='\"' && *ptr && ++len) if (*ptr++ == '\\') ptr++;  /* Skip escaped quotes. */
 198   1        
C51 COMPILER V9.01   CJSON                                                                 06/17/2019 10:07:01 PAGE 12  

 199   1        out=(char*)cJSON_malloc(len+1); /* This is how long we need for the string, roughly. */
 200   1        if (!out) return 0;
 201   1        
 202   1        ptr=str+1;ptr2=out;
 203   1        while (*ptr!='\"' && *ptr)
 204   1        {
 205   2          if (*ptr!='\\') *ptr2++=*ptr++;
 206   2          else
 207   2          {
 208   3            ptr++;
 209   3            switch (*ptr)
 210   3            {
 211   4              case 'b': *ptr2++='\b'; break;
 212   4              case 'f': *ptr2++='\f'; break;
 213   4              case 'n': *ptr2++='\n'; break;
 214   4              case 'r': *ptr2++='\r'; break;
 215   4              case 't': *ptr2++='\t'; break;
 216   4              case 'u':  /* transcode utf16 to utf8. */
 217   4                uc=parse_hex4(ptr+1);ptr+=4;  /* get the unicode char. */
 218   4      
 219   4                if ((uc>=0xDC00 && uc<=0xDFFF) || uc==0)  break;  /* check for invalid. */
 220   4      
 221   4                if (uc>=0xD800 && uc<=0xDBFF) /* UTF16 surrogate pairs. */
 222   4                {
 223   5                  if (ptr[1]!='\\' || ptr[2]!='u')  break;  /* missing second-half of surrogate.  */
 224   5                  uc2=parse_hex4(ptr+3);ptr+=6;
 225   5                  if (uc2<0xDC00 || uc2>0xDFFF)   break;  /* invalid second-half of surrogate.  */
 226   5                  uc=0x10000 + (((uc&0x3FF)<<10) | (uc2&0x3FF));
 227   5                }
 228   4      
 229   4                len=4;if (uc<0x80) len=1;else if (uc<0x800) len=2;else if (uc<0x10000) len=3; ptr2+=len;
 230   4                
 231   4                switch (len) {
 232   5                  case 4: *--ptr2 =((uc | 0x80) & 0xBF); uc >>= 6;
 233   5                  case 3: *--ptr2 =((uc | 0x80) & 0xBF); uc >>= 6;
 234   5                  case 2: *--ptr2 =((uc | 0x80) & 0xBF); uc >>= 6;
 235   5                  case 1: *--ptr2 =(uc | firstByteMark[len]);
 236   5                }
 237   4                ptr2+=len;
 238   4                break;
 239   4              default:  *ptr2++=*ptr; break;
 240   4            }
 241   3            ptr++;
 242   3          }
 243   2        }
 244   1        *ptr2=0;
 245   1        if (*ptr=='\"') ptr++;
 246   1        item->valuestring=out;
 247   1        item->type=cJSON_String;
 248   1        return ptr;
 249   1      }
 250          
 251          /* Render the cstring provided to an escaped version that can be printed. */
 252          static char *print_string_ptr(const char *str,printbuffer *p)
 253          {
 254   1        const char *ptr;char *ptr2,*out;int len=0,flag=0;unsigned char token;
 255   1        
 256   1        for (ptr=str;*ptr;ptr++) flag|=((*ptr>0 && *ptr<32)||(*ptr=='\"')||(*ptr=='\\'))?1:0;
 257   1        if (!flag)
 258   1        {
 259   2          len=ptr-str;
 260   2          if (p) out=ensure(p,len+3);
C51 COMPILER V9.01   CJSON                                                                 06/17/2019 10:07:01 PAGE 13  

 261   2          else    out=(char*)cJSON_malloc(len+3);
 262   2          if (!out) return 0;
 263   2          ptr2=out;*ptr2++='\"';
 264   2          strcpy(ptr2,str);
 265   2          ptr2[len]='\"';
 266   2          ptr2[len+1]=0;
 267   2          return out;
 268   2        }
 269   1        
 270   1        if (!str)
 271   1        {
 272   2          if (p)  out=ensure(p,3);
 273   2          else  out=(char*)cJSON_malloc(3);
 274   2          if (!out) return 0;
 275   2          strcpy(out,"\"\"");
 276   2          return out;
 277   2        }
 278   1        ptr=str;while ((token=*ptr) && ++len) {if (strchr("\"\\\b\f\n\r\t",token)) len++; else if (token<32) len+
             -=5;ptr++;}
 279   1        
 280   1        if (p)  out=ensure(p,len+3);
 281   1        else  out=(char*)cJSON_malloc(len+3);
 282   1        if (!out) return 0;
 283   1      
 284   1        ptr2=out;ptr=str;
 285   1        *ptr2++='\"';
 286   1        while (*ptr)
 287   1        {
 288   2          if ((unsigned char)*ptr>31 && *ptr!='\"' && *ptr!='\\') *ptr2++=*ptr++;
 289   2          else
 290   2          {
 291   3            *ptr2++='\\';
 292   3            switch (token=*ptr++)
 293   3            {
 294   4              case '\\':  *ptr2++='\\'; break;
 295   4              case '\"':  *ptr2++='\"'; break;
 296   4              case '\b':  *ptr2++='b';  break;
 297   4              case '\f':  *ptr2++='f';  break;
 298   4              case '\n':  *ptr2++='n';  break;
 299   4              case '\r':  *ptr2++='r';  break;
 300   4              case '\t':  *ptr2++='t';  break;
 301   4              default: sprintf(ptr2,"u%04x",token);ptr2+=5; break;  /* escape and print */
 302   4            }
 303   3          }
 304   2        }
 305   1        *ptr2++='\"';*ptr2++=0;
 306   1        return out;
 307   1      }
 308          /* Invote print_string_ptr (which is useful) on an item. */
 309          static char *print_string(cJSON *item,printbuffer *p) {return print_string_ptr(item->valuestring,p);}
 310          
 311          /* Predeclare these prototypes. */
 312          static const char *parse_value(cJSON *item,const char *value);
 313          static char *print_value(cJSON *item,int depth,int fmt,printbuffer *p);
 314          static const char *parse_array(cJSON *item,const char *value);
 315          static char *print_array(cJSON *item,int depth,int fmt,printbuffer *p);
 316          static const char *parse_object(cJSON *item,const char *value);
 317          static char *print_object(cJSON *item,int depth,int fmt,printbuffer *p);
 318          
 319          /* Utility to jump whitespace and cr/lf */
 320          static const char *skip(const char *in) {while (in && *in && (unsigned char)*in<=32) in++; return in;}
 321          
C51 COMPILER V9.01   CJSON                                                                 06/17/2019 10:07:01 PAGE 14  

 322          /* Parse an object - create a new root, and populate. */
 323          cJSON *cJSON_ParseWithOpts(const char *value,const char **return_parse_end,int require_null_terminated)
 324          {
 325   1        const char *end=0;
 326   1        cJSON *c=cJSON_New_Item();
 327   1        ep=0;
 328   1        if (!c) return 0;       /* memory fail */
 329   1      
 330   1        end=parse_value(c,skip(value));
 331   1        if (!end) {cJSON_Delete(c);return 0;} /* parse failure. ep is set. */
 332   1      
 333   1        /* if we require null-terminated JSON without appended garbage, skip and then check for a null terminator
             - */
 334   1        if (require_null_terminated) {end=skip(end);if (*end) {cJSON_Delete(c);ep=end;return 0;}}
 335   1        if (return_parse_end) *return_parse_end=end;
 336   1        return c;
 337   1      }
 338          /* Default options for cJSON_Parse */
 339          cJSON *cJSON_Parse(const char *value) {return cJSON_ParseWithOpts(value,0,0);}
 340          
 341          /* Render a cJSON item/entity/structure to text. */
 342          char *cJSON_Print(cJSON *item)        {return print_value(item,0,1,0);}
 343          char *cJSON_PrintUnformatted(cJSON *item) {return print_value(item,0,0,0);}
 344          
 345          char *cJSON_PrintBuffered(cJSON *item,int prebuffer,int fmt)
 346          {
 347   1        printbuffer p;
 348   1        p.buffer=(char*)cJSON_malloc(prebuffer);
 349   1        p.length=prebuffer;
 350   1        p.offset=0;
 351   1        return print_value(item,0,fmt,&p);
 352   1        return p.buffer;
 353   1      }
 354          
 355          
 356          /* Parser core - when encountering text, process appropriately. */
 357          static const char *parse_value(cJSON *item,const char *value)
 358          {
 359   1        if (!value)           return 0; /* Fail on null. */
 360   1        if (!strncmp(value,"null",4)) { item->type=cJSON_NULL;  return value+4; }
 361   1        if (!strncmp(value,"false",5))  { item->type=cJSON_False; return value+5; }
 362   1        if (!strncmp(value,"true",4)) { item->type=cJSON_True; item->valueint=1;  return value+4; }
 363   1        if (*value=='\"')       { return parse_string(item,value); }
 364   1        if (*value=='-' || (*value>='0' && *value<='9'))  { return parse_number(item,value); }
 365   1        if (*value=='[')        { return parse_array(item,value); }
 366   1        if (*value=='{')        { return parse_object(item,value); }
 367   1      
 368   1        ep=value;return 0;  /* failure. */
 369   1      }
 370          
 371          /* Render a value to text. */
 372          static char *print_value(cJSON *item,int depth,int fmt,printbuffer *p)
 373          {
 374   1        char *out=0;
 375   1        if (!item) return 0;
 376   1        if (p)
 377   1        {
 378   2          switch ((item->type)&255)
 379   2          {
 380   3            case cJSON_NULL:  {out=ensure(p,5); if (out) strcpy(out,"null");  break;}
 381   3            case cJSON_False: {out=ensure(p,6); if (out) strcpy(out,"false"); break;}
 382   3            case cJSON_True:  {out=ensure(p,5); if (out) strcpy(out,"true");  break;}
C51 COMPILER V9.01   CJSON                                                                 06/17/2019 10:07:01 PAGE 15  

 383   3            case cJSON_Number:  out=print_number(item,p);break;
 384   3            case cJSON_String:  out=print_string(item,p);break;
 385   3            case cJSON_Array: out=print_array(item,depth,fmt,p);break;
 386   3            case cJSON_Object:  out=print_object(item,depth,fmt,p);break;
 387   3          }
 388   2        }
 389   1        else
 390   1        {
 391   2          switch ((item->type)&255)
 392   2          {
 393   3            case cJSON_NULL:  out=cJSON_strdup("null"); break;
 394   3            case cJSON_False: out=cJSON_strdup("false");break;
 395   3            case cJSON_True:  out=cJSON_strdup("true"); break;
 396   3            case cJSON_Number:  out=print_number(item,0);break;
 397   3            case cJSON_String:  out=print_string(item,0);break;
 398   3            case cJSON_Array: out=print_array(item,depth,fmt,0);break;
 399   3            case cJSON_Object:  out=print_object(item,depth,fmt,0);break;
 400   3          }
 401   2        }
 402   1        return out;
 403   1      }
 404          
 405          /* Build an array from input text. */
 406          static const char *parse_array(cJSON *item,const char *value)
 407          {
 408   1        cJSON *child;
 409   1        if (*value!='[')  {ep=value;return 0;}  /* not an array! */
 410   1      
 411   1        item->type=cJSON_Array;
 412   1        value=skip(value+1);
 413   1        if (*value==']') return value+1;  /* empty array. */
 414   1      
 415   1        item->child=child=cJSON_New_Item();
 416   1        if (!item->child) return 0;    /* memory fail */
 417   1        value=skip(parse_value(child,skip(value))); /* skip any spacing, get the value. */
 418   1        if (!value) return 0;
 419   1      
 420   1        while (*value==',')
 421   1        {
 422   2          cJSON *new_item;
 423   2          if (!(new_item=cJSON_New_Item())) return 0;   /* memory fail */
 424   2          child->next=new_item;new_item->prev=child;child=new_item;
 425   2          value=skip(parse_value(child,skip(value+1)));
 426   2          if (!value) return 0; /* memory fail */
 427   2        }
 428   1      
 429   1        if (*value==']') return value+1;  /* end of array */
 430   1        ep=value;return 0;  /* malformed. */
 431   1      }
 432          
 433          /* Render an array to text */
 434          static char *print_array(cJSON *item,int depth,int fmt,printbuffer *p)
 435          {
 436   1        char **entries;
 437   1        char *out=0,*ptr,*ret;int len=5;
 438   1        cJSON *child=item->child;
 439   1        int numentries=0,i=0,fail=0;
 440   1        size_t tmplen=0;
 441   1        
 442   1        /* How many entries in the array? */
 443   1        while (child) numentries++,child=child->next;
 444   1        /* Explicitly handle numentries==0 */
C51 COMPILER V9.01   CJSON                                                                 06/17/2019 10:07:01 PAGE 16  

 445   1        if (!numentries)
 446   1        {
 447   2          if (p)  out=ensure(p,3);
 448   2          else  out=(char*)cJSON_malloc(3);
 449   2          if (out) strcpy(out,"[]");
 450   2          return out;
 451   2        }
 452   1      
 453   1        if (p)
 454   1        {
 455   2          /* Compose the output array. */
 456   2          i=p->offset;
 457   2          ptr=ensure(p,1);if (!ptr) return 0; *ptr='['; p->offset++;
 458   2          child=item->child;
 459   2          while (child && !fail)
 460   2          {
 461   3            print_value(child,depth+1,fmt,p);
 462   3            p->offset=update(p);
 463   3            if (child->next) {len=fmt?2:1;ptr=ensure(p,len+1);if (!ptr) return 0;*ptr++=',';if(fmt)*ptr++=' ';*ptr=
             -0;p->offset+=len;}
 464   3            child=child->next;
 465   3          }
 466   2          ptr=ensure(p,2);if (!ptr) return 0; *ptr++=']';*ptr=0;
 467   2          out=(p->buffer)+i;
 468   2        }
 469   1        else
 470   1        {
 471   2          /* Allocate an array to hold the values for each */
 472   2          entries=(char**)cJSON_malloc(numentries*sizeof(char*));
 473   2          if (!entries) return 0;
 474   2          memset(entries,0,numentries*sizeof(char*));
 475   2          /* Retrieve all the results: */
 476   2          child=item->child;
 477   2          while (child && !fail)
 478   2          {
 479   3            ret=print_value(child,depth+1,fmt,0);
 480   3            entries[i++]=ret;
 481   3            if (ret) len+=strlen(ret)+2+(fmt?1:0); else fail=1;
 482   3            child=child->next;
 483   3          }
 484   2          
 485   2          /* If we didn't fail, try to malloc the output string */
 486   2          if (!fail)  out=(char*)cJSON_malloc(len);
 487   2          /* If that fails, we fail. */
 488   2          if (!out) fail=1;
 489   2      
 490   2          /* Handle failure. */
 491   2          if (fail)
 492   2          {
 493   3            for (i=0;i<numentries;i++) if (entries[i]) cJSON_free(entries[i]);
 494   3            cJSON_free(entries);
 495   3            return 0;
 496   3          }
 497   2          
 498   2          /* Compose the output array. */
 499   2          *out='[';
 500   2          ptr=out+1;*ptr=0;
 501   2          for (i=0;i<numentries;i++)
 502   2          {
 503   3            tmplen=strlen(entries[i]);memcpy(ptr,entries[i],tmplen);ptr+=tmplen;
 504   3            if (i!=numentries-1) {*ptr++=',';if(fmt)*ptr++=' ';*ptr=0;}
 505   3            cJSON_free(entries[i]);
C51 COMPILER V9.01   CJSON                                                                 06/17/2019 10:07:01 PAGE 17  

 506   3          }
 507   2          cJSON_free(entries);
 508   2          *ptr++=']';*ptr++=0;
 509   2        }
 510   1        return out; 
 511   1      }
 512          
 513          /* Build an object from the text. */
 514          static const char *parse_object(cJSON *item,const char *value)
 515          {
 516   1        cJSON *child;
 517   1        if (*value!='{')  {ep=value;return 0;}  /* not an object! */
 518   1        
 519   1        item->type=cJSON_Object;
 520   1        value=skip(value+1);
 521   1        if (*value=='}') return value+1;  /* empty array. */
 522   1        
 523   1        item->child=child=cJSON_New_Item();
 524   1        if (!item->child) return 0;
 525   1        value=skip(parse_string(child,skip(value)));
 526   1        if (!value) return 0;
 527   1        child->string=child->valuestring;child->valuestring=0;
 528   1        if (*value!=':') {ep=value;return 0;} /* fail! */
 529   1        value=skip(parse_value(child,skip(value+1))); /* skip any spacing, get the value. */
 530   1        if (!value) return 0;
 531   1        
 532   1        while (*value==',')
 533   1        {
 534   2          cJSON *new_item;
 535   2          if (!(new_item=cJSON_New_Item())) return 0; /* memory fail */
 536   2          child->next=new_item;new_item->prev=child;child=new_item;
 537   2          value=skip(parse_string(child,skip(value+1)));
 538   2          if (!value) return 0;
 539   2          child->string=child->valuestring;child->valuestring=0;
 540   2          if (*value!=':') {ep=value;return 0;} /* fail! */
 541   2          value=skip(parse_value(child,skip(value+1))); /* skip any spacing, get the value. */
 542   2          if (!value) return 0;
 543   2        }
 544   1        
 545   1        if (*value=='}') return value+1;  /* end of array */
 546   1        ep=value;return 0;  /* malformed. */
 547   1      }
 548          
 549          /* Render an object to text. */
 550          static char *print_object(cJSON *item,int depth,int fmt,printbuffer *p)
 551          {
 552   1        char **entries=0,**names=0;
 553   1        char *out=0,*ptr,*ret,*str;int len=7,i=0,j;
 554   1        cJSON *child=item->child;
 555   1        int numentries=0,fail=0;
 556   1        size_t tmplen=0;
 557   1        /* Count the number of entries. */
 558   1        while (child) numentries++,child=child->next;
 559   1        /* Explicitly handle empty object case */
 560   1        if (!numentries)
 561   1        {
 562   2          if (p) out=ensure(p,fmt?depth+4:3);
 563   2          else  out=(char*)cJSON_malloc(fmt?depth+4:3);
 564   2          if (!out) return 0;
 565   2          ptr=out;*ptr++='{';
 566   2          if (fmt) {*ptr++='\n';for (i=0;i<depth-1;i++) *ptr++='\t';}
 567   2          *ptr++='}';*ptr++=0;
C51 COMPILER V9.01   CJSON                                                                 06/17/2019 10:07:01 PAGE 18  

 568   2          return out;
 569   2        }
 570   1        if (p)
 571   1        {
 572   2          /* Compose the output: */
 573   2          i=p->offset;
 574   2          len=fmt?2:1;  ptr=ensure(p,len+1);  if (!ptr) return 0;
 575   2          *ptr++='{'; if (fmt) *ptr++='\n'; *ptr=0; p->offset+=len;
 576   2          child=item->child;depth++;
 577   2          while (child)
 578   2          {
 579   3            if (fmt)
 580   3            {
 581   4              ptr=ensure(p,depth);  if (!ptr) return 0;
 582   4              for (j=0;j<depth;j++) *ptr++='\t';
 583   4              p->offset+=depth;
 584   4            }
 585   3            print_string_ptr(child->string,p);
 586   3            p->offset=update(p);
 587   3            
 588   3            len=fmt?2:1;
 589   3            ptr=ensure(p,len);  if (!ptr) return 0;
 590   3            *ptr++=':';if (fmt) *ptr++='\t';
 591   3            p->offset+=len;
 592   3            
 593   3            print_value(child,depth,fmt,p);
 594   3            p->offset=update(p);
 595   3      
 596   3            len=(fmt?1:0)+(child->next?1:0);
 597   3            ptr=ensure(p,len+1); if (!ptr) return 0;
 598   3            if (child->next) *ptr++=',';
 599   3            if (fmt) *ptr++='\n';*ptr=0;
 600   3            p->offset+=len;
 601   3            child=child->next;
 602   3          }
 603   2          ptr=ensure(p,fmt?(depth+1):2);   if (!ptr) return 0;
 604   2          if (fmt)  for (i=0;i<depth-1;i++) *ptr++='\t';
 605   2          *ptr++='}';*ptr=0;
 606   2          out=(p->buffer)+i;
 607   2        }
 608   1        else
 609   1        {
 610   2          /* Allocate space for the names and the objects */
 611   2          entries=(char**)cJSON_malloc(numentries*sizeof(char*));
 612   2          if (!entries) return 0;
 613   2          names=(char**)cJSON_malloc(numentries*sizeof(char*));
 614   2          if (!names) {cJSON_free(entries);return 0;}
 615   2          memset(entries,0,sizeof(char*)*numentries);
 616   2          memset(names,0,sizeof(char*)*numentries);
 617   2      
 618   2          /* Collect all the results into our arrays: */
 619   2          child=item->child;depth++;if (fmt) len+=depth;
 620   2          while (child)
 621   2          {
 622   3            names[i]=str=print_string_ptr(child->string,0);
 623   3            entries[i++]=ret=print_value(child,depth,fmt,0);
 624   3            if (str && ret) len+=strlen(ret)+strlen(str)+2+(fmt?2+depth:0); else fail=1;
 625   3            child=child->next;
 626   3          }
 627   2          
 628   2          /* Try to allocate the output string */
 629   2          if (!fail)  out=(char*)cJSON_malloc(len);
C51 COMPILER V9.01   CJSON                                                                 06/17/2019 10:07:01 PAGE 19  

 630   2          if (!out) fail=1;
 631   2      
 632   2          /* Handle failure */
 633   2          if (fail)
 634   2          {
 635   3            for (i=0;i<numentries;i++) {if (names[i]) cJSON_free(names[i]);if (entries[i]) cJSON_free(entries[i]);}
 636   3            cJSON_free(names);cJSON_free(entries);
 637   3            return 0;
 638   3          }
 639   2          
 640   2          /* Compose the output: */
 641   2          *out='{';ptr=out+1;if (fmt)*ptr++='\n';*ptr=0;
 642   2          for (i=0;i<numentries;i++)
 643   2          {
 644   3            if (fmt) for (j=0;j<depth;j++) *ptr++='\t';
 645   3            tmplen=strlen(names[i]);memcpy(ptr,names[i],tmplen);ptr+=tmplen;
 646   3            *ptr++=':';if (fmt) *ptr++='\t';
 647   3            strcpy(ptr,entries[i]);ptr+=strlen(entries[i]);
 648   3            if (i!=numentries-1) *ptr++=',';
 649   3            if (fmt) *ptr++='\n';*ptr=0;
 650   3            cJSON_free(names[i]);cJSON_free(entries[i]);
 651   3          }
 652   2          
 653   2          cJSON_free(names);cJSON_free(entries);
 654   2          if (fmt) for (i=0;i<depth-1;i++) *ptr++='\t';
 655   2          *ptr++='}';*ptr++=0;
 656   2        }
 657   1        return out; 
 658   1      }
 659          
 660          /* Get Array size/item / object item. */
 661          int    cJSON_GetArraySize(cJSON *array)             {cJSON *c=array->child;int i=0;while(c)i++,c=c->next;return 
             -i;}
 662          cJSON *cJSON_GetArrayItem(cJSON *array,int item)        {cJSON *c=array->child;  while (c && item>0) item--,c=
             -c->next; return c;}
 663          cJSON *cJSON_GetObjectItem(cJSON *object,const char *string)  {cJSON *c=object->child; while (c && cJSON_st
             -rcasecmp(c->string,string)) c=c->next; return c;}
 664          
 665          /* Utility for array list handling. */
 666          static void suffix_object(cJSON *prev,cJSON *item) {prev->next=item;item->prev=prev;}
 667          /* Utility for handling references. */
 668          static cJSON *create_reference(cJSON *item) {cJSON *ref=cJSON_New_Item();if (!ref) return 0;memcpy(ref,ite
             -m,sizeof(cJSON));ref->string=0;ref->type|=cJSON_IsReference;ref->next=ref->prev=0;return ref;}
 669          
 670          /* Add item to array/object. */
 671          void   cJSON_AddItemToArray(cJSON *array, cJSON *item)            {cJSON *c=array->child;if (!item) return; if (
             -!c) {array->child=item;} else {while (c && c->next) c=c->next; suffix_object(c,item);}}
 672          void   cJSON_AddItemToObject(cJSON *object,const char *string,cJSON *item)  {if (!item) return; if (item->s
             -tring) cJSON_free(item->string);item->string=cJSON_strdup(string);cJSON_AddItemToArray(object,item);}
 673          void   cJSON_AddItemToObjectCS(cJSON *object,const char *string,cJSON *item)  {if (!item) return; if (!(ite
             -m->type&cJSON_StringIsConst) && item->string) cJSON_free(item->string);item->string=(char*)string;item->type|=cJSON_Stri
             -ngIsConst;cJSON_AddItemToArray(object,item);}
 674          void  cJSON_AddItemReferenceToArray(cJSON *array, cJSON *item)            {cJSON_AddItemToArray(array,create_refe
             -rence(item));}
 675          void  cJSON_AddItemReferenceToObject(cJSON *object,const char *string,cJSON *item)  {cJSON_AddItemToObject(o
             -bject,string,create_reference(item));}
 676          
 677          cJSON *cJSON_DetachItemFromArray(cJSON *array,int which)      {cJSON *c=array->child;while (c && which>0) c=c
             -->next,which--;if (!c) return 0;
 678   1        if (c->prev) c->prev->next=c->next;if (c->next) c->next->prev=c->prev;if (c==array->child) array->child=c
             -->next;c->prev=c->next=0;return c;}
 679          void   cJSON_DeleteItemFromArray(cJSON *array,int which)      {cJSON_Delete(cJSON_DetachItemFromArray(array,w
C51 COMPILER V9.01   CJSON                                                                 06/17/2019 10:07:01 PAGE 20  

             -hich));}
 680          cJSON *cJSON_DetachItemFromObject(cJSON *object,const char *string) {int i=0;cJSON *c=object->child;while 
             -(c && cJSON_strcasecmp(c->string,string)) i++,c=c->next;if (c) return cJSON_DetachItemFromArray(object,i);return 0;}
 681          void   cJSON_DeleteItemFromObject(cJSON *object,const char *string) {cJSON_Delete(cJSON_DetachItemFromObje
             -ct(object,string));}
 682          
 683          /* Replace array/object items with new ones. */
 684          void   cJSON_InsertItemInArray(cJSON *array,int which,cJSON *newitem)   {cJSON *c=array->child;while (c && 
             -which>0) c=c->next,which--;if (!c) {cJSON_AddItemToArray(array,newitem);return;}
 685   1        newitem->next=c;newitem->prev=c->prev;c->prev=newitem;if (c==array->child) array->child=newitem; else new
             -item->prev->next=newitem;}
 686          void   cJSON_ReplaceItemInArray(cJSON *array,int which,cJSON *newitem)    {cJSON *c=array->child;while (c &&
             - which>0) c=c->next,which--;if (!c) return;
 687   1        newitem->next=c->next;newitem->prev=c->prev;if (newitem->next) newitem->next->prev=newitem;
 688   1        if (c==array->child) array->child=newitem; else newitem->prev->next=newitem;c->next=c->prev=0;cJSON_Delet
             -e(c);}
 689          void   cJSON_ReplaceItemInObject(cJSON *object,const char *string,cJSON *newitem){int i=0;cJSON *c=object-
             ->child;while(c && cJSON_strcasecmp(c->string,string))i++,c=c->next;if(c){newitem->string=cJSON_strdup(string);cJSON_Repl
             -aceItemInArray(object,i,newitem);}}
 690          
 691          /* Create basic types: */
 692          cJSON *cJSON_CreateNull(void)         {cJSON *item=cJSON_New_Item();if(item)item->type=cJSON_NULL;return item;
             -}
 693          cJSON *cJSON_CreateTrue(void)         {cJSON *item=cJSON_New_Item();if(item)item->type=cJSON_True;return item;
             -}
 694          cJSON *cJSON_CreateFalse(void)          {cJSON *item=cJSON_New_Item();if(item)item->type=cJSON_False;return ite
             -m;}
 695          cJSON *cJSON_CreateBool(int b)          {cJSON *item=cJSON_New_Item();if(item)item->type=b?cJSON_True:cJSON_Fal
             -se;return item;}
 696          cJSON *cJSON_CreateNumber(double num)     {cJSON *item=cJSON_New_Item();if(item){item->type=cJSON_Number;ite
             -m->valuedouble=num;item->valueint=(int)num;}return item;}
 697          cJSON *cJSON_CreateString(const char *string) {cJSON *item=cJSON_New_Item();if(item){item->type=cJSON_Stri
             -ng;item->valuestring=cJSON_strdup(string);}return item;}
 698          cJSON *cJSON_CreateArray(void)          {cJSON *item=cJSON_New_Item();if(item)item->type=cJSON_Array;return ite
             -m;}
 699          cJSON *cJSON_CreateObject(void)         {cJSON *item=cJSON_New_Item();if(item)item->type=cJSON_Object;return i
             -tem;}
 700          
 701          /* Create Arrays: */
 702          cJSON *cJSON_CreateIntArray(const int *numbers,int count)   {int i;cJSON *n=0,*p=0,*a=cJSON_CreateArray();f
             -or(i=0;a && i<count;i++){n=cJSON_CreateNumber(numbers[i]);if(!i)a->child=n;else suffix_object(p,n);p=n;}return a;}
 703          cJSON *cJSON_CreateFloatArray(const float *numbers,int count) {int i;cJSON *n=0,*p=0,*a=cJSON_CreateArray(
             -);for(i=0;a && i<count;i++){n=cJSON_CreateNumber(numbers[i]);if(!i)a->child=n;else suffix_object(p,n);p=n;}return a;}
 704          cJSON *cJSON_CreateDoubleArray(const double *numbers,int count) {int i;cJSON *n=0,*p=0,*a=cJSON_CreateArra
             -y();for(i=0;a && i<count;i++){n=cJSON_CreateNumber(numbers[i]);if(!i)a->child=n;else suffix_object(p,n);p=n;}return a;}
 705          cJSON *cJSON_CreateStringArray(const char **strings,int count)  {int i;cJSON *n=0,*p=0,*a=cJSON_CreateArray
             -();for(i=0;a && i<count;i++){n=cJSON_CreateString(strings[i]);if(!i)a->child=n;else suffix_object(p,n);p=n;}return a;}
 706          
 707          /* Duplication */
 708          cJSON *cJSON_Duplicate(cJSON *item,int recurse)
 709          {
 710   1        cJSON *newitem,*cptr,*nptr=0,*newchild;
 711   1        /* Bail on bad ptr */
 712   1        if (!item) return 0;
 713   1        /* Create new item */
 714   1        newitem=cJSON_New_Item();
 715   1        if (!newitem) return 0;
 716   1        /* Copy over all vars */
 717   1        newitem->type=item->type&(~cJSON_IsReference),newitem->valueint=item->valueint,newitem->valuedouble=item-
             ->valuedouble;
 718   1        if (item->valuestring)  {newitem->valuestring=cJSON_strdup(item->valuestring);  if (!newitem->valuestring)  
             -{cJSON_Delete(newitem);return 0;}}
C51 COMPILER V9.01   CJSON                                                                 06/17/2019 10:07:01 PAGE 21  

 719   1        if (item->string)   {newitem->string=cJSON_strdup(item->string);      if (!newitem->string)   {cJSON_Delete(ne
             -witem);return 0;}}
 720   1        /* If non-recursive, then we're done! */
 721   1        if (!recurse) return newitem;
 722   1        /* Walk the ->next chain for the child. */
 723   1        cptr=item->child;
 724   1        while (cptr)
 725   1        {
 726   2          newchild=cJSON_Duplicate(cptr,1);   /* Duplicate (with recurse) each item in the ->next chain */
 727   2          if (!newchild) {cJSON_Delete(newitem);return 0;}
 728   2          if (nptr) {nptr->next=newchild,newchild->prev=nptr;nptr=newchild;}  /* If newitem->child already set, the
             -n crosswire ->prev and ->next and move on */
 729   2          else    {newitem->child=newchild;nptr=newchild;}          /* Set newitem->child and move to it */
 730   2          cptr=cptr->next;
 731   2        }
 732   1        return newitem;
 733   1      }
 734          
 735          void cJSON_Minify(char *json)
 736          {
 737   1        char *into=json;
 738   1        while (*json)
 739   1        {
 740   2          if (*json==' ') json++;
 741   2          else if (*json=='\t') json++; /* Whitespace characters. */
 742   2          else if (*json=='\r') json++;
 743   2          else if (*json=='\n') json++;
 744   2          else if (*json=='/' && json[1]=='/')  while (*json && *json!='\n') json++;  /* double-slash comments, to 
             -end of line. */
 745   2          else if (*json=='/' && json[1]=='*') {while (*json && !(*json=='*' && json[1]=='/')) json++;json+=2;} /*
             - multiline comments. */
 746   2          else if (*json=='\"'){*into++=*json++;while (*json && *json!='\"'){if (*json=='\\') *into++=*json++;*int
             -o++=*json++;}*into++=*json++;} /* string literals, which are \" sensitive. */
 747   2          else *into++=*json++;     /* All other characters. */
 748   2        }
 749   1        *into=0;  /* and null-terminate. */
 750   1      }
C51 COMPILER V9.01   CJSON                                                                 06/17/2019 10:07:01 PAGE 22  

ASSEMBLY LISTING OF GENERATED OBJECT CODE


             ; FUNCTION cJSON_GetErrorPtr (BEGIN)
                                           ; SOURCE LINE # 37
0000 900000      R     MOV     DPTR,#ep
0003 E0                MOVX    A,@DPTR
0004 FB                MOV     R3,A
0005 A3                INC     DPTR
0006 E0                MOVX    A,@DPTR
0007 FA                MOV     R2,A
0008 A3                INC     DPTR
0009 E0                MOVX    A,@DPTR
000A F9                MOV     R1,A
000B         ?C0001:
000B 22                RET     
             ; FUNCTION cJSON_GetErrorPtr (END)

             ; FUNCTION _cJSON_strcasecmp (BEGIN)
                                           ; SOURCE LINE # 39
0000 900000      R     MOV     DPTR,#s1
0003 EB                MOV     A,R3
0004 F0                MOVX    @DPTR,A
0005 A3                INC     DPTR
0006 EA                MOV     A,R2
0007 F0                MOVX    @DPTR,A
0008 A3                INC     DPTR
0009 E9                MOV     A,R1
000A F0                MOVX    @DPTR,A
                                           ; SOURCE LINE # 40
                                           ; SOURCE LINE # 41
000B 900000      R     MOV     DPTR,#s1
000E E0                MOVX    A,@DPTR
000F FB                MOV     R3,A
0010 A3                INC     DPTR
0011 E0                MOVX    A,@DPTR
0012 FA                MOV     R2,A
0013 A3                INC     DPTR
0014 E0                MOVX    A,@DPTR
0015 F9                MOV     R1,A
0016 EA                MOV     A,R2
0017 49                ORL     A,R1
0018 4B                ORL     A,R3
0019 7035              JNZ     ?C0002
001B A3                INC     DPTR
001C E0                MOVX    A,@DPTR
001D FB                MOV     R3,A
001E A3                INC     DPTR
001F E0                MOVX    A,@DPTR
0020 FA                MOV     R2,A
0021 A3                INC     DPTR
0022 E0                MOVX    A,@DPTR
0023 F9                MOV     R1,A
0024 C003              PUSH    AR3
0026 C002              PUSH    AR2
0028 C001              PUSH    AR1
002A 900000      R     MOV     DPTR,#s1
002D E0                MOVX    A,@DPTR
002E FB                MOV     R3,A
002F A3                INC     DPTR
0030 E0                MOVX    A,@DPTR
0031 FA                MOV     R2,A
C51 COMPILER V9.01   CJSON                                                                 06/17/2019 10:07:01 PAGE 23  

0032 A3                INC     DPTR
0033 E0                MOVX    A,@DPTR
0034 F9                MOV     R1,A
0035 D082              POP     DPL
0037 D083              POP     DPH
0039 D0E0              POP     ACC
003B 6B                XRL     A,R3
003C 7008              JNZ     ?C0497
003E E9                MOV     A,R1
003F 6582              XRL     A,DPL
0041 7003              JNZ     ?C0497
0043 EA                MOV     A,R2
0044 6583              XRL     A,DPH
0046         ?C0497:
0046 7003              JNZ     ?C0003
0048 FE                MOV     R6,A
0049 FF                MOV     R7,A
004A 22                RET     
004B         ?C0003:
004B 7E00              MOV     R6,#00H
004D 7F01              MOV     R7,#01H
004F         ?C0004:
004F 22                RET     
0050         ?C0002:
0050 900000      R     MOV     DPTR,#s2
0053 E0                MOVX    A,@DPTR
0054 FB                MOV     R3,A
0055 A3                INC     DPTR
0056 E0                MOVX    A,@DPTR
0057 FA                MOV     R2,A
0058 A3                INC     DPTR
0059 E0                MOVX    A,@DPTR
005A F9                MOV     R1,A
005B EA                MOV     A,R2
005C 49                ORL     A,R1
005D 4B                ORL     A,R3
005E 7004              JNZ     ?C0007
0060 FE                MOV     R6,A
0061 7F01              MOV     R7,#01H
0063 22                RET     
                                           ; SOURCE LINE # 42
0064         ?C0007:
0064 900000      R     MOV     DPTR,#s2
0067 E0                MOVX    A,@DPTR
0068 FB                MOV     R3,A
0069 A3                INC     DPTR
006A E0                MOVX    A,@DPTR
006B FA                MOV     R2,A
006C A3                INC     DPTR
006D E0                MOVX    A,@DPTR
006E F9                MOV     R1,A
006F 120000      E     LCALL   ?C?CLDPTR
0072 FF                MOV     R7,A
0073 120000      E     LCALL   _tolower
0076 C007              PUSH    AR7
0078 900000      R     MOV     DPTR,#s1
007B E0                MOVX    A,@DPTR
007C FB                MOV     R3,A
007D A3                INC     DPTR
007E E0                MOVX    A,@DPTR
007F FA                MOV     R2,A
0080 A3                INC     DPTR
C51 COMPILER V9.01   CJSON                                                                 06/17/2019 10:07:01 PAGE 24  

0081 E0                MOVX    A,@DPTR
0082 F9                MOV     R1,A
0083 120000      E     LCALL   ?C?CLDPTR
0086 FF                MOV     R7,A
0087 120000      E     LCALL   _tolower
008A AE07              MOV     R6,AR7
008C D007              POP     AR7
008E EE                MOV     A,R6
008F B50729            CJNE    A,AR7,?C0008
0092 900000      R     MOV     DPTR,#s1
0095 E0                MOVX    A,@DPTR
0096 FB                MOV     R3,A
0097 A3                INC     DPTR
0098 E0                MOVX    A,@DPTR
0099 FA                MOV     R2,A
009A A3                INC     DPTR
009B E0                MOVX    A,@DPTR
009C F9                MOV     R1,A
009D 120000      E     LCALL   ?C?CLDPTR
00A0 7003              JNZ     ?C0009
00A2 FE                MOV     R6,A
00A3 FF                MOV     R7,A
00A4 22                RET     
00A5         ?C0009:
00A5 900000      R     MOV     DPTR,#s1+01H
00A8 E4                CLR     A
00A9 75F001            MOV     B,#01H
00AC 120000      E     LCALL   ?C?IILDX
00AF 900000      R     MOV     DPTR,#s2+01H
00B2 E4                CLR     A
00B3 75F001            MOV     B,#01H
00B6 120000      E     LCALL   ?C?IILDX
00B9 80A9              SJMP    ?C0007
00BB         ?C0008:
                                           ; SOURCE LINE # 43
00BB 900000      R     MOV     DPTR,#s2
00BE E0                MOVX    A,@DPTR
00BF FB                MOV     R3,A
00C0 A3                INC     DPTR
00C1 E0                MOVX    A,@DPTR
00C2 FA                MOV     R2,A
00C3 A3                INC     DPTR
00C4 E0                MOVX    A,@DPTR
00C5 F9                MOV     R1,A
00C6 120000      E     LCALL   ?C?CLDPTR
00C9 FF                MOV     R7,A
00CA 120000      E     LCALL   _tolower
00CD 7E00              MOV     R6,#00H
00CF C006              PUSH    AR6
00D1 C007              PUSH    AR7
00D3 900000      R     MOV     DPTR,#s1
00D6 E0                MOVX    A,@DPTR
00D7 FB                MOV     R3,A
00D8 A3                INC     DPTR
00D9 E0                MOVX    A,@DPTR
00DA FA                MOV     R2,A
00DB A3                INC     DPTR
00DC E0                MOVX    A,@DPTR
00DD F9                MOV     R1,A
00DE 120000      E     LCALL   ?C?CLDPTR
00E1 FF                MOV     R7,A
00E2 120000      E     LCALL   _tolower
C51 COMPILER V9.01   CJSON                                                                 06/17/2019 10:07:01 PAGE 25  

00E5 EF                MOV     A,R7
00E6 D007              POP     AR7
00E8 D006              POP     AR6
00EA C3                CLR     C
00EB 9F                SUBB    A,R7
00EC FF                MOV     R7,A
00ED E4                CLR     A
00EE 9E                SUBB    A,R6
00EF FE                MOV     R6,A
                                           ; SOURCE LINE # 44
00F0         ?C0005:
00F0 22                RET     
             ; FUNCTION _cJSON_strcasecmp (END)

             ; FUNCTION L?0699 (BEGIN)
0000         L?0700:
0000 E0                MOVX    A,@DPTR
0001 FB                MOV     R3,A
0002 A3                INC     DPTR
0003 E0                MOVX    A,@DPTR
0004 FA                MOV     R2,A
0005 A3                INC     DPTR
0006 E0                MOVX    A,@DPTR
0007 F9                MOV     R1,A
             ; FUNCTION _cJSON_strdup (BEGIN)
                                           ; SOURCE LINE # 49
0008 900000      R     MOV     DPTR,#str
000B EB                MOV     A,R3
000C F0                MOVX    @DPTR,A
000D A3                INC     DPTR
000E EA                MOV     A,R2
000F F0                MOVX    @DPTR,A
0010 A3                INC     DPTR
0011 E9                MOV     A,R1
0012 F0                MOVX    @DPTR,A
                                           ; SOURCE LINE # 50
                                           ; SOURCE LINE # 54
0013 120000      E     LCALL   _strlen
0016 EF                MOV     A,R7
0017 2401              ADD     A,#01H
0019 FF                MOV     R7,A
001A E4                CLR     A
001B 3E                ADDC    A,R6
001C FE                MOV     R6,A
001D 900000      R     MOV     DPTR,#len
0020 F0                MOVX    @DPTR,A
0021 A3                INC     DPTR
0022 EF                MOV     A,R7
0023 F0                MOVX    @DPTR,A
                                           ; SOURCE LINE # 55
0024 900000      R     MOV     DPTR,#_cJSON_malloc
0027 A3                INC     DPTR
0028 E0                MOVX    A,@DPTR
0029 FA                MOV     R2,A
002A A3                INC     DPTR
002B E0                MOVX    A,@DPTR
002C F582              MOV     DPL,A
002E 8A83              MOV     DPH,R2
0030 120000      E     LCALL   ?C?ICALL2
0033 900000      R     MOV     DPTR,#copy
0036 EB                MOV     A,R3
0037 F0                MOVX    @DPTR,A
C51 COMPILER V9.01   CJSON                                                                 06/17/2019 10:07:01 PAGE 26  

0038 A3                INC     DPTR
0039 EA                MOV     A,R2
003A F0                MOVX    @DPTR,A
003B A3                INC     DPTR
003C E9                MOV     A,R1
003D F0                MOVX    @DPTR,A
003E 4A                ORL     A,R2
003F 4B                ORL     A,R3
0040 7004              JNZ     ?C0011
0042 FB                MOV     R3,A
0043 FA                MOV     R2,A
0044 F9                MOV     R1,A
0045 22                RET     
0046         ?C0011:
                                           ; SOURCE LINE # 56
0046 900000      R     MOV     DPTR,#len
0049 E0                MOVX    A,@DPTR
004A FE                MOV     R6,A
004B A3                INC     DPTR
004C E0                MOVX    A,@DPTR
004D FF                MOV     R7,A
004E A3                INC     DPTR
004F E0                MOVX    A,@DPTR
0050 FB                MOV     R3,A
0051 A3                INC     DPTR
0052 E0                MOVX    A,@DPTR
0053 FA                MOV     R2,A
0054 A3                INC     DPTR
0055 E0                MOVX    A,@DPTR
0056 F8                MOV     R0,A
0057 AC02              MOV     R4,AR2
0059 AD03              MOV     R5,AR3
005B 900000      R     MOV     DPTR,#str
005E E0                MOVX    A,@DPTR
005F FB                MOV     R3,A
0060 A3                INC     DPTR
0061 E0                MOVX    A,@DPTR
0062 FA                MOV     R2,A
0063 A3                INC     DPTR
0064 E0                MOVX    A,@DPTR
0065 F9                MOV     R1,A
0066 120000      E     LCALL   ?C?COPY
                                           ; SOURCE LINE # 57
0069 900000      R     MOV     DPTR,#copy
006C E0                MOVX    A,@DPTR
006D FB                MOV     R3,A
006E A3                INC     DPTR
006F E0                MOVX    A,@DPTR
0070 FA                MOV     R2,A
0071 A3                INC     DPTR
0072 E0                MOVX    A,@DPTR
0073 F9                MOV     R1,A
                                           ; SOURCE LINE # 58
0074         ?C0012:
0074 22                RET     
             ; FUNCTION _cJSON_strdup (END)

             ; FUNCTION _cJSON_InitHooks (BEGIN)
                                           ; SOURCE LINE # 60
0000 900000      R     MOV     DPTR,#hooks
0003 EB                MOV     A,R3
0004 F0                MOVX    @DPTR,A
C51 COMPILER V9.01   CJSON                                                                 06/17/2019 10:07:01 PAGE 27  

0005 A3                INC     DPTR
0006 EA                MOV     A,R2
0007 F0                MOVX    @DPTR,A
0008 A3                INC     DPTR
0009 E9                MOV     A,R1
000A F0                MOVX    @DPTR,A
                                           ; SOURCE LINE # 61
                                           ; SOURCE LINE # 62
000B 900000      R     MOV     DPTR,#hooks
000E E0                MOVX    A,@DPTR
000F FB                MOV     R3,A
0010 A3                INC     DPTR
0011 E0                MOVX    A,@DPTR
0012 FA                MOV     R2,A
0013 A3                INC     DPTR
0014 E0                MOVX    A,@DPTR
0015 F9                MOV     R1,A
0016 EA                MOV     A,R2
0017 49                ORL     A,R1
0018 4B                ORL     A,R3
0019 701D              JNZ     ?C0013
                                           ; SOURCE LINE # 63
001B 900000      R     MOV     DPTR,#_cJSON_malloc
001E 74FF              MOV     A,#0FFH
0020 F0                MOVX    @DPTR,A
0021 A3                INC     DPTR
0022 7400        E     MOV     A,#HIGH _malloc
0024 F0                MOVX    @DPTR,A
0025 A3                INC     DPTR
0026 7400        E     MOV     A,#LOW _malloc
0028 F0                MOVX    @DPTR,A
                                           ; SOURCE LINE # 64
0029 900000      R     MOV     DPTR,#_cJSON_free
002C 74FF              MOV     A,#0FFH
002E F0                MOVX    @DPTR,A
002F A3                INC     DPTR
0030 7400        E     MOV     A,#HIGH _free
0032 F0                MOVX    @DPTR,A
0033 A3                INC     DPTR
0034 7400        E     MOV     A,#LOW _free
0036 F0                MOVX    @DPTR,A
0037 22                RET     
                                           ; SOURCE LINE # 66
0038         ?C0013:
                                           ; SOURCE LINE # 68
0038 900000      R     MOV     DPTR,#hooks
003B E0                MOVX    A,@DPTR
003C FB                MOV     R3,A
003D A3                INC     DPTR
003E E0                MOVX    A,@DPTR
003F FA                MOV     R2,A
0040 A3                INC     DPTR
0041 E0                MOVX    A,@DPTR
0042 F9                MOV     R1,A
0043 120000      E     LCALL   ?C?PLDPTR
0046 EA                MOV     A,R2
0047 49                ORL     A,R1
0048 4B                ORL     A,R3
0049 6010              JZ      ?C0015
004B 900000      R     MOV     DPTR,#hooks
004E E0                MOVX    A,@DPTR
004F FB                MOV     R3,A
C51 COMPILER V9.01   CJSON                                                                 06/17/2019 10:07:01 PAGE 28  

0050 A3                INC     DPTR
0051 E0                MOVX    A,@DPTR
0052 FA                MOV     R2,A
0053 A3                INC     DPTR
0054 E0                MOVX    A,@DPTR
0055 F9                MOV     R1,A
0056 120000      E     LCALL   ?C?PLDPTR
0059 8006              SJMP    ?C0016
005B         ?C0015:
005B 7BFF              MOV     R3,#0FFH
005D 7A00        E     MOV     R2,#HIGH _malloc
005F 7900        E     MOV     R1,#LOW _malloc
0061         ?C0016:
0061 900000      R     MOV     DPTR,#_cJSON_malloc
0064 EB                MOV     A,R3
0065 F0                MOVX    @DPTR,A
0066 A3                INC     DPTR
0067 EA                MOV     A,R2
0068 F0                MOVX    @DPTR,A
0069 A3                INC     DPTR
006A E9                MOV     A,R1
006B F0                MOVX    @DPTR,A
                                           ; SOURCE LINE # 69
006C 900000      R     MOV     DPTR,#hooks
006F E0                MOVX    A,@DPTR
0070 FB                MOV     R3,A
0071 A3                INC     DPTR
0072 E0                MOVX    A,@DPTR
0073 FA                MOV     R2,A
0074 A3                INC     DPTR
0075 E0                MOVX    A,@DPTR
0076 F9                MOV     R1,A
0077 900003            MOV     DPTR,#03H
007A 120000      E     LCALL   ?C?PLDOPTR
007D EA                MOV     A,R2
007E 49                ORL     A,R1
007F 4B                ORL     A,R3
0080 6013              JZ      ?C0017
0082 900000      R     MOV     DPTR,#hooks
0085 E0                MOVX    A,@DPTR
0086 FB                MOV     R3,A
0087 A3                INC     DPTR
0088 E0                MOVX    A,@DPTR
0089 FA                MOV     R2,A
008A A3                INC     DPTR
008B E0                MOVX    A,@DPTR
008C F9                MOV     R1,A
008D 900003            MOV     DPTR,#03H
0090 120000      E     LCALL   ?C?PLDOPTR
0093 8006              SJMP    ?C0018
0095         ?C0017:
0095 7BFF              MOV     R3,#0FFH
0097 7A00        E     MOV     R2,#HIGH _free
0099 7900        E     MOV     R1,#LOW _free
009B         ?C0018:
009B 900000      R     MOV     DPTR,#_cJSON_free
009E EB                MOV     A,R3
009F F0                MOVX    @DPTR,A
00A0 A3                INC     DPTR
00A1 EA                MOV     A,R2
00A2 F0                MOVX    @DPTR,A
00A3 A3                INC     DPTR
C51 COMPILER V9.01   CJSON                                                                 06/17/2019 10:07:01 PAGE 29  

00A4 E9                MOV     A,R1
00A5 F0                MOVX    @DPTR,A
                                           ; SOURCE LINE # 70
00A6         ?C0014:
00A6 22                RET     
             ; FUNCTION _cJSON_InitHooks (END)

             ; FUNCTION L?0702 (BEGIN)
0000 EB                MOV     A,R3
0001 F0                MOVX    @DPTR,A
0002 A3                INC     DPTR
0003 EA                MOV     A,R2
0004 F0                MOVX    @DPTR,A
0005 A3                INC     DPTR
0006 E9                MOV     A,R1
0007 F0                MOVX    @DPTR,A
             ; FUNCTION cJSON_New_Item (BEGIN)
                                           ; SOURCE LINE # 73
                                           ; SOURCE LINE # 74
                                           ; SOURCE LINE # 75
0008 900000      R     MOV     DPTR,#_cJSON_malloc
000B A3                INC     DPTR
000C E0                MOVX    A,@DPTR
000D FA                MOV     R2,A
000E A3                INC     DPTR
000F E0                MOVX    A,@DPTR
0010 F582              MOV     DPL,A
0012 8A83              MOV     DPH,R2
0014 7F17              MOV     R7,#017H
0016 7E00              MOV     R6,#00H
0018 120000      E     LCALL   ?C?ICALL2
001B 900000      R     MOV     DPTR,#node
001E EB                MOV     A,R3
001F F0                MOVX    @DPTR,A
0020 A3                INC     DPTR
0021 EA                MOV     A,R2
0022 F0                MOVX    @DPTR,A
0023 A3                INC     DPTR
0024 E9                MOV     A,R1
0025 F0                MOVX    @DPTR,A
                                           ; SOURCE LINE # 76
0026 4A                ORL     A,R2
0027 4B                ORL     A,R3
0028 6014              JZ      ?C0019
002A 7E00              MOV     R6,#00H
002C 7F17              MOV     R7,#017H
002E 7D00              MOV     R5,#00H
0030 900000      R     MOV     DPTR,#node
0033 E0                MOVX    A,@DPTR
0034 FB                MOV     R3,A
0035 A3                INC     DPTR
0036 E0                MOVX    A,@DPTR
0037 FA                MOV     R2,A
0038 A3                INC     DPTR
0039 E0                MOVX    A,@DPTR
003A F9                MOV     R1,A
003B 120000      E     LCALL   ?C?MEMSET
003E         ?C0019:
                                           ; SOURCE LINE # 77
003E 900000      R     MOV     DPTR,#node
0041 E0                MOVX    A,@DPTR
0042 FB                MOV     R3,A
C51 COMPILER V9.01   CJSON                                                                 06/17/2019 10:07:01 PAGE 30  

0043 A3                INC     DPTR
0044 E0                MOVX    A,@DPTR
0045 FA                MOV     R2,A
0046 A3                INC     DPTR
0047 E0                MOVX    A,@DPTR
0048 F9                MOV     R1,A
                                           ; SOURCE LINE # 78
0049         ?C0020:
0049 22                RET     
             ; FUNCTION cJSON_New_Item (END)

             ; FUNCTION L?0694 (BEGIN)
0000         L?0695:
0000 E0                MOVX    A,@DPTR
0001 FB                MOV     R3,A
0002 A3                INC     DPTR
0003 E0                MOVX    A,@DPTR
0004 FA                MOV     R2,A
0005 A3                INC     DPTR
0006 E0                MOVX    A,@DPTR
0007 F9                MOV     R1,A
             ; FUNCTION _cJSON_Delete (BEGIN)
                                           ; SOURCE LINE # 81
0008 900000      R     MOV     DPTR,#c
000B EB                MOV     A,R3
                                           ; SOURCE LINE # 82
000C 020000      R     LJMP    ?C0582
000F         ?C0021:
                                           ; SOURCE LINE # 84
000F 900000      R     MOV     DPTR,#c
0012 E0                MOVX    A,@DPTR
0013 FB                MOV     R3,A
0014 A3                INC     DPTR
0015 E0                MOVX    A,@DPTR
0016 FA                MOV     R2,A
0017 A3                INC     DPTR
0018 E0                MOVX    A,@DPTR
0019 F9                MOV     R1,A
001A EA                MOV     A,R2
001B 49                ORL     A,R1
001C 4B                ORL     A,R3
001D 7003              JNZ     $ + 5H
001F 020000      R     LJMP    ?C0026
                                           ; SOURCE LINE # 85
                                           ; SOURCE LINE # 86
0022 900000      R     MOV     DPTR,#c
0025 A3                INC     DPTR
0026 A3                INC     DPTR
0027 E0                MOVX    A,@DPTR
0028 120000      E     LCALL   ?C?PLDPTR
002B 900000      R     MOV     DPTR,#next
002E EB                MOV     A,R3
002F F0                MOVX    @DPTR,A
0030 A3                INC     DPTR
0031 EA                MOV     A,R2
0032 F0                MOVX    @DPTR,A
0033 A3                INC     DPTR
0034 E9                MOV     A,R1
0035 F0                MOVX    @DPTR,A
                                           ; SOURCE LINE # 87
0036 900000      R     MOV     DPTR,#c
0039 E0                MOVX    A,@DPTR
C51 COMPILER V9.01   CJSON                                                                 06/17/2019 10:07:01 PAGE 31  

003A FB                MOV     R3,A
003B A3                INC     DPTR
003C E0                MOVX    A,@DPTR
003D FA                MOV     R2,A
003E A3                INC     DPTR
003F E0                MOVX    A,@DPTR
0040 F9                MOV     R1,A
0041 900009            MOV     DPTR,#09H
0044 120000      E     LCALL   ?C?ILDOPTR
0047 20E61F            JB      ACC.6,?C0023
004A 900006            MOV     DPTR,#06H
004D 120000      E     LCALL   ?C?PLDOPTR
0050 EA                MOV     A,R2
0051 49                ORL     A,R1
0052 4B                ORL     A,R3
0053 6014              JZ      ?C0023
0055 900000      R     MOV     DPTR,#c
0058 E0                MOVX    A,@DPTR
0059 FB                MOV     R3,A
005A A3                INC     DPTR
005B E0                MOVX    A,@DPTR
005C FA                MOV     R2,A
005D A3                INC     DPTR
005E E0                MOVX    A,@DPTR
005F F9                MOV     R1,A
0060 900006            MOV     DPTR,#06H
0063 120000      E     LCALL   ?C?PLDOPTR
0066 120000      R     LCALL   _cJSON_Delete
0069         ?C0023:
                                           ; SOURCE LINE # 88
0069 900000      R     MOV     DPTR,#c
006C E0                MOVX    A,@DPTR
006D FB                MOV     R3,A
006E A3                INC     DPTR
006F E0                MOVX    A,@DPTR
0070 FA                MOV     R2,A
0071 A3                INC     DPTR
0072 E0                MOVX    A,@DPTR
0073 F9                MOV     R1,A
0074 900009            MOV     DPTR,#09H
0077 120000      E     LCALL   ?C?ILDOPTR
007A 20E62F            JB      ACC.6,?C0024
007D 90000B            MOV     DPTR,#0BH
0080 120000      E     LCALL   ?C?PLDOPTR
0083 EA                MOV     A,R2
0084 49                ORL     A,R1
0085 4B                ORL     A,R3
0086 6024              JZ      ?C0024
0088 900000      R     MOV     DPTR,#c
008B E0                MOVX    A,@DPTR
008C FB                MOV     R3,A
008D A3                INC     DPTR
008E E0                MOVX    A,@DPTR
008F FA                MOV     R2,A
0090 A3                INC     DPTR
0091 E0                MOVX    A,@DPTR
0092 F9                MOV     R1,A
0093 90000B            MOV     DPTR,#0BH
0096 120000      E     LCALL   ?C?PLDOPTR
0099 C002              PUSH    AR2
009B 900000      R     MOV     DPTR,#_cJSON_free
009E A3                INC     DPTR
C51 COMPILER V9.01   CJSON                                                                 06/17/2019 10:07:01 PAGE 32  

009F E0                MOVX    A,@DPTR
00A0 FA                MOV     R2,A
00A1 A3                INC     DPTR
00A2 E0                MOVX    A,@DPTR
00A3 F582              MOV     DPL,A
00A5 8A83              MOV     DPH,R2
00A7 D002              POP     AR2
00A9 120000      E     LCALL   ?C?ICALL2
00AC         ?C0024:
                                           ; SOURCE LINE # 89
00AC 900000      R     MOV     DPTR,#c
00AF E0                MOVX    A,@DPTR
00B0 FB                MOV     R3,A
00B1 A3                INC     DPTR
00B2 E0                MOVX    A,@DPTR
00B3 FA                MOV     R2,A
00B4 A3                INC     DPTR
00B5 E0                MOVX    A,@DPTR
00B6 F9                MOV     R1,A
00B7 900009            MOV     DPTR,#09H
00BA 120000      E     LCALL   ?C?ILDOPTR
00BD 20E72F            JB      ACC.7,?C0025
00C0 900014            MOV     DPTR,#014H
00C3 120000      E     LCALL   ?C?PLDOPTR
00C6 EA                MOV     A,R2
00C7 49                ORL     A,R1
00C8 4B                ORL     A,R3
00C9 6024              JZ      ?C0025
00CB 900000      R     MOV     DPTR,#c
00CE E0                MOVX    A,@DPTR
00CF FB                MOV     R3,A
00D0 A3                INC     DPTR
00D1 E0                MOVX    A,@DPTR
00D2 FA                MOV     R2,A
00D3 A3                INC     DPTR
00D4 E0                MOVX    A,@DPTR
00D5 F9                MOV     R1,A
00D6 900014            MOV     DPTR,#014H
00D9 120000      E     LCALL   ?C?PLDOPTR
00DC C002              PUSH    AR2
00DE 900000      R     MOV     DPTR,#_cJSON_free
00E1 A3                INC     DPTR
00E2 E0                MOVX    A,@DPTR
00E3 FA                MOV     R2,A
00E4 A3                INC     DPTR
00E5 E0                MOVX    A,@DPTR
00E6 F582              MOV     DPL,A
00E8 8A83              MOV     DPH,R2
00EA D002              POP     AR2
00EC 120000      E     LCALL   ?C?ICALL2
00EF         ?C0025:
                                           ; SOURCE LINE # 90
00EF 900000      R     MOV     DPTR,#c
00F2 E0                MOVX    A,@DPTR
00F3 FB                MOV     R3,A
00F4 A3                INC     DPTR
00F5 E0                MOVX    A,@DPTR
00F6 FA                MOV     R2,A
00F7 A3                INC     DPTR
00F8 E0                MOVX    A,@DPTR
00F9 F9                MOV     R1,A
00FA C002              PUSH    AR2
C51 COMPILER V9.01   CJSON                                                                 06/17/2019 10:07:01 PAGE 33  

00FC 900000      R     MOV     DPTR,#_cJSON_free
00FF A3                INC     DPTR
0100 E0                MOVX    A,@DPTR
0101 FA                MOV     R2,A
0102 A3                INC     DPTR
0103 E0                MOVX    A,@DPTR
0104 F582              MOV     DPL,A
0106 8A83              MOV     DPH,R2
0108 D002              POP     AR2
010A 120000      E     LCALL   ?C?ICALL2
                                           ; SOURCE LINE # 91
010D 900000      R     MOV     DPTR,#next
0110 E0                MOVX    A,@DPTR
0111 F9                MOV     R1,A
0112 A3                INC     DPTR
0113 E0                MOVX    A,@DPTR
0114 FA                MOV     R2,A
0115 A3                INC     DPTR
0116 E0                MOVX    A,@DPTR
0117 900000      R     MOV     DPTR,#c
011A C9                XCH     A,R1
011B         ?C0582:
011B F0                MOVX    @DPTR,A
011C A3                INC     DPTR
011D EA                MOV     A,R2
011E F0                MOVX    @DPTR,A
011F A3                INC     DPTR
0120 E9                MOV     A,R1
0121 F0                MOVX    @DPTR,A
                                           ; SOURCE LINE # 92
0122 020000      R     LJMP    ?C0021
                                           ; SOURCE LINE # 93
0125         ?C0026:
0125 22                RET     
             ; FUNCTION _cJSON_Delete (END)

             ; FUNCTION _parse_number (BEGIN)
                                           ; SOURCE LINE # 96
0000 900000      R     MOV     DPTR,#item
0003 EB                MOV     A,R3
0004 F0                MOVX    @DPTR,A
0005 A3                INC     DPTR
0006 EA                MOV     A,R2
0007 F0                MOVX    @DPTR,A
0008 A3                INC     DPTR
0009 E9                MOV     A,R1
000A F0                MOVX    @DPTR,A
                                           ; SOURCE LINE # 97
                                           ; SOURCE LINE # 98
000B 900000      R     MOV     DPTR,#n
000E 120000      E     LCALL   ?C?LSTKXDATA
0011 00                DB      00H
0012 00                DB      00H
0013 00                DB      00H
0014 00                DB      00H
0015 900000      R     MOV     DPTR,#sign
0018 120000      E     LCALL   ?C?LSTKXDATA
001B 3F                DB      03FH
001C 80                DB      080H
001D 00                DB      00H
001E 00                DB      00H
001F 900000      R     MOV     DPTR,#scale
C51 COMPILER V9.01   CJSON                                                                 06/17/2019 10:07:01 PAGE 34  

0022 120000      E     LCALL   ?C?LSTKXDATA
0025 00                DB      00H
0026 00                DB      00H
0027 00                DB      00H
0028 00                DB      00H
0029 E4                CLR     A
002A 900000      R     MOV     DPTR,#subscale
002D F0                MOVX    @DPTR,A
002E A3                INC     DPTR
002F F0                MOVX    @DPTR,A
0030 A3                INC     DPTR
0031 F0                MOVX    @DPTR,A
0032 A3                INC     DPTR
0033 04                INC     A
0034 F0                MOVX    @DPTR,A
                                           ; SOURCE LINE # 100
0035 900000      R     MOV     DPTR,#num
0038 E0                MOVX    A,@DPTR
0039 FB                MOV     R3,A
003A A3                INC     DPTR
003B E0                MOVX    A,@DPTR
003C FA                MOV     R2,A
003D A3                INC     DPTR
003E E0                MOVX    A,@DPTR
003F F9                MOV     R1,A
0040 120000      E     LCALL   ?C?CLDPTR
0043 B42D14            CJNE    A,#02DH,?C0027
0046 900000      R     MOV     DPTR,#sign
0049 120000      E     LCALL   ?C?LSTKXDATA
004C BF                DB      0BFH
004D 80                DB      080H
004E 00                DB      00H
004F 00                DB      00H
0050 900000      R     MOV     DPTR,#num+01H
0053 E4                CLR     A
0054 75F001            MOV     B,#01H
0057 120000      E     LCALL   ?C?IILDX
005A         ?C0027:
                                           ; SOURCE LINE # 101
005A 900000      R     MOV     DPTR,#num
005D E0                MOVX    A,@DPTR
005E FB                MOV     R3,A
005F A3                INC     DPTR
0060 E0                MOVX    A,@DPTR
0061 FA                MOV     R2,A
0062 A3                INC     DPTR
0063 E0                MOVX    A,@DPTR
0064 F9                MOV     R1,A
0065 120000      E     LCALL   ?C?CLDPTR
0068 B4300A            CJNE    A,#030H,?C0028
006B 900000      R     MOV     DPTR,#num+01H
006E E4                CLR     A
006F 75F001            MOV     B,#01H
0072 120000      E     LCALL   ?C?IILDX
0075         ?C0028:
                                           ; SOURCE LINE # 102
0075 900000      R     MOV     DPTR,#num
0078 E0                MOVX    A,@DPTR
0079 FB                MOV     R3,A
007A A3                INC     DPTR
007B E0                MOVX    A,@DPTR
007C FA                MOV     R2,A
C51 COMPILER V9.01   CJSON                                                                 06/17/2019 10:07:01 PAGE 35  

007D A3                INC     DPTR
007E E0                MOVX    A,@DPTR
007F F9                MOV     R1,A
0080 120000      E     LCALL   ?C?CLDPTR
0083 FF                MOV     R7,A
0084 C3                CLR     C
0085 6480              XRL     A,#080H
0087 94B1              SUBB    A,#0B1H
0089 407B              JC      ?C0029
008B D3                SETB    C
008C EF                MOV     A,R7
008D 6480              XRL     A,#080H
008F 94B9              SUBB    A,#0B9H
0091 5073              JNC     ?C0029
0093         ?C0032:
0093 900000      R     MOV     DPTR,#num
0096 E0                MOVX    A,@DPTR
0097 FB                MOV     R3,A
0098 A3                INC     DPTR
0099 E4                CLR     A
009A 75F001            MOV     B,#01H
009D 120000      E     LCALL   ?C?ILDIX
00A0 A9F0              MOV     R1,B
00A2 FA                MOV     R2,A
00A3 120000      E     LCALL   ?C?CLDPTR
00A6 FF                MOV     R7,A
00A7 33                RLC     A
00A8 95E0              SUBB    A,ACC
00AA FE                MOV     R6,A
00AB EF                MOV     A,R7
00AC 24D0              ADD     A,#0D0H
00AE FD                MOV     R5,A
00AF EE                MOV     A,R6
00B0 34FF              ADDC    A,#0FFH
00B2 FC                MOV     R4,A
00B3 E4                CLR     A
00B4 120000      E     LCALL   ?C?FCASTI
00B7 C004              PUSH    AR4
00B9 C005              PUSH    AR5
00BB C006              PUSH    AR6
00BD C007              PUSH    AR7
00BF E4                CLR     A
00C0 FF                MOV     R7,A
00C1 FE                MOV     R6,A
00C2 7D20              MOV     R5,#020H
00C4 7C41              MOV     R4,#041H
00C6 900000      R     MOV     DPTR,#n
00C9 E0                MOVX    A,@DPTR
00CA F8                MOV     R0,A
00CB A3                INC     DPTR
00CC E0                MOVX    A,@DPTR
00CD F9                MOV     R1,A
00CE A3                INC     DPTR
00CF E0                MOVX    A,@DPTR
00D0 FA                MOV     R2,A
00D1 A3                INC     DPTR
00D2 E0                MOVX    A,@DPTR
00D3 FB                MOV     R3,A
00D4 120000      E     LCALL   ?C?FPMUL
00D7 D003              POP     AR3
00D9 D002              POP     AR2
00DB D001              POP     AR1
C51 COMPILER V9.01   CJSON                                                                 06/17/2019 10:07:01 PAGE 36  

00DD D000              POP     AR0
00DF 120000      E     LCALL   ?C?FPADD
00E2 900000      R     MOV     DPTR,#n
00E5 120000      E     LCALL   ?C?LSTXDATA
00E8 900000      R     MOV     DPTR,#num
00EB E0                MOVX    A,@DPTR
00EC FB                MOV     R3,A
00ED A3                INC     DPTR
00EE E0                MOVX    A,@DPTR
00EF FA                MOV     R2,A
00F0 A3                INC     DPTR
00F1 E0                MOVX    A,@DPTR
00F2 F9                MOV     R1,A
00F3 120000      E     LCALL   ?C?CLDPTR
00F6 FF                MOV     R7,A
00F7 C3                CLR     C
00F8 6480              XRL     A,#080H
00FA 94B0              SUBB    A,#0B0H
00FC 4008              JC      ?C0029
00FE D3                SETB    C
00FF EF                MOV     A,R7
0100 6480              XRL     A,#080H
0102 94B9              SUBB    A,#0B9H
0104 408D              JC      ?C0032
0106         ?C0029:
                                           ; SOURCE LINE # 103
0106 900000      R     MOV     DPTR,#num
0109 E0                MOVX    A,@DPTR
010A FB                MOV     R3,A
010B A3                INC     DPTR
010C E0                MOVX    A,@DPTR
010D FA                MOV     R2,A
010E A3                INC     DPTR
010F E0                MOVX    A,@DPTR
0110 F9                MOV     R1,A
0111 120000      E     LCALL   ?C?CLDPTR
0114 642E              XRL     A,#02EH
0116 6003              JZ      $ + 5H
0118 020000      R     LJMP    ?C0034
011B 900001            MOV     DPTR,#01H
011E 120000      E     LCALL   ?C?CLDOPTR
0121 FF                MOV     R7,A
0122 C3                CLR     C
0123 6480              XRL     A,#080H
0125 94B0              SUBB    A,#0B0H
0127 5003              JNC     $ + 5H
0129 020000      R     LJMP    ?C0034
012C D3                SETB    C
012D EF                MOV     A,R7
012E 6480              XRL     A,#080H
0130 94B9              SUBB    A,#0B9H
0132 4003              JC      $ + 5H
0134 020000      R     LJMP    ?C0034
0137 900000      R     MOV     DPTR,#num+01H
013A E4                CLR     A
013B 75F001            MOV     B,#01H
013E 120000      E     LCALL   ?C?IILDX
0141         ?C0037:
0141 900000      R     MOV     DPTR,#num
0144 E0                MOVX    A,@DPTR
0145 FB                MOV     R3,A
0146 A3                INC     DPTR
C51 COMPILER V9.01   CJSON                                                                 06/17/2019 10:07:01 PAGE 37  

0147 E4                CLR     A
0148 75F001            MOV     B,#01H
014B 120000      E     LCALL   ?C?ILDIX
014E A9F0              MOV     R1,B
0150 FA                MOV     R2,A
0151 120000      E     LCALL   ?C?CLDPTR
0154 FF                MOV     R7,A
0155 33                RLC     A
0156 95E0              SUBB    A,ACC
0158 FE                MOV     R6,A
0159 EF                MOV     A,R7
015A 24D0              ADD     A,#0D0H
015C FD                MOV     R5,A
015D EE                MOV     A,R6
015E 34FF              ADDC    A,#0FFH
0160 FC                MOV     R4,A
0161 E4                CLR     A
0162 120000      E     LCALL   ?C?FCASTI
0165 C004              PUSH    AR4
0167 C005              PUSH    AR5
0169 C006              PUSH    AR6
016B C007              PUSH    AR7
016D E4                CLR     A
016E FF                MOV     R7,A
016F FE                MOV     R6,A
0170 7D20              MOV     R5,#020H
0172 7C41              MOV     R4,#041H
0174 900000      R     MOV     DPTR,#n
0177 E0                MOVX    A,@DPTR
0178 F8                MOV     R0,A
0179 A3                INC     DPTR
017A E0                MOVX    A,@DPTR
017B F9                MOV     R1,A
017C A3                INC     DPTR
017D E0                MOVX    A,@DPTR
017E FA                MOV     R2,A
017F A3                INC     DPTR
0180 E0                MOVX    A,@DPTR
0181 FB                MOV     R3,A
0182 120000      E     LCALL   ?C?FPMUL
0185 D003              POP     AR3
0187 D002              POP     AR2
0189 D001              POP     AR1
018B D000              POP     AR0
018D 120000      E     LCALL   ?C?FPADD
0190 900000      R     MOV     DPTR,#n
0193 120000      E     LCALL   ?C?LSTXDATA
0196 900000      R     MOV     DPTR,#scale
0199 E0                MOVX    A,@DPTR
019A FC                MOV     R4,A
019B A3                INC     DPTR
019C E0                MOVX    A,@DPTR
019D FD                MOV     R5,A
019E A3                INC     DPTR
019F E0                MOVX    A,@DPTR
01A0 FE                MOV     R6,A
01A1 A3                INC     DPTR
01A2 E0                MOVX    A,@DPTR
01A3 FF                MOV     R7,A
01A4 E4                CLR     A
01A5 FB                MOV     R3,A
01A6 FA                MOV     R2,A
C51 COMPILER V9.01   CJSON                                                                 06/17/2019 10:07:01 PAGE 38  

01A7 7980              MOV     R1,#080H
01A9 78BF              MOV     R0,#0BFH
01AB 120000      E     LCALL   ?C?FPADD
01AE 900000      R     MOV     DPTR,#scale
01B1 120000      E     LCALL   ?C?LSTXDATA
01B4 900000      R     MOV     DPTR,#num
01B7 E0                MOVX    A,@DPTR
01B8 FB                MOV     R3,A
01B9 A3                INC     DPTR
01BA E0                MOVX    A,@DPTR
01BB FA                MOV     R2,A
01BC A3                INC     DPTR
01BD E0                MOVX    A,@DPTR
01BE F9                MOV     R1,A
01BF 120000      E     LCALL   ?C?CLDPTR
01C2 FF                MOV     R7,A
01C3 C3                CLR     C
01C4 6480              XRL     A,#080H
01C6 94B0              SUBB    A,#0B0H
01C8 400B              JC      ?C0034
01CA D3                SETB    C
01CB EF                MOV     A,R7
01CC 6480              XRL     A,#080H
01CE 94B9              SUBB    A,#0B9H
01D0 5003              JNC     $ + 5H
01D2 020000      R     LJMP    ?C0037
01D5         ?C0034:
                                           ; SOURCE LINE # 104
01D5 900000      R     MOV     DPTR,#num
01D8 E0                MOVX    A,@DPTR
01D9 FB                MOV     R3,A
01DA A3                INC     DPTR
01DB E0                MOVX    A,@DPTR
01DC FA                MOV     R2,A
01DD A3                INC     DPTR
01DE E0                MOVX    A,@DPTR
01DF F9                MOV     R1,A
01E0 120000      E     LCALL   ?C?CLDPTR
01E3 FF                MOV     R7,A
01E4 6465              XRL     A,#065H
01E6 6008              JZ      ?C0040
01E8 EF                MOV     A,R7
01E9 6445              XRL     A,#045H
01EB 6003              JZ      $ + 5H
01ED 020000      R     LJMP    ?C0039
01F0         ?C0040:
                                           ; SOURCE LINE # 105
01F0 900000      R     MOV     DPTR,#num+01H
01F3 E4                CLR     A
01F4 75F001            MOV     B,#01H
01F7 120000      E     LCALL   ?C?IILDX
01FA 900000      R     MOV     DPTR,#num
01FD E0                MOVX    A,@DPTR
01FE FB                MOV     R3,A
01FF A3                INC     DPTR
0200 E0                MOVX    A,@DPTR
0201 FA                MOV     R2,A
0202 A3                INC     DPTR
0203 E0                MOVX    A,@DPTR
0204 F9                MOV     R1,A
0205 120000      E     LCALL   ?C?CLDPTR
0208 FF                MOV     R7,A
C51 COMPILER V9.01   CJSON                                                                 06/17/2019 10:07:01 PAGE 39  

0209 B42B02            CJNE    A,#02BH,?C0041
020C 800C              SJMP    ?C0583
020E         ?C0041:
020E EF                MOV     A,R7
020F B42D12            CJNE    A,#02DH,?C0044
0212 74FF              MOV     A,#0FFH
0214 900000      R     MOV     DPTR,#signsubscale
0217 F0                MOVX    @DPTR,A
0218 A3                INC     DPTR
0219 F0                MOVX    @DPTR,A
021A         ?C0583:
021A 900000      R     MOV     DPTR,#num+01H
021D E4                CLR     A
021E 75F001            MOV     B,#01H
0221 120000      E     LCALL   ?C?IILDX
0224         ?C0044:
                                           ; SOURCE LINE # 106
0224 900000      R     MOV     DPTR,#num
0227 E0                MOVX    A,@DPTR
0228 FB                MOV     R3,A
0229 A3                INC     DPTR
022A E0                MOVX    A,@DPTR
022B FA                MOV     R2,A
022C A3                INC     DPTR
022D E0                MOVX    A,@DPTR
022E F9                MOV     R1,A
022F 120000      E     LCALL   ?C?CLDPTR
0232 FF                MOV     R7,A
0233 C3                CLR     C
0234 6480              XRL     A,#080H
0236 94B0              SUBB    A,#0B0H
0238 4043              JC      ?C0039
023A D3                SETB    C
023B EF                MOV     A,R7
023C 6480              XRL     A,#080H
023E 94B9              SUBB    A,#0B9H
0240 503B              JNC     ?C0039
0242 900000      R     MOV     DPTR,#num
0245 A3                INC     DPTR
0246 E4                CLR     A
0247 75F001            MOV     B,#01H
024A 120000      E     LCALL   ?C?ILDIX
024D A9F0              MOV     R1,B
024F FA                MOV     R2,A
0250 120000      E     LCALL   ?C?CLDPTR
0253 FF                MOV     R7,A
0254 33                RLC     A
0255 95E0              SUBB    A,ACC
0257 FE                MOV     R6,A
0258 EF                MOV     A,R7
0259 24D0              ADD     A,#0D0H
025B FB                MOV     R3,A
025C EE                MOV     A,R6
025D 34FF              ADDC    A,#0FFH
025F FA                MOV     R2,A
0260 900000      R     MOV     DPTR,#subscale
0263 E0                MOVX    A,@DPTR
0264 FE                MOV     R6,A
0265 A3                INC     DPTR
0266 E0                MOVX    A,@DPTR
0267 FF                MOV     R7,A
0268 7C00              MOV     R4,#00H
C51 COMPILER V9.01   CJSON                                                                 06/17/2019 10:07:01 PAGE 40  

026A 7D0A              MOV     R5,#0AH
026C 120000      E     LCALL   ?C?IMUL
026F EF                MOV     A,R7
0270 2B                ADD     A,R3
0271 FF                MOV     R7,A
0272 EE                MOV     A,R6
0273 3A                ADDC    A,R2
0274 900000      R     MOV     DPTR,#subscale
0277 F0                MOVX    @DPTR,A
0278 A3                INC     DPTR
0279 EF                MOV     A,R7
027A F0                MOVX    @DPTR,A
027B 80A7              SJMP    ?C0044
                                           ; SOURCE LINE # 107
027D         ?C0039:
                                           ; SOURCE LINE # 109
027D 900000      R     MOV     DPTR,#signsubscale
0280 E0                MOVX    A,@DPTR
0281 FC                MOV     R4,A
0282 A3                INC     DPTR
0283 E0                MOVX    A,@DPTR
0284 FD                MOV     R5,A
0285 900000      R     MOV     DPTR,#subscale
0288 E0                MOVX    A,@DPTR
0289 FE                MOV     R6,A
028A A3                INC     DPTR
028B E0                MOVX    A,@DPTR
028C FF                MOV     R7,A
028D 120000      E     LCALL   ?C?IMUL
0290 AC06              MOV     R4,AR6
0292 AD07              MOV     R5,AR7
0294 EC                MOV     A,R4
0295 120000      E     LCALL   ?C?FCASTI
0298 900000      R     MOV     DPTR,#scale
029B E0                MOVX    A,@DPTR
029C F8                MOV     R0,A
029D A3                INC     DPTR
029E E0                MOVX    A,@DPTR
029F F9                MOV     R1,A
02A0 A3                INC     DPTR
02A1 E0                MOVX    A,@DPTR
02A2 FA                MOV     R2,A
02A3 A3                INC     DPTR
02A4 E0                MOVX    A,@DPTR
02A5 FB                MOV     R3,A
02A6 120000      E     LCALL   ?C?FPADD
02A9 900000      E     MOV     DPTR,#?_pow?BYTE+04H
02AC 120000      E     LCALL   ?C?LSTXDATA
02AF 7F00              MOV     R7,#00H
02B1 7E00              MOV     R6,#00H
02B3 7D20              MOV     R5,#020H
02B5 7C41              MOV     R4,#041H
02B7 120000      E     LCALL   _pow
02BA C004              PUSH    AR4
02BC C005              PUSH    AR5
02BE C006              PUSH    AR6
02C0 C007              PUSH    AR7
02C2 900000      R     MOV     DPTR,#n
02C5 E0                MOVX    A,@DPTR
02C6 FC                MOV     R4,A
02C7 A3                INC     DPTR
02C8 E0                MOVX    A,@DPTR
C51 COMPILER V9.01   CJSON                                                                 06/17/2019 10:07:01 PAGE 41  

02C9 FD                MOV     R5,A
02CA A3                INC     DPTR
02CB E0                MOVX    A,@DPTR
02CC FE                MOV     R6,A
02CD A3                INC     DPTR
02CE E0                MOVX    A,@DPTR
02CF FF                MOV     R7,A
02D0 A3                INC     DPTR
02D1 E0                MOVX    A,@DPTR
02D2 F8                MOV     R0,A
02D3 A3                INC     DPTR
02D4 E0                MOVX    A,@DPTR
02D5 F9                MOV     R1,A
02D6 A3                INC     DPTR
02D7 E0                MOVX    A,@DPTR
02D8 FA                MOV     R2,A
02D9 A3                INC     DPTR
02DA E0                MOVX    A,@DPTR
02DB FB                MOV     R3,A
02DC 120000      E     LCALL   ?C?FPMUL
02DF D003              POP     AR3
02E1 D002              POP     AR2
02E3 D001              POP     AR1
02E5 D000              POP     AR0
02E7 120000      E     LCALL   ?C?FPMUL
02EA 900000      R     MOV     DPTR,#n
02ED 120000      E     LCALL   ?C?LSTXDATA
                                           ; SOURCE LINE # 111
02F0 900000      R     MOV     DPTR,#n
02F3 E0                MOVX    A,@DPTR
02F4 FC                MOV     R4,A
02F5 A3                INC     DPTR
02F6 E0                MOVX    A,@DPTR
02F7 FD                MOV     R5,A
02F8 A3                INC     DPTR
02F9 E0                MOVX    A,@DPTR
02FA FE                MOV     R6,A
02FB A3                INC     DPTR
02FC E0                MOVX    A,@DPTR
02FD FF                MOV     R7,A
02FE 900000      R     MOV     DPTR,#item
0301 E0                MOVX    A,@DPTR
0302 FB                MOV     R3,A
0303 A3                INC     DPTR
0304 E0                MOVX    A,@DPTR
0305 FA                MOV     R2,A
0306 A3                INC     DPTR
0307 E0                MOVX    A,@DPTR
0308 F9                MOV     R1,A
0309 900010            MOV     DPTR,#010H
030C 120000      E     LCALL   ?C?LSTOPTR
                                           ; SOURCE LINE # 112
030F 120000      E     LCALL   ?C?CASTF
0312 900000      R     MOV     DPTR,#item
0315 E0                MOVX    A,@DPTR
0316 FB                MOV     R3,A
0317 A3                INC     DPTR
0318 E0                MOVX    A,@DPTR
0319 FA                MOV     R2,A
031A A3                INC     DPTR
031B E0                MOVX    A,@DPTR
031C F9                MOV     R1,A
C51 COMPILER V9.01   CJSON                                                                 06/17/2019 10:07:01 PAGE 42  

031D 90000E            MOV     DPTR,#0EH
0320 EE                MOV     A,R6
0321 8FF0              MOV     B,R7
0323 120000      E     LCALL   ?C?ISTOPTR
                                           ; SOURCE LINE # 113
0326 900009            MOV     DPTR,#09H
0329 E4                CLR     A
032A 75F003            MOV     B,#03H
032D 120000      E     LCALL   ?C?ISTOPTR
                                           ; SOURCE LINE # 114
0330 900000      R     MOV     DPTR,#num
0333 E0                MOVX    A,@DPTR
0334 FB                MOV     R3,A
0335 A3                INC     DPTR
0336 E0                MOVX    A,@DPTR
0337 FA                MOV     R2,A
0338 A3                INC     DPTR
0339 E0                MOVX    A,@DPTR
033A F9                MOV     R1,A
                                           ; SOURCE LINE # 115
033B         ?C0046:
033B 22                RET     
             ; FUNCTION _parse_number (END)

             ; FUNCTION _pow2gt (BEGIN)
                                           ; SOURCE LINE # 117
;---- Variable 'x' assigned to Register 'R4/R5' ----
0000 AD07              MOV     R5,AR7
0002 AC06              MOV     R4,AR6
0004 ED                MOV     A,R5
0005 1D                DEC     R5
0006 7001              JNZ     ?C0498
0008 1C                DEC     R4
0009         ?C0498:
0009 EC                MOV     A,R4
000A A2E7              MOV     C,ACC.7
000C 13                RRC     A
000D FE                MOV     R6,A
000E ED                MOV     A,R5
000F 13                RRC     A
0010 FF                MOV     R7,A
0011 EC                MOV     A,R4
0012 4E                ORL     A,R6
0013 FC                MOV     R4,A
0014 ED                MOV     A,R5
0015 4F                ORL     A,R7
0016 FD                MOV     R5,A
0017 AE04              MOV     R6,AR4
0019 7802              MOV     R0,#02H
001B         ?C0499:
001B CE                XCH     A,R6
001C A2E7              MOV     C,ACC.7
001E 13                RRC     A
001F CE                XCH     A,R6
0020 13                RRC     A
0021 D8F8              DJNZ    R0,?C0499
0023 FF                MOV     R7,A
0024 EC                MOV     A,R4
0025 4E                ORL     A,R6
0026 FC                MOV     R4,A
0027 ED                MOV     A,R5
0028 4F                ORL     A,R7
C51 COMPILER V9.01   CJSON                                                                 06/17/2019 10:07:01 PAGE 43  

0029 FD                MOV     R5,A
002A AE04              MOV     R6,AR4
002C 7804              MOV     R0,#04H
002E         ?C0500:
002E CE                XCH     A,R6
002F A2E7              MOV     C,ACC.7
0031 13                RRC     A
0032 CE                XCH     A,R6
0033 13                RRC     A
0034 D8F8              DJNZ    R0,?C0500
0036 FF                MOV     R7,A
0037 EC                MOV     A,R4
0038 4E                ORL     A,R6
0039 FC                MOV     R4,A
003A ED                MOV     A,R5
003B 4F                ORL     A,R7
003C FD                MOV     R5,A
003D EC                MOV     A,R4
003E FF                MOV     R7,A
003F 33                RLC     A
0040 95E0              SUBB    A,ACC
0042 4C                ORL     A,R4
0043 FC                MOV     R4,A
0044 ED                MOV     A,R5
0045 4F                ORL     A,R7
0046 FD                MOV     R5,A
0047 AE04              MOV     R6,AR4
0049 7810              MOV     R0,#010H
004B         ?C0501:
004B CE                XCH     A,R6
004C A2E7              MOV     C,ACC.7
004E 13                RRC     A
004F CE                XCH     A,R6
0050 13                RRC     A
0051 D8F8              DJNZ    R0,?C0501
0053 FF                MOV     R7,A
0054 EC                MOV     A,R4
0055 4E                ORL     A,R6
0056 FC                MOV     R4,A
0057 ED                MOV     A,R5
0058 4F                ORL     A,R7
0059 2401              ADD     A,#01H
005B FF                MOV     R7,A
005C E4                CLR     A
005D 3C                ADDC    A,R4
005E FE                MOV     R6,A
005F         ?C0047:
005F 22                RET     
             ; FUNCTION _pow2gt (END)

             ; FUNCTION L?0688 (BEGIN)
0000 7D05              MOV     R5,#05H
0002         L?0689:
0002 900000      R     MOV     DPTR,#p
0005 E0                MOVX    A,@DPTR
0006 FB                MOV     R3,A
0007 A3                INC     DPTR
0008 E0                MOVX    A,@DPTR
0009 FA                MOV     R2,A
000A A3                INC     DPTR
000B E0                MOVX    A,@DPTR
000C F9                MOV     R1,A
C51 COMPILER V9.01   CJSON                                                                 06/17/2019 10:07:01 PAGE 44  

000D 7C00              MOV     R4,#00H
             ; FUNCTION _ensure (BEGIN)
                                           ; SOURCE LINE # 121
;---- Variable 'needed' assigned to Register 'R4/R5' ----
000F 900000      R     MOV     DPTR,#p
0012 EB                MOV     A,R3
0013 F0                MOVX    @DPTR,A
0014 A3                INC     DPTR
0015 EA                MOV     A,R2
0016 F0                MOVX    @DPTR,A
0017 A3                INC     DPTR
0018 E9                MOV     A,R1
0019 F0                MOVX    @DPTR,A
                                           ; SOURCE LINE # 122
                                           ; SOURCE LINE # 124
001A 4A                ORL     A,R2
001B 4B                ORL     A,R3
001C 6013              JZ      ?C0049
001E 900000      R     MOV     DPTR,#p
0021 E0                MOVX    A,@DPTR
0022 FB                MOV     R3,A
0023 A3                INC     DPTR
0024 E0                MOVX    A,@DPTR
0025 FA                MOV     R2,A
0026 A3                INC     DPTR
0027 E0                MOVX    A,@DPTR
0028 F9                MOV     R1,A
0029 120000      E     LCALL   ?C?PLDPTR
002C EA                MOV     A,R2
002D 49                ORL     A,R1
002E 4B                ORL     A,R3
002F 7003              JNZ     ?C0048
0031         ?C0049:
0031 020000      R     LJMP    ?C0584
0034         ?C0048:
                                           ; SOURCE LINE # 125
0034 900000      R     MOV     DPTR,#p
0037 E0                MOVX    A,@DPTR
0038 FB                MOV     R3,A
0039 A3                INC     DPTR
003A E0                MOVX    A,@DPTR
003B FA                MOV     R2,A
003C A3                INC     DPTR
003D E0                MOVX    A,@DPTR
003E F9                MOV     R1,A
003F 900005            MOV     DPTR,#05H
0042 120000      E     LCALL   ?C?ILDOPTR
0045 2D                ADD     A,R5
0046 FD                MOV     R5,A
0047 E5F0              MOV     A,B
0049 3C                ADDC    A,R4
004A FC                MOV     R4,A
                                           ; SOURCE LINE # 126
004B 900003            MOV     DPTR,#03H
004E 120000      E     LCALL   ?C?ILDOPTR
0051 FF                MOV     R7,A
0052 D3                SETB    C
0053 ED                MOV     A,R5
0054 9F                SUBB    A,R7
0055 E5F0              MOV     A,B
0057 6480              XRL     A,#080H
0059 F8                MOV     R0,A
C51 COMPILER V9.01   CJSON                                                                 06/17/2019 10:07:01 PAGE 45  

005A EC                MOV     A,R4
005B 6480              XRL     A,#080H
005D 98                SUBB    A,R0
005E 5013              JNC     ?C0051
0060 900005            MOV     DPTR,#05H
0063 120000      E     LCALL   ?C?ILDOPTR
0066 FF                MOV     R7,A
0067 AEF0              MOV     R6,B
0069 120000      E     LCALL   ?C?PLDPTR
006C E9                MOV     A,R1
006D 2F                ADD     A,R7
006E F9                MOV     R1,A
006F EA                MOV     A,R2
0070 3E                ADDC    A,R6
0071 FA                MOV     R2,A
0072 22                RET     
0073         ?C0051:
                                           ; SOURCE LINE # 128
0073 AE04              MOV     R6,AR4
0075 AF05              MOV     R7,AR5
0077 120000      R     LCALL   _pow2gt
007A 900000      R     MOV     DPTR,#newsize
007D EE                MOV     A,R6
007E F0                MOVX    @DPTR,A
007F A3                INC     DPTR
0080 EF                MOV     A,R7
0081 F0                MOVX    @DPTR,A
                                           ; SOURCE LINE # 129
0082 900000      R     MOV     DPTR,#_cJSON_malloc
0085 A3                INC     DPTR
0086 E0                MOVX    A,@DPTR
0087 FA                MOV     R2,A
0088 A3                INC     DPTR
0089 E0                MOVX    A,@DPTR
008A F582              MOV     DPL,A
008C 8A83              MOV     DPH,R2
008E 120000      E     LCALL   ?C?ICALL2
0091 900000      R     MOV     DPTR,#newbuffer
0094 EB                MOV     A,R3
0095 F0                MOVX    @DPTR,A
0096 A3                INC     DPTR
0097 EA                MOV     A,R2
0098 F0                MOVX    @DPTR,A
0099 A3                INC     DPTR
009A E9                MOV     A,R1
009B F0                MOVX    @DPTR,A
                                           ; SOURCE LINE # 130
009C 4A                ORL     A,R2
009D 4B                ORL     A,R3
009E 7056              JNZ     ?C0052
00A0 900000      R     MOV     DPTR,#p
00A3 E0                MOVX    A,@DPTR
00A4 FB                MOV     R3,A
00A5 A3                INC     DPTR
00A6 E0                MOVX    A,@DPTR
00A7 FA                MOV     R2,A
00A8 A3                INC     DPTR
00A9 E0                MOVX    A,@DPTR
00AA F9                MOV     R1,A
00AB 120000      E     LCALL   ?C?PLDPTR
00AE C002              PUSH    AR2
00B0 900000      R     MOV     DPTR,#_cJSON_free
C51 COMPILER V9.01   CJSON                                                                 06/17/2019 10:07:01 PAGE 46  

00B3 A3                INC     DPTR
00B4 E0                MOVX    A,@DPTR
00B5 FA                MOV     R2,A
00B6 A3                INC     DPTR
00B7 E0                MOVX    A,@DPTR
00B8 F582              MOV     DPL,A
00BA 8A83              MOV     DPH,R2
00BC D002              POP     AR2
00BE 120000      E     LCALL   ?C?ICALL2
00C1 900000      R     MOV     DPTR,#p
00C4 E0                MOVX    A,@DPTR
00C5 FB                MOV     R3,A
00C6 A3                INC     DPTR
00C7 E0                MOVX    A,@DPTR
00C8 FA                MOV     R2,A
00C9 A3                INC     DPTR
00CA E0                MOVX    A,@DPTR
00CB F9                MOV     R1,A
00CC 900003            MOV     DPTR,#03H
00CF E4                CLR     A
00D0 F5F0              MOV     B,A
00D2 120000      E     LCALL   ?C?ISTOPTR
00D5 7B00              MOV     R3,#00H
00D7 7A00              MOV     R2,#00H
00D9 7900              MOV     R1,#00H
00DB C003              PUSH    AR3
00DD C002              PUSH    AR2
00DF C001              PUSH    AR1
00E1 900000      R     MOV     DPTR,#p
00E4 E0                MOVX    A,@DPTR
00E5 FB                MOV     R3,A
00E6 A3                INC     DPTR
00E7 E0                MOVX    A,@DPTR
00E8 FA                MOV     R2,A
00E9 A3                INC     DPTR
00EA E0                MOVX    A,@DPTR
00EB F9                MOV     R1,A
00EC 120000      E     LCALL   ?C?PSTPTR
00EF         ?C0584:
00EF 7B00              MOV     R3,#00H
00F1 7A00              MOV     R2,#00H
00F3 7900              MOV     R1,#00H
00F5 22                RET     
00F6         ?C0052:
                                           ; SOURCE LINE # 131
00F6 900000      R     MOV     DPTR,#newbuffer
00F9 E0                MOVX    A,@DPTR
00FA FB                MOV     R3,A
00FB A3                INC     DPTR
00FC E0                MOVX    A,@DPTR
00FD FA                MOV     R2,A
00FE A3                INC     DPTR
00FF E0                MOVX    A,@DPTR
0100 F9                MOV     R1,A
0101 EA                MOV     A,R2
0102 49                ORL     A,R1
0103 4B                ORL     A,R3
0104 6031              JZ      ?C0053
0106 900000      R     MOV     DPTR,#p
0109 E0                MOVX    A,@DPTR
010A FB                MOV     R3,A
010B A3                INC     DPTR
C51 COMPILER V9.01   CJSON                                                                 06/17/2019 10:07:01 PAGE 47  

010C E0                MOVX    A,@DPTR
010D FA                MOV     R2,A
010E A3                INC     DPTR
010F E0                MOVX    A,@DPTR
0110 F9                MOV     R1,A
0111 900003            MOV     DPTR,#03H
0114 120000      E     LCALL   ?C?ILDOPTR
0117 FF                MOV     R7,A
0118 AEF0              MOV     R6,B
011A 120000      E     LCALL   ?C?PLDPTR
011D C003              PUSH    AR3
011F C002              PUSH    AR2
0121 900000      R     MOV     DPTR,#newbuffer
0124 E0                MOVX    A,@DPTR
0125 FB                MOV     R3,A
0126 A3                INC     DPTR
0127 E0                MOVX    A,@DPTR
0128 FA                MOV     R2,A
0129 A3                INC     DPTR
012A E0                MOVX    A,@DPTR
012B F8                MOV     R0,A
012C AC02              MOV     R4,AR2
012E AD03              MOV     R5,AR3
0130 D002              POP     AR2
0132 D003              POP     AR3
0134 120000      E     LCALL   ?C?COPY
0137         ?C0053:
                                           ; SOURCE LINE # 132
0137 900000      R     MOV     DPTR,#p
013A E0                MOVX    A,@DPTR
013B FB                MOV     R3,A
013C A3                INC     DPTR
013D E0                MOVX    A,@DPTR
013E FA                MOV     R2,A
013F A3                INC     DPTR
0140 E0                MOVX    A,@DPTR
0141 F9                MOV     R1,A
0142 120000      E     LCALL   ?C?PLDPTR
0145 C002              PUSH    AR2
0147 900000      R     MOV     DPTR,#_cJSON_free
014A A3                INC     DPTR
014B E0                MOVX    A,@DPTR
014C FA                MOV     R2,A
014D A3                INC     DPTR
014E E0                MOVX    A,@DPTR
014F F582              MOV     DPL,A
0151 8A83              MOV     DPH,R2
0153 D002              POP     AR2
0155 120000      E     LCALL   ?C?ICALL2
                                           ; SOURCE LINE # 133
0158 900000      R     MOV     DPTR,#newsize
015B E0                MOVX    A,@DPTR
015C FE                MOV     R6,A
015D A3                INC     DPTR
015E E0                MOVX    A,@DPTR
015F FF                MOV     R7,A
0160 900000      R     MOV     DPTR,#p
0163 E0                MOVX    A,@DPTR
0164 FB                MOV     R3,A
0165 A3                INC     DPTR
0166 E0                MOVX    A,@DPTR
0167 FA                MOV     R2,A
C51 COMPILER V9.01   CJSON                                                                 06/17/2019 10:07:01 PAGE 48  

0168 A3                INC     DPTR
0169 E0                MOVX    A,@DPTR
016A F9                MOV     R1,A
016B 900003            MOV     DPTR,#03H
016E EE                MOV     A,R6
016F 8FF0              MOV     B,R7
0171 120000      E     LCALL   ?C?ISTOPTR
                                           ; SOURCE LINE # 134
0174 900000      R     MOV     DPTR,#newbuffer
0177 E0                MOVX    A,@DPTR
0178 FB                MOV     R3,A
0179 A3                INC     DPTR
017A E0                MOVX    A,@DPTR
017B FA                MOV     R2,A
017C A3                INC     DPTR
017D E0                MOVX    A,@DPTR
017E F9                MOV     R1,A
017F C003              PUSH    AR3
0181 C002              PUSH    AR2
0183 C001              PUSH    AR1
0185 900000      R     MOV     DPTR,#p
0188 E0                MOVX    A,@DPTR
0189 FB                MOV     R3,A
018A A3                INC     DPTR
018B E0                MOVX    A,@DPTR
018C FA                MOV     R2,A
018D A3                INC     DPTR
018E E0                MOVX    A,@DPTR
018F F9                MOV     R1,A
0190 120000      E     LCALL   ?C?PSTPTR
                                           ; SOURCE LINE # 135
0193 900000      R     MOV     DPTR,#p
0196 E0                MOVX    A,@DPTR
0197 FB                MOV     R3,A
0198 A3                INC     DPTR
0199 E0                MOVX    A,@DPTR
019A FA                MOV     R2,A
019B A3                INC     DPTR
019C E0                MOVX    A,@DPTR
019D F9                MOV     R1,A
019E 900005            MOV     DPTR,#05H
01A1 120000      E     LCALL   ?C?ILDOPTR
01A4 FF                MOV     R7,A
01A5 900000      R     MOV     DPTR,#newbuffer
01A8 E0                MOVX    A,@DPTR
01A9 FB                MOV     R3,A
01AA A3                INC     DPTR
01AB E0                MOVX    A,@DPTR
01AC FA                MOV     R2,A
01AD A3                INC     DPTR
01AE E0                MOVX    A,@DPTR
01AF 2F                ADD     A,R7
01B0 F9                MOV     R1,A
01B1 EA                MOV     A,R2
01B2 35F0              ADDC    A,B
01B4 FA                MOV     R2,A
                                           ; SOURCE LINE # 136
01B5         ?C0050:
01B5 22                RET     
             ; FUNCTION _ensure (END)

             ; FUNCTION L?0697 (BEGIN)
C51 COMPILER V9.01   CJSON                                                                 06/17/2019 10:07:01 PAGE 49  

0000 900000      R     MOV     DPTR,#p
0003         L?0698:
0003 E0                MOVX    A,@DPTR
0004 FB                MOV     R3,A
0005 A3                INC     DPTR
0006 E0                MOVX    A,@DPTR
0007 FA                MOV     R2,A
0008 A3                INC     DPTR
0009 E0                MOVX    A,@DPTR
000A F9                MOV     R1,A
             ; FUNCTION _update (BEGIN)
                                           ; SOURCE LINE # 138
000B 900000      R     MOV     DPTR,#p
000E EB                MOV     A,R3
000F F0                MOVX    @DPTR,A
0010 A3                INC     DPTR
0011 EA                MOV     A,R2
0012 F0                MOVX    @DPTR,A
0013 A3                INC     DPTR
0014 E9                MOV     A,R1
0015 F0                MOVX    @DPTR,A
                                           ; SOURCE LINE # 139
                                           ; SOURCE LINE # 141
0016 4A                ORL     A,R2
0017 4B                ORL     A,R3
0018 6013              JZ      ?C0055
001A 900000      R     MOV     DPTR,#p
001D E0                MOVX    A,@DPTR
001E FB                MOV     R3,A
001F A3                INC     DPTR
0020 E0                MOVX    A,@DPTR
0021 FA                MOV     R2,A
0022 A3                INC     DPTR
0023 E0                MOVX    A,@DPTR
0024 F9                MOV     R1,A
0025 120000      E     LCALL   ?C?PLDPTR
0028 EA                MOV     A,R2
0029 49                ORL     A,R1
002A 4B                ORL     A,R3
002B 7004              JNZ     ?C0054
002D         ?C0055:
002D E4                CLR     A
002E FE                MOV     R6,A
002F FF                MOV     R7,A
0030 22                RET     
0031         ?C0054:
                                           ; SOURCE LINE # 142
0031 900000      R     MOV     DPTR,#p
0034 E0                MOVX    A,@DPTR
0035 FB                MOV     R3,A
0036 A3                INC     DPTR
0037 E0                MOVX    A,@DPTR
0038 FA                MOV     R2,A
0039 A3                INC     DPTR
003A E0                MOVX    A,@DPTR
003B F9                MOV     R1,A
003C 900005            MOV     DPTR,#05H
003F 120000      E     LCALL   ?C?ILDOPTR
0042 FF                MOV     R7,A
0043 AEF0              MOV     R6,B
0045 120000      E     LCALL   ?C?PLDPTR
0048 E9                MOV     A,R1
C51 COMPILER V9.01   CJSON                                                                 06/17/2019 10:07:01 PAGE 50  

0049 2F                ADD     A,R7
004A F9                MOV     R1,A
004B EA                MOV     A,R2
004C 3E                ADDC    A,R6
004D FA                MOV     R2,A
;---- Variable 'str' assigned to Register 'R1/R2/R3' ----
                                           ; SOURCE LINE # 143
004E 120000      E     LCALL   _strlen
0051 900000      R     MOV     DPTR,#p
0054 E0                MOVX    A,@DPTR
0055 FB                MOV     R3,A
0056 A3                INC     DPTR
0057 E0                MOVX    A,@DPTR
0058 FA                MOV     R2,A
0059 A3                INC     DPTR
005A E0                MOVX    A,@DPTR
005B F9                MOV     R1,A
005C 900005            MOV     DPTR,#05H
005F 120000      E     LCALL   ?C?ILDOPTR
0062 2F                ADD     A,R7
0063 FF                MOV     R7,A
0064 EE                MOV     A,R6
0065 35F0              ADDC    A,B
0067 FE                MOV     R6,A
                                           ; SOURCE LINE # 144
0068         ?C0056:
0068 22                RET     
             ; FUNCTION _update (END)

             ; FUNCTION _print_number (BEGIN)
                                           ; SOURCE LINE # 147
0000 900000      R     MOV     DPTR,#item
0003 EB                MOV     A,R3
0004 F0                MOVX    @DPTR,A
0005 A3                INC     DPTR
0006 EA                MOV     A,R2
0007 F0                MOVX    @DPTR,A
0008 A3                INC     DPTR
0009 E9                MOV     A,R1
000A F0                MOVX    @DPTR,A
                                           ; SOURCE LINE # 148
                                           ; SOURCE LINE # 149
000B 900000      R     MOV     DPTR,#str
000E E4                CLR     A
000F F0                MOVX    @DPTR,A
0010 A3                INC     DPTR
0011 F0                MOVX    @DPTR,A
0012 A3                INC     DPTR
0013 F0                MOVX    @DPTR,A
                                           ; SOURCE LINE # 150
0014 900000      R     MOV     DPTR,#item
0017 E0                MOVX    A,@DPTR
0018 FB                MOV     R3,A
0019 A3                INC     DPTR
001A E0                MOVX    A,@DPTR
001B FA                MOV     R2,A
001C A3                INC     DPTR
001D E0                MOVX    A,@DPTR
001E F9                MOV     R1,A
001F 900010            MOV     DPTR,#010H
0022 120000      E     LCALL   ?C?LLDOPTR
0025 900000      R     MOV     DPTR,#d
C51 COMPILER V9.01   CJSON                                                                 06/17/2019 10:07:01 PAGE 51  

0028 120000      E     LCALL   ?C?LSTXDATA
                                           ; SOURCE LINE # 151
002B E4                CLR     A
002C FF                MOV     R7,A
002D FE                MOV     R6,A
002E FD                MOV     R5,A
002F FC                MOV     R4,A
0030 900000      R     MOV     DPTR,#d
0033 E0                MOVX    A,@DPTR
0034 F8                MOV     R0,A
0035 A3                INC     DPTR
0036 E0                MOVX    A,@DPTR
0037 F9                MOV     R1,A
0038 A3                INC     DPTR
0039 E0                MOVX    A,@DPTR
003A FA                MOV     R2,A
003B A3                INC     DPTR
003C E0                MOVX    A,@DPTR
003D FB                MOV     R3,A
003E 120000      E     LCALL   ?C?FPCMP3
0041 7061              JNZ     ?C0057
                                           ; SOURCE LINE # 152
                                           ; SOURCE LINE # 153
0043 900000      R     MOV     DPTR,#p
0046 E0                MOVX    A,@DPTR
0047 FB                MOV     R3,A
0048 A3                INC     DPTR
0049 E0                MOVX    A,@DPTR
004A FA                MOV     R2,A
004B A3                INC     DPTR
004C E0                MOVX    A,@DPTR
004D F9                MOV     R1,A
004E EA                MOV     A,R2
004F 49                ORL     A,R1
0050 4B                ORL     A,R3
0051 6009              JZ      ?C0058
0053 7D02              MOV     R5,#02H
0055 7C00              MOV     R4,#00H
0057 120000      R     LCALL   _ensure
005A 8013              SJMP    ?C0585
005C         ?C0058:
                                           ; SOURCE LINE # 154
005C 900000      R     MOV     DPTR,#_cJSON_malloc
005F A3                INC     DPTR
0060 E0                MOVX    A,@DPTR
0061 FA                MOV     R2,A
0062 A3                INC     DPTR
0063 E0                MOVX    A,@DPTR
0064 F582              MOV     DPL,A
0066 8A83              MOV     DPH,R2
0068 7F02              MOV     R7,#02H
006A 7E00              MOV     R6,#00H
006C 120000      E     LCALL   ?C?ICALL2
006F         ?C0585:
006F 900000      R     MOV     DPTR,#str
0072 EB                MOV     A,R3
0073 F0                MOVX    @DPTR,A
0074 A3                INC     DPTR
0075 EA                MOV     A,R2
0076 F0                MOVX    @DPTR,A
0077 A3                INC     DPTR
0078 E9                MOV     A,R1
C51 COMPILER V9.01   CJSON                                                                 06/17/2019 10:07:01 PAGE 52  

0079 F0                MOVX    @DPTR,A
007A         ?C0059:
                                           ; SOURCE LINE # 155
007A 900000      R     MOV     DPTR,#str
007D E0                MOVX    A,@DPTR
007E FB                MOV     R3,A
007F A3                INC     DPTR
0080 E0                MOVX    A,@DPTR
0081 FA                MOV     R2,A
0082 A3                INC     DPTR
0083 E0                MOVX    A,@DPTR
0084 F9                MOV     R1,A
0085 EA                MOV     A,R2
0086 49                ORL     A,R1
0087 4B                ORL     A,R3
0088 7003              JNZ     $ + 5H
008A 020000      R     LJMP    ?C0061
008D 900000      R     MOV     DPTR,#str
0090 A3                INC     DPTR
0091 A3                INC     DPTR
0092 E0                MOVX    A,@DPTR
0093 F8                MOV     R0,A
0094 AC02              MOV     R4,AR2
0096 AD03              MOV     R5,AR3
0098 7BFF              MOV     R3,#0FFH
009A 7A00        R     MOV     R2,#HIGH ?SC_0
009C 7900        R     MOV     R1,#LOW ?SC_0
009E 120000      E     LCALL   ?C?STRCPY
                                           ; SOURCE LINE # 156
00A1 020000      R     LJMP    ?C0061
00A4         ?C0057:
                                           ; SOURCE LINE # 157
00A4 900000      R     MOV     DPTR,#item
00A7 E0                MOVX    A,@DPTR
00A8 FB                MOV     R3,A
00A9 A3                INC     DPTR
00AA E0                MOVX    A,@DPTR
00AB FA                MOV     R2,A
00AC A3                INC     DPTR
00AD E0                MOVX    A,@DPTR
00AE F9                MOV     R1,A
00AF 90000E            MOV     DPTR,#0EH
00B2 120000      E     LCALL   ?C?ILDOPTR
00B5 FD                MOV     R5,A
00B6 ACF0              MOV     R4,B
00B8 EC                MOV     A,R4
00B9 120000      E     LCALL   ?C?FCASTI
00BC 900000      R     MOV     DPTR,#d
00BF E0                MOVX    A,@DPTR
00C0 F8                MOV     R0,A
00C1 A3                INC     DPTR
00C2 E0                MOVX    A,@DPTR
00C3 F9                MOV     R1,A
00C4 A3                INC     DPTR
00C5 E0                MOVX    A,@DPTR
00C6 FA                MOV     R2,A
00C7 A3                INC     DPTR
00C8 E0                MOVX    A,@DPTR
00C9 FB                MOV     R3,A
00CA 120000      E     LCALL   ?C?FPSUB
00CD 120000      E     LCALL   _fabs
00D0 7BF3              MOV     R3,#0F3H
C51 COMPILER V9.01   CJSON                                                                 06/17/2019 10:07:01 PAGE 53  

00D2 7AFF              MOV     R2,#0FFH
00D4 797F              MOV     R1,#07FH
00D6 7833              MOV     R0,#033H
00D8 120000      E     LCALL   ?C?FPCMP3
00DB 5003              JNC     $ + 5H
00DD 020000      R     LJMP    ?C0062
00E0 7F00              MOV     R7,#00H
00E2 7EFE              MOV     R6,#0FEH
00E4 7DFF              MOV     R5,#0FFH
00E6 7C46              MOV     R4,#046H
00E8 900000      R     MOV     DPTR,#d
00EB E0                MOVX    A,@DPTR
00EC F8                MOV     R0,A
00ED A3                INC     DPTR
00EE E0                MOVX    A,@DPTR
00EF F9                MOV     R1,A
00F0 A3                INC     DPTR
00F1 E0                MOVX    A,@DPTR
00F2 FA                MOV     R2,A
00F3 A3                INC     DPTR
00F4 E0                MOVX    A,@DPTR
00F5 FB                MOV     R3,A
00F6 120000      E     LCALL   ?C?FPCMP3
00F9 6005              JZ      $ + 7H
00FB 4003              JC      $ + 5H
00FD 020000      R     LJMP    ?C0062
0100 E4                CLR     A
0101 FF                MOV     R7,A
0102 FE                MOV     R6,A
0103 FD                MOV     R5,A
0104 7CC7              MOV     R4,#0C7H
0106 900000      R     MOV     DPTR,#d
0109 E0                MOVX    A,@DPTR
010A F8                MOV     R0,A
010B A3                INC     DPTR
010C E0                MOVX    A,@DPTR
010D F9                MOV     R1,A
010E A3                INC     DPTR
010F E0                MOVX    A,@DPTR
0110 FA                MOV     R2,A
0111 A3                INC     DPTR
0112 E0                MOVX    A,@DPTR
0113 FB                MOV     R3,A
0114 120000      E     LCALL   ?C?FPCMP3
0117 4076              JC      ?C0062
                                           ; SOURCE LINE # 158
                                           ; SOURCE LINE # 159
0119 900000      R     MOV     DPTR,#p
011C E0                MOVX    A,@DPTR
011D FB                MOV     R3,A
011E A3                INC     DPTR
011F E0                MOVX    A,@DPTR
0120 FA                MOV     R2,A
0121 A3                INC     DPTR
0122 E0                MOVX    A,@DPTR
0123 F9                MOV     R1,A
0124 EA                MOV     A,R2
0125 49                ORL     A,R1
0126 4B                ORL     A,R3
0127 6009              JZ      ?C0063
0129 7D15              MOV     R5,#015H
012B 7C00              MOV     R4,#00H
C51 COMPILER V9.01   CJSON                                                                 06/17/2019 10:07:01 PAGE 54  

012D 120000      R     LCALL   _ensure
0130 8013              SJMP    ?C0586
0132         ?C0063:
                                           ; SOURCE LINE # 160
0132 900000      R     MOV     DPTR,#_cJSON_malloc
0135 A3                INC     DPTR
0136 E0                MOVX    A,@DPTR
0137 FA                MOV     R2,A
0138 A3                INC     DPTR
0139 E0                MOVX    A,@DPTR
013A F582              MOV     DPL,A
013C 8A83              MOV     DPH,R2
013E 7F15              MOV     R7,#015H
0140 7E00              MOV     R6,#00H
0142 120000      E     LCALL   ?C?ICALL2
0145         ?C0586:
0145 900000      R     MOV     DPTR,#str
0148 EB                MOV     A,R3
0149 F0                MOVX    @DPTR,A
014A A3                INC     DPTR
014B EA                MOV     A,R2
014C F0                MOVX    @DPTR,A
014D A3                INC     DPTR
014E E9                MOV     A,R1
014F F0                MOVX    @DPTR,A
0150         ?C0064:
                                           ; SOURCE LINE # 161
0150 900000      R     MOV     DPTR,#str
0153 E0                MOVX    A,@DPTR
0154 FB                MOV     R3,A
0155 A3                INC     DPTR
0156 E0                MOVX    A,@DPTR
0157 FA                MOV     R2,A
0158 A3                INC     DPTR
0159 E0                MOVX    A,@DPTR
015A F9                MOV     R1,A
015B EA                MOV     A,R2
015C 49                ORL     A,R1
015D 4B                ORL     A,R3
015E 7003              JNZ     $ + 5H
0160 020000      R     LJMP    ?C0061
0163 900000      E     MOV     DPTR,#?_sprintf?BYTE+03H
0166 74FF              MOV     A,#0FFH
0168 F0                MOVX    @DPTR,A
0169 A3                INC     DPTR
016A 7400        R     MOV     A,#HIGH ?SC_2
016C F0                MOVX    @DPTR,A
016D A3                INC     DPTR
016E 7400        R     MOV     A,#LOW ?SC_2
0170 F0                MOVX    @DPTR,A
0171 900000      R     MOV     DPTR,#item
0174 E0                MOVX    A,@DPTR
0175 FB                MOV     R3,A
0176 A3                INC     DPTR
0177 E0                MOVX    A,@DPTR
0178 FA                MOV     R2,A
0179 A3                INC     DPTR
017A E0                MOVX    A,@DPTR
017B F9                MOV     R1,A
017C 90000E            MOV     DPTR,#0EH
017F 120000      E     LCALL   ?C?ILDOPTR
0182 FF                MOV     R7,A
C51 COMPILER V9.01   CJSON                                                                 06/17/2019 10:07:01 PAGE 55  

0183 900000      E     MOV     DPTR,#?_sprintf?BYTE+06H
0186 E5F0              MOV     A,B
0188 F0                MOVX    @DPTR,A
0189 A3                INC     DPTR
018A EF                MOV     A,R7
018B F0                MOVX    @DPTR,A
                                           ; SOURCE LINE # 162
018C 020000      R     LJMP    ?C0590
018F         ?C0062:
                                           ; SOURCE LINE # 164
                                           ; SOURCE LINE # 165
018F 900000      R     MOV     DPTR,#p
0192 E0                MOVX    A,@DPTR
0193 FB                MOV     R3,A
0194 A3                INC     DPTR
0195 E0                MOVX    A,@DPTR
0196 FA                MOV     R2,A
0197 A3                INC     DPTR
0198 E0                MOVX    A,@DPTR
0199 F9                MOV     R1,A
019A EA                MOV     A,R2
019B 49                ORL     A,R1
019C 4B                ORL     A,R3
019D 6009              JZ      ?C0067
019F 7D40              MOV     R5,#040H
01A1 7C00              MOV     R4,#00H
01A3 120000      R     LCALL   _ensure
01A6 8013              SJMP    ?C0587
01A8         ?C0067:
                                           ; SOURCE LINE # 166
01A8 900000      R     MOV     DPTR,#_cJSON_malloc
01AB A3                INC     DPTR
01AC E0                MOVX    A,@DPTR
01AD FA                MOV     R2,A
01AE A3                INC     DPTR
01AF E0                MOVX    A,@DPTR
01B0 F582              MOV     DPL,A
01B2 8A83              MOV     DPH,R2
01B4 7F40              MOV     R7,#040H
01B6 7E00              MOV     R6,#00H
01B8 120000      E     LCALL   ?C?ICALL2
01BB         ?C0587:
01BB 900000      R     MOV     DPTR,#str
01BE EB                MOV     A,R3
01BF F0                MOVX    @DPTR,A
01C0 A3                INC     DPTR
01C1 EA                MOV     A,R2
01C2 F0                MOVX    @DPTR,A
01C3 A3                INC     DPTR
01C4 E9                MOV     A,R1
01C5 F0                MOVX    @DPTR,A
01C6         ?C0068:
                                           ; SOURCE LINE # 167
01C6 900000      R     MOV     DPTR,#str
01C9 E0                MOVX    A,@DPTR
01CA FB                MOV     R3,A
01CB A3                INC     DPTR
01CC E0                MOVX    A,@DPTR
01CD FA                MOV     R2,A
01CE A3                INC     DPTR
01CF E0                MOVX    A,@DPTR
01D0 F9                MOV     R1,A
C51 COMPILER V9.01   CJSON                                                                 06/17/2019 10:07:01 PAGE 56  

01D1 EA                MOV     A,R2
01D2 49                ORL     A,R1
01D3 4B                ORL     A,R3
01D4 7003              JNZ     $ + 5H
01D6 020000      R     LJMP    ?C0061
                                           ; SOURCE LINE # 168
                                           ; SOURCE LINE # 169
01D9 A3                INC     DPTR
01DA E0                MOVX    A,@DPTR
01DB FC                MOV     R4,A
01DC A3                INC     DPTR
01DD E0                MOVX    A,@DPTR
01DE FD                MOV     R5,A
01DF A3                INC     DPTR
01E0 E0                MOVX    A,@DPTR
01E1 FE                MOV     R6,A
01E2 A3                INC     DPTR
01E3 E0                MOVX    A,@DPTR
01E4 FF                MOV     R7,A
01E5 120000      E     LCALL   _floor
01E8 900000      R     MOV     DPTR,#d
01EB E0                MOVX    A,@DPTR
01EC F8                MOV     R0,A
01ED A3                INC     DPTR
01EE E0                MOVX    A,@DPTR
01EF F9                MOV     R1,A
01F0 A3                INC     DPTR
01F1 E0                MOVX    A,@DPTR
01F2 FA                MOV     R2,A
01F3 A3                INC     DPTR
01F4 E0                MOVX    A,@DPTR
01F5 FB                MOV     R3,A
01F6 120000      E     LCALL   ?C?FPSUB
01F9 120000      E     LCALL   _fabs
01FC 7BF3              MOV     R3,#0F3H
01FE 7AFF              MOV     R2,#0FFH
0200 797F              MOV     R1,#07FH
0202 7833              MOV     R0,#033H
0204 120000      E     LCALL   ?C?FPCMP3
0207 4044              JC      ?C0070
0209 900000      R     MOV     DPTR,#d
020C E0                MOVX    A,@DPTR
020D FC                MOV     R4,A
020E A3                INC     DPTR
020F E0                MOVX    A,@DPTR
0210 FD                MOV     R5,A
0211 A3                INC     DPTR
0212 E0                MOVX    A,@DPTR
0213 FE                MOV     R6,A
0214 A3                INC     DPTR
0215 E0                MOVX    A,@DPTR
0216 FF                MOV     R7,A
0217 120000      E     LCALL   _fabs
021A E4                CLR     A
021B FB                MOV     R3,A
021C FA                MOV     R2,A
021D 7980              MOV     R1,#080H
021F 787F              MOV     R0,#07FH
0221 120000      E     LCALL   ?C?FPCMP3
0224 6027              JZ      ?C0070
0226 4025              JC      ?C0070
0228 900000      E     MOV     DPTR,#?_sprintf?BYTE+03H
C51 COMPILER V9.01   CJSON                                                                 06/17/2019 10:07:01 PAGE 57  

022B 74FF              MOV     A,#0FFH
022D F0                MOVX    @DPTR,A
022E A3                INC     DPTR
022F 7400        R     MOV     A,#HIGH ?SC_5
0231 F0                MOVX    @DPTR,A
0232 A3                INC     DPTR
0233 7400        R     MOV     A,#LOW ?SC_5
0235 F0                MOVX    @DPTR,A
0236 900000      R     MOV     DPTR,#d
0239 E0                MOVX    A,@DPTR
023A FC                MOV     R4,A
023B A3                INC     DPTR
023C E0                MOVX    A,@DPTR
023D FD                MOV     R5,A
023E A3                INC     DPTR
023F E0                MOVX    A,@DPTR
0240 FE                MOV     R6,A
0241 A3                INC     DPTR
0242 E0                MOVX    A,@DPTR
0243 FF                MOV     R7,A
0244 900000      E     MOV     DPTR,#?_sprintf?BYTE+06H
0247 120000      E     LCALL   ?C?LSTXDATA
024A         ?C0588:
024A 020000      R     LJMP    ?C0590
024D         ?C0070:
                                           ; SOURCE LINE # 170
024D 900000      R     MOV     DPTR,#d
0250 E0                MOVX    A,@DPTR
0251 FC                MOV     R4,A
0252 A3                INC     DPTR
0253 E0                MOVX    A,@DPTR
0254 FD                MOV     R5,A
0255 A3                INC     DPTR
0256 E0                MOVX    A,@DPTR
0257 FE                MOV     R6,A
0258 A3                INC     DPTR
0259 E0                MOVX    A,@DPTR
025A FF                MOV     R7,A
025B 120000      E     LCALL   _fabs
025E 7BBD              MOV     R3,#0BDH
0260 7A37              MOV     R2,#037H
0262 7986              MOV     R1,#086H
0264 7835              MOV     R0,#035H
0266 120000      E     LCALL   ?C?FPCMP3
0269 6002              JZ      $ + 4H
026B 501E              JNC     ?C0073
026D 900000      R     MOV     DPTR,#d
0270 E0                MOVX    A,@DPTR
0271 FC                MOV     R4,A
0272 A3                INC     DPTR
0273 E0                MOVX    A,@DPTR
0274 FD                MOV     R5,A
0275 A3                INC     DPTR
0276 E0                MOVX    A,@DPTR
0277 FE                MOV     R6,A
0278 A3                INC     DPTR
0279 E0                MOVX    A,@DPTR
027A FF                MOV     R7,A
027B 120000      E     LCALL   _fabs
027E 7B28              MOV     R3,#028H
0280 7A6B              MOV     R2,#06BH
0282 796E              MOV     R1,#06EH
C51 COMPILER V9.01   CJSON                                                                 06/17/2019 10:07:01 PAGE 58  

0284 784E              MOV     R0,#04EH
0286 120000      E     LCALL   ?C?FPCMP3
0289 5024              JNC     ?C0072
028B         ?C0073:
028B 900000      E     MOV     DPTR,#?_sprintf?BYTE+03H
028E 74FF              MOV     A,#0FFH
0290 F0                MOVX    @DPTR,A
0291 A3                INC     DPTR
0292 7400        R     MOV     A,#HIGH ?SC_10
0294 F0                MOVX    @DPTR,A
0295 A3                INC     DPTR
0296 7400        R     MOV     A,#LOW ?SC_10
0298 F0                MOVX    @DPTR,A
0299 900000      R     MOV     DPTR,#d
029C E0                MOVX    A,@DPTR
029D FC                MOV     R4,A
029E A3                INC     DPTR
029F E0                MOVX    A,@DPTR
02A0 FD                MOV     R5,A
02A1 A3                INC     DPTR
02A2 E0                MOVX    A,@DPTR
02A3 FE                MOV     R6,A
02A4 A3                INC     DPTR
02A5 E0                MOVX    A,@DPTR
02A6 FF                MOV     R7,A
02A7 900000      E     MOV     DPTR,#?_sprintf?BYTE+06H
02AA 120000      E     LCALL   ?C?LSTXDATA
02AD         ?C0589:
02AD 8022              SJMP    ?C0590
02AF         ?C0072:
                                           ; SOURCE LINE # 171
02AF 900000      E     MOV     DPTR,#?_sprintf?BYTE+03H
02B2 74FF              MOV     A,#0FFH
02B4 F0                MOVX    @DPTR,A
02B5 A3                INC     DPTR
02B6 7400        R     MOV     A,#HIGH ?SC_13
02B8 F0                MOVX    @DPTR,A
02B9 A3                INC     DPTR
02BA 7400        R     MOV     A,#LOW ?SC_13
02BC F0                MOVX    @DPTR,A
02BD 900000      R     MOV     DPTR,#d
02C0 E0                MOVX    A,@DPTR
02C1 FC                MOV     R4,A
02C2 A3                INC     DPTR
02C3 E0                MOVX    A,@DPTR
02C4 FD                MOV     R5,A
02C5 A3                INC     DPTR
02C6 E0                MOVX    A,@DPTR
02C7 FE                MOV     R6,A
02C8 A3                INC     DPTR
02C9 E0                MOVX    A,@DPTR
02CA FF                MOV     R7,A
02CB 900000      E     MOV     DPTR,#?_sprintf?BYTE+06H
02CE 120000      E     LCALL   ?C?LSTXDATA
02D1         ?C0590:
02D1 900000      R     MOV     DPTR,#str
02D4 E0                MOVX    A,@DPTR
02D5 FB                MOV     R3,A
02D6 A3                INC     DPTR
02D7 E0                MOVX    A,@DPTR
02D8 FA                MOV     R2,A
02D9 A3                INC     DPTR
C51 COMPILER V9.01   CJSON                                                                 06/17/2019 10:07:01 PAGE 59  

02DA E0                MOVX    A,@DPTR
02DB F9                MOV     R1,A
02DC 120000      E     LCALL   _sprintf
                                           ; SOURCE LINE # 172
                                           ; SOURCE LINE # 173
02DF         ?C0061:
                                           ; SOURCE LINE # 174
02DF 900000      R     MOV     DPTR,#str
02E2 E0                MOVX    A,@DPTR
02E3 FB                MOV     R3,A
02E4 A3                INC     DPTR
02E5 E0                MOVX    A,@DPTR
02E6 FA                MOV     R2,A
02E7 A3                INC     DPTR
02E8 E0                MOVX    A,@DPTR
02E9 F9                MOV     R1,A
                                           ; SOURCE LINE # 175
02EA         ?C0075:
02EA 22                RET     
             ; FUNCTION _print_number (END)

             ; FUNCTION _parse_hex4 (BEGIN)
                                           ; SOURCE LINE # 177
;---- Variable 'str' assigned to Register 'R1/R2/R3' ----
                                           ; SOURCE LINE # 178
                                           ; SOURCE LINE # 179
;---- Variable 'h' assigned to Register 'R6/R7' ----
0000 E4                CLR     A
0001 FF                MOV     R7,A
0002 FE                MOV     R6,A
                                           ; SOURCE LINE # 180
0003 120000      E     LCALL   ?C?CLDPTR
0006 FD                MOV     R5,A
0007 C3                CLR     C
0008 6480              XRL     A,#080H
000A 94B0              SUBB    A,#0B0H
000C 401D              JC      ?C0076
000E D3                SETB    C
000F ED                MOV     A,R5
0010 6480              XRL     A,#080H
0012 94B9              SUBB    A,#0B9H
0014 5015              JNC     ?C0076
0016 ED                MOV     A,R5
0017 33                RLC     A
0018 95E0              SUBB    A,ACC
001A FC                MOV     R4,A
001B ED                MOV     A,R5
001C 24D0              ADD     A,#0D0H
001E FD                MOV     R5,A
001F EC                MOV     A,R4
0020 34FF              ADDC    A,#0FFH
0022 FC                MOV     R4,A
0023 EF                MOV     A,R7
0024 2D                ADD     A,R5
0025 FF                MOV     R7,A
0026 EE                MOV     A,R6
0027 3C                ADDC    A,R4
0028 FE                MOV     R6,A
0029 8053              SJMP    ?C0077
002B         ?C0076:
002B 120000      E     LCALL   ?C?CLDPTR
002E FD                MOV     R5,A
C51 COMPILER V9.01   CJSON                                                                 06/17/2019 10:07:01 PAGE 60  

002F C3                CLR     C
0030 6480              XRL     A,#080H
0032 94C1              SUBB    A,#0C1H
0034 4018              JC      ?C0078
0036 D3                SETB    C
0037 ED                MOV     A,R5
0038 6480              XRL     A,#080H
003A 94C6              SUBB    A,#0C6H
003C 5010              JNC     ?C0078
003E ED                MOV     A,R5
003F 33                RLC     A
0040 95E0              SUBB    A,ACC
0042 FC                MOV     R4,A
0043 ED                MOV     A,R5
0044 240A              ADD     A,#0AH
0046 FD                MOV     R5,A
0047 E4                CLR     A
0048 3C                ADDC    A,R4
0049 CD                XCH     A,R5
004A 24BF              ADD     A,#0BFH
004C 8021              SJMP    ?C0591
004E         ?C0078:
004E 120000      E     LCALL   ?C?CLDPTR
0051 FD                MOV     R5,A
0052 C3                CLR     C
0053 6480              XRL     A,#080H
0055 94E1              SUBB    A,#0E1H
0057 4022              JC      ?C0080
0059 D3                SETB    C
005A ED                MOV     A,R5
005B 6480              XRL     A,#080H
005D 94E6              SUBB    A,#0E6H
005F 501A              JNC     ?C0080
0061 ED                MOV     A,R5
0062 33                RLC     A
0063 95E0              SUBB    A,ACC
0065 FC                MOV     R4,A
0066 ED                MOV     A,R5
0067 240A              ADD     A,#0AH
0069 FD                MOV     R5,A
006A E4                CLR     A
006B 3C                ADDC    A,R4
006C CD                XCH     A,R5
006D 249F              ADD     A,#09FH
006F         ?C0591:
006F CD                XCH     A,R5
0070 34FF              ADDC    A,#0FFH
0072 FC                MOV     R4,A
0073 ED                MOV     A,R5
0074 2F                ADD     A,R7
0075 FF                MOV     R7,A
0076 EC                MOV     A,R4
0077 3E                ADDC    A,R6
0078 FE                MOV     R6,A
0079 8003              SJMP    ?C0077
007B         ?C0080:
007B 020000      R     LJMP    ?C0598
007E         ?C0077:
                                           ; SOURCE LINE # 181
007E EF                MOV     A,R7
007F C4                SWAP    A
0080 F8                MOV     R0,A
C51 COMPILER V9.01   CJSON                                                                 06/17/2019 10:07:01 PAGE 61  

0081 540F              ANL     A,#0FH
0083 C8                XCH     A,R0
0084 68                XRL     A,R0
0085 FF                MOV     R7,A
0086 EE                MOV     A,R6
0087 C4                SWAP    A
0088 54F0              ANL     A,#0F0H
008A 48                ORL     A,R0
008B FE                MOV     R6,A
008C 7401              MOV     A,#01H
008E 29                ADD     A,R1
008F F9                MOV     R1,A
0090 E4                CLR     A
0091 3A                ADDC    A,R2
0092 FA                MOV     R2,A
                                           ; SOURCE LINE # 182
0093 120000      E     LCALL   ?C?CLDPTR
0096 FD                MOV     R5,A
0097 C3                CLR     C
0098 6480              XRL     A,#080H
009A 94B0              SUBB    A,#0B0H
009C 4014              JC      ?C0083
009E D3                SETB    C
009F ED                MOV     A,R5
00A0 6480              XRL     A,#080H
00A2 94B9              SUBB    A,#0B9H
00A4 500C              JNC     ?C0083
00A6 ED                MOV     A,R5
00A7 33                RLC     A
00A8 95E0              SUBB    A,ACC
00AA FC                MOV     R4,A
00AB ED                MOV     A,R5
00AC 24D0              ADD     A,#0D0H
00AE FD                MOV     R5,A
00AF EC                MOV     A,R4
00B0 8046              SJMP    ?C0594
00B2         ?C0083:
00B2 120000      E     LCALL   ?C?CLDPTR
00B5 FD                MOV     R5,A
00B6 C3                CLR     C
00B7 6480              XRL     A,#080H
00B9 94C1              SUBB    A,#0C1H
00BB 4019              JC      ?C0085
00BD D3                SETB    C
00BE ED                MOV     A,R5
00BF 6480              XRL     A,#080H
00C1 94C6              SUBB    A,#0C6H
00C3 5011              JNC     ?C0085
00C5 ED                MOV     A,R5
00C6 33                RLC     A
00C7 95E0              SUBB    A,ACC
00C9 FC                MOV     R4,A
00CA ED                MOV     A,R5
00CB 240A              ADD     A,#0AH
00CD FD                MOV     R5,A
00CE E4                CLR     A
00CF 3C                ADDC    A,R4
00D0 CD                XCH     A,R5
00D1 24BF              ADD     A,#0BFH
00D3 CD                XCH     A,R5
00D4         ?C0593:
00D4 8022              SJMP    ?C0594
C51 COMPILER V9.01   CJSON                                                                 06/17/2019 10:07:01 PAGE 62  

00D6         ?C0085:
00D6 120000      E     LCALL   ?C?CLDPTR
00D9 FD                MOV     R5,A
00DA C3                CLR     C
00DB 6480              XRL     A,#080H
00DD 94E1              SUBB    A,#0E1H
00DF 4022              JC      ?C0087
00E1 D3                SETB    C
00E2 ED                MOV     A,R5
00E3 6480              XRL     A,#080H
00E5 94E6              SUBB    A,#0E6H
00E7 501A              JNC     ?C0087
00E9 ED                MOV     A,R5
00EA 33                RLC     A
00EB 95E0              SUBB    A,ACC
00ED FC                MOV     R4,A
00EE ED                MOV     A,R5
00EF 240A              ADD     A,#0AH
00F1 FD                MOV     R5,A
00F2 E4                CLR     A
00F3 3C                ADDC    A,R4
00F4 CD                XCH     A,R5
00F5 249F              ADD     A,#09FH
00F7 CD                XCH     A,R5
00F8         ?C0594:
00F8 34FF              ADDC    A,#0FFH
00FA FC                MOV     R4,A
00FB ED                MOV     A,R5
00FC 2F                ADD     A,R7
00FD FF                MOV     R7,A
00FE EC                MOV     A,R4
00FF 3E                ADDC    A,R6
0100 FE                MOV     R6,A
0101 8003              SJMP    ?C0084
0103         ?C0087:
0103         ?C0592:
0103 020000      R     LJMP    ?C0598
0106         ?C0084:
                                           ; SOURCE LINE # 183
0106 EF                MOV     A,R7
0107 C4                SWAP    A
0108 F8                MOV     R0,A
0109 540F              ANL     A,#0FH
010B C8                XCH     A,R0
010C 68                XRL     A,R0
010D FF                MOV     R7,A
010E EE                MOV     A,R6
010F C4                SWAP    A
0110 54F0              ANL     A,#0F0H
0112 48                ORL     A,R0
0113 FE                MOV     R6,A
0114 7401              MOV     A,#01H
0116 29                ADD     A,R1
0117 F9                MOV     R1,A
0118 E4                CLR     A
0119 3A                ADDC    A,R2
011A FA                MOV     R2,A
                                           ; SOURCE LINE # 184
011B 120000      E     LCALL   ?C?CLDPTR
011E FD                MOV     R5,A
011F C3                CLR     C
0120 6480              XRL     A,#080H
C51 COMPILER V9.01   CJSON                                                                 06/17/2019 10:07:01 PAGE 63  

0122 94B0              SUBB    A,#0B0H
0124 4014              JC      ?C0089
0126 D3                SETB    C
0127 ED                MOV     A,R5
0128 6480              XRL     A,#080H
012A 94B9              SUBB    A,#0B9H
012C 500C              JNC     ?C0089
012E ED                MOV     A,R5
012F 33                RLC     A
0130 95E0              SUBB    A,ACC
0132 FC                MOV     R4,A
0133 ED                MOV     A,R5
0134 24D0              ADD     A,#0D0H
0136 FD                MOV     R5,A
0137 EC                MOV     A,R4
0138 8046              SJMP    ?C0597
013A         ?C0089:
013A 120000      E     LCALL   ?C?CLDPTR
013D FD                MOV     R5,A
013E C3                CLR     C
013F 6480              XRL     A,#080H
0141 94C1              SUBB    A,#0C1H
0143 4019              JC      ?C0091
0145 D3                SETB    C
0146 ED                MOV     A,R5
0147 6480              XRL     A,#080H
0149 94C6              SUBB    A,#0C6H
014B 5011              JNC     ?C0091
014D ED                MOV     A,R5
014E 33                RLC     A
014F 95E0              SUBB    A,ACC
0151 FC                MOV     R4,A
0152 ED                MOV     A,R5
0153 240A              ADD     A,#0AH
0155 FD                MOV     R5,A
0156 E4                CLR     A
0157 3C                ADDC    A,R4
0158 CD                XCH     A,R5
0159 24BF              ADD     A,#0BFH
015B CD                XCH     A,R5
015C         ?C0596:
015C 8022              SJMP    ?C0597
015E         ?C0091:
015E 120000      E     LCALL   ?C?CLDPTR
0161 FD                MOV     R5,A
0162 C3                CLR     C
0163 6480              XRL     A,#080H
0165 94E1              SUBB    A,#0E1H
0167 4022              JC      ?C0093
0169 D3                SETB    C
016A ED                MOV     A,R5
016B 6480              XRL     A,#080H
016D 94E6              SUBB    A,#0E6H
016F 501A              JNC     ?C0093
0171 ED                MOV     A,R5
0172 33                RLC     A
0173 95E0              SUBB    A,ACC
0175 FC                MOV     R4,A
0176 ED                MOV     A,R5
0177 240A              ADD     A,#0AH
0179 FD                MOV     R5,A
017A E4                CLR     A
C51 COMPILER V9.01   CJSON                                                                 06/17/2019 10:07:01 PAGE 64  

017B 3C                ADDC    A,R4
017C CD                XCH     A,R5
017D 249F              ADD     A,#09FH
017F CD                XCH     A,R5
0180         ?C0597:
0180 34FF              ADDC    A,#0FFH
0182 FC                MOV     R4,A
0183 ED                MOV     A,R5
0184 2F                ADD     A,R7
0185 FF                MOV     R7,A
0186 EC                MOV     A,R4
0187 3E                ADDC    A,R6
0188 FE                MOV     R6,A
0189 8003              SJMP    ?C0090
018B         ?C0093:
018B         ?C0595:
018B 020000      R     LJMP    ?C0598
018E         ?C0090:
                                           ; SOURCE LINE # 185
018E EF                MOV     A,R7
018F C4                SWAP    A
0190 F8                MOV     R0,A
0191 540F              ANL     A,#0FH
0193 C8                XCH     A,R0
0194 68                XRL     A,R0
0195 FF                MOV     R7,A
0196 EE                MOV     A,R6
0197 C4                SWAP    A
0198 54F0              ANL     A,#0F0H
019A 48                ORL     A,R0
019B FE                MOV     R6,A
019C 7401              MOV     A,#01H
019E 29                ADD     A,R1
019F F9                MOV     R1,A
01A0 E4                CLR     A
01A1 3A                ADDC    A,R2
01A2 FA                MOV     R2,A
                                           ; SOURCE LINE # 186
01A3 120000      E     LCALL   ?C?CLDPTR
01A6 FD                MOV     R5,A
01A7 C3                CLR     C
01A8 6480              XRL     A,#080H
01AA 94B0              SUBB    A,#0B0H
01AC 4014              JC      ?C0095
01AE D3                SETB    C
01AF ED                MOV     A,R5
01B0 6480              XRL     A,#080H
01B2 94B9              SUBB    A,#0B9H
01B4 500C              JNC     ?C0095
01B6 ED                MOV     A,R5
01B7 33                RLC     A
01B8 95E0              SUBB    A,ACC
01BA FC                MOV     R4,A
01BB ED                MOV     A,R5
01BC 24D0              ADD     A,#0D0H
01BE FD                MOV     R5,A
01BF EC                MOV     A,R4
01C0 8046              SJMP    ?C0600
01C2         ?C0095:
01C2 120000      E     LCALL   ?C?CLDPTR
01C5 FD                MOV     R5,A
01C6 C3                CLR     C
C51 COMPILER V9.01   CJSON                                                                 06/17/2019 10:07:01 PAGE 65  

01C7 6480              XRL     A,#080H
01C9 94C1              SUBB    A,#0C1H
01CB 4019              JC      ?C0097
01CD D3                SETB    C
01CE ED                MOV     A,R5
01CF 6480              XRL     A,#080H
01D1 94C6              SUBB    A,#0C6H
01D3 5011              JNC     ?C0097
01D5 ED                MOV     A,R5
01D6 33                RLC     A
01D7 95E0              SUBB    A,ACC
01D9 FC                MOV     R4,A
01DA ED                MOV     A,R5
01DB 240A              ADD     A,#0AH
01DD FD                MOV     R5,A
01DE E4                CLR     A
01DF 3C                ADDC    A,R4
01E0 CD                XCH     A,R5
01E1 24BF              ADD     A,#0BFH
01E3 CD                XCH     A,R5
01E4         ?C0599:
01E4 8022              SJMP    ?C0600
01E6         ?C0097:
01E6 120000      E     LCALL   ?C?CLDPTR
01E9 FD                MOV     R5,A
01EA C3                CLR     C
01EB 6480              XRL     A,#080H
01ED 94E1              SUBB    A,#0E1H
01EF 4022              JC      ?C0099
01F1 D3                SETB    C
01F2 ED                MOV     A,R5
01F3 6480              XRL     A,#080H
01F5 94E6              SUBB    A,#0E6H
01F7 501A              JNC     ?C0099
01F9 ED                MOV     A,R5
01FA 33                RLC     A
01FB 95E0              SUBB    A,ACC
01FD FC                MOV     R4,A
01FE ED                MOV     A,R5
01FF 240A              ADD     A,#0AH
0201 FD                MOV     R5,A
0202 E4                CLR     A
0203 3C                ADDC    A,R4
0204 CD                XCH     A,R5
0205 249F              ADD     A,#09FH
0207 CD                XCH     A,R5
0208         ?C0600:
0208 34FF              ADDC    A,#0FFH
020A FC                MOV     R4,A
020B ED                MOV     A,R5
020C 2F                ADD     A,R7
020D FF                MOV     R7,A
020E EC                MOV     A,R4
020F 3E                ADDC    A,R6
0210 FE                MOV     R6,A
0211 8004              SJMP    ?C0096
0213         ?C0099:
0213         ?C0598:
0213 E4                CLR     A
0214 FE                MOV     R6,A
0215 FF                MOV     R7,A
0216 22                RET     
C51 COMPILER V9.01   CJSON                                                                 06/17/2019 10:07:01 PAGE 66  

0217         ?C0096:
                                           ; SOURCE LINE # 187
                                           ; SOURCE LINE # 188
0217         ?C0082:
0217 22                RET     
             ; FUNCTION _parse_hex4 (END)

             ; FUNCTION L?0696 (BEGIN)
0000 900000      R     MOV     DPTR,#?_parse_string?BYTE+03H
0003 EB                MOV     A,R3
0004 F0                MOVX    @DPTR,A
0005 A3                INC     DPTR
0006 EA                MOV     A,R2
0007 F0                MOVX    @DPTR,A
0008 A3                INC     DPTR
0009 E9                MOV     A,R1
000A F0                MOVX    @DPTR,A
000B 900000      R     MOV     DPTR,#child
000E E0                MOVX    A,@DPTR
000F FB                MOV     R3,A
0010 A3                INC     DPTR
0011 E0                MOVX    A,@DPTR
0012 FA                MOV     R2,A
0013 A3                INC     DPTR
0014 E0                MOVX    A,@DPTR
0015 F9                MOV     R1,A
             ; FUNCTION _parse_string (BEGIN)
                                           ; SOURCE LINE # 192
0016 900000      R     MOV     DPTR,#item
0019 EB                MOV     A,R3
001A F0                MOVX    @DPTR,A
001B A3                INC     DPTR
001C EA                MOV     A,R2
001D F0                MOVX    @DPTR,A
001E A3                INC     DPTR
001F E9                MOV     A,R1
0020 F0                MOVX    @DPTR,A
                                           ; SOURCE LINE # 193
                                           ; SOURCE LINE # 194
0021 A3                INC     DPTR
0022 E0                MOVX    A,@DPTR
0023 FB                MOV     R3,A
0024 A3                INC     DPTR
0025 E0                MOVX    A,@DPTR
0026 FA                MOV     R2,A
0027 A3                INC     DPTR
0028 E0                MOVX    A,@DPTR
0029 2401              ADD     A,#01H
002B F9                MOV     R1,A
002C E4                CLR     A
002D 3A                ADDC    A,R2
002E FA                MOV     R2,A
002F A3                INC     DPTR
0030 EB                MOV     A,R3
0031 F0                MOVX    @DPTR,A
0032 A3                INC     DPTR
0033 EA                MOV     A,R2
0034 F0                MOVX    @DPTR,A
0035 A3                INC     DPTR
0036 E9                MOV     A,R1
0037 F0                MOVX    @DPTR,A
0038 E4                CLR     A
C51 COMPILER V9.01   CJSON                                                                 06/17/2019 10:07:01 PAGE 67  

0039 900000      R     MOV     DPTR,#len
003C F0                MOVX    @DPTR,A
003D A3                INC     DPTR
003E F0                MOVX    @DPTR,A
                                           ; SOURCE LINE # 195
003F 900000      R     MOV     DPTR,#str
0042 A3                INC     DPTR
0043 E0                MOVX    A,@DPTR
0044 FA                MOV     R2,A
0045 A3                INC     DPTR
0046 E0                MOVX    A,@DPTR
0047 F9                MOV     R1,A
0048 120000      E     LCALL   ?C?CLDPTR
004B 6422              XRL     A,#022H
004D 6012              JZ      ?C0103
004F 900000      R     MOV     DPTR,#ep
0052 EB                MOV     A,R3
0053 F0                MOVX    @DPTR,A
0054 A3                INC     DPTR
0055 EA                MOV     A,R2
0056 F0                MOVX    @DPTR,A
0057 A3                INC     DPTR
0058 E9                MOV     A,R1
0059 F0                MOVX    @DPTR,A
005A 7B00              MOV     R3,#00H
005C 7A00              MOV     R2,#00H
005E 7900              MOV     R1,#00H
0060 22                RET     
0061         ?C0103:
                                           ; SOURCE LINE # 197
0061 900000      R     MOV     DPTR,#ptr
0064 E0                MOVX    A,@DPTR
0065 FB                MOV     R3,A
0066 A3                INC     DPTR
0067 E0                MOVX    A,@DPTR
0068 FA                MOV     R2,A
0069 A3                INC     DPTR
006A E0                MOVX    A,@DPTR
006B F9                MOV     R1,A
006C 120000      E     LCALL   ?C?CLDPTR
006F FF                MOV     R7,A
0070 6422              XRL     A,#022H
0072 6033              JZ      ?C0104
0074 EF                MOV     A,R7
0075 6030              JZ      ?C0104
0077 900000      R     MOV     DPTR,#len
007A E4                CLR     A
007B 75F001            MOV     B,#01H
007E 120000      E     LCALL   ?C?IILDX
0081 45F0              ORL     A,B
0083 6022              JZ      ?C0104
0085 900000      R     MOV     DPTR,#ptr
0088 E0                MOVX    A,@DPTR
0089 FB                MOV     R3,A
008A A3                INC     DPTR
008B E4                CLR     A
008C 75F001            MOV     B,#01H
008F 120000      E     LCALL   ?C?ILDIX
0092 A9F0              MOV     R1,B
0094 FA                MOV     R2,A
0095 120000      E     LCALL   ?C?CLDPTR
0098 B45CC6            CJNE    A,#05CH,?C0103
C51 COMPILER V9.01   CJSON                                                                 06/17/2019 10:07:01 PAGE 68  

009B 900000      R     MOV     DPTR,#ptr+01H
009E E4                CLR     A
009F 75F001            MOV     B,#01H
00A2 120000      E     LCALL   ?C?IILDX
00A5 80BA              SJMP    ?C0103
00A7         ?C0104:
                                           ; SOURCE LINE # 199
00A7 900000      R     MOV     DPTR,#len+01H
00AA E0                MOVX    A,@DPTR
00AB 2401              ADD     A,#01H
00AD FF                MOV     R7,A
00AE 900000      R     MOV     DPTR,#len
00B1 E0                MOVX    A,@DPTR
00B2 3400              ADDC    A,#00H
00B4 FE                MOV     R6,A
00B5 900000      R     MOV     DPTR,#_cJSON_malloc
00B8 A3                INC     DPTR
00B9 E0                MOVX    A,@DPTR
00BA FA                MOV     R2,A
00BB A3                INC     DPTR
00BC E0                MOVX    A,@DPTR
00BD F582              MOV     DPL,A
00BF 8A83              MOV     DPH,R2
00C1 120000      E     LCALL   ?C?ICALL2
00C4 900000      R     MOV     DPTR,#out
00C7 EB                MOV     A,R3
00C8 F0                MOVX    @DPTR,A
00C9 A3                INC     DPTR
00CA EA                MOV     A,R2
00CB F0                MOVX    @DPTR,A
00CC A3                INC     DPTR
00CD E9                MOV     A,R1
00CE F0                MOVX    @DPTR,A
                                           ; SOURCE LINE # 200
00CF 4A                ORL     A,R2
00D0 4B                ORL     A,R3
00D1 7004              JNZ     ?C0106
00D3 FB                MOV     R3,A
00D4 FA                MOV     R2,A
00D5 F9                MOV     R1,A
00D6 22                RET     
00D7         ?C0106:
                                           ; SOURCE LINE # 202
00D7 900000      R     MOV     DPTR,#str
00DA E0                MOVX    A,@DPTR
00DB FB                MOV     R3,A
00DC A3                INC     DPTR
00DD E0                MOVX    A,@DPTR
00DE FA                MOV     R2,A
00DF A3                INC     DPTR
00E0 E0                MOVX    A,@DPTR
00E1 2401              ADD     A,#01H
00E3 F9                MOV     R1,A
00E4 E4                CLR     A
00E5 3A                ADDC    A,R2
00E6 FA                MOV     R2,A
00E7 A3                INC     DPTR
00E8 EB                MOV     A,R3
00E9 F0                MOVX    @DPTR,A
00EA A3                INC     DPTR
00EB EA                MOV     A,R2
00EC F0                MOVX    @DPTR,A
C51 COMPILER V9.01   CJSON                                                                 06/17/2019 10:07:01 PAGE 69  

00ED A3                INC     DPTR
00EE E9                MOV     A,R1
00EF F0                MOVX    @DPTR,A
00F0 900000      R     MOV     DPTR,#out
00F3 E0                MOVX    A,@DPTR
00F4 F9                MOV     R1,A
00F5 A3                INC     DPTR
00F6 E0                MOVX    A,@DPTR
00F7 FA                MOV     R2,A
00F8 A3                INC     DPTR
00F9 E0                MOVX    A,@DPTR
00FA 900000      R     MOV     DPTR,#ptr2
00FD C9                XCH     A,R1
00FE F0                MOVX    @DPTR,A
00FF A3                INC     DPTR
0100 EA                MOV     A,R2
0101 F0                MOVX    @DPTR,A
0102 A3                INC     DPTR
0103 E9                MOV     A,R1
0104 F0                MOVX    @DPTR,A
0105         ?C0107:
                                           ; SOURCE LINE # 203
0105 900000      R     MOV     DPTR,#ptr
0108 E0                MOVX    A,@DPTR
0109 FB                MOV     R3,A
010A A3                INC     DPTR
010B E0                MOVX    A,@DPTR
010C FA                MOV     R2,A
010D A3                INC     DPTR
010E E0                MOVX    A,@DPTR
010F F9                MOV     R1,A
0110 120000      E     LCALL   ?C?CLDPTR
0113 FF                MOV     R7,A
0114 6422              XRL     A,#022H
0116 7003              JNZ     $ + 5H
0118 020000      R     LJMP    ?C0108
011B EF                MOV     A,R7
011C 7003              JNZ     $ + 5H
011E 020000      R     LJMP    ?C0108
                                           ; SOURCE LINE # 204
                                           ; SOURCE LINE # 205
0121 645C              XRL     A,#05CH
0123 6028              JZ      ?C0109
0125 900000      R     MOV     DPTR,#ptr
0128 A3                INC     DPTR
0129 E4                CLR     A
012A 75F001            MOV     B,#01H
012D 120000      E     LCALL   ?C?ILDIX
0130 A9F0              MOV     R1,B
0132 FA                MOV     R2,A
0133 120000      E     LCALL   ?C?CLDPTR
0136 FF                MOV     R7,A
0137 900000      R     MOV     DPTR,#ptr2
013A E0                MOVX    A,@DPTR
013B FB                MOV     R3,A
013C A3                INC     DPTR
013D E4                CLR     A
013E 75F001            MOV     B,#01H
0141 120000      E     LCALL   ?C?ILDIX
0144 A9F0              MOV     R1,B
0146 FA                MOV     R2,A
0147 EF                MOV     A,R7
C51 COMPILER V9.01   CJSON                                                                 06/17/2019 10:07:01 PAGE 70  

0148 120000      E     LCALL   ?C?CSTPTR
014B 80B8              SJMP    ?C0107
014D         ?C0109:
                                           ; SOURCE LINE # 207
                                           ; SOURCE LINE # 208
014D 900000      R     MOV     DPTR,#ptr+01H
0150 E4                CLR     A
0151 75F001            MOV     B,#01H
0154 120000      E     LCALL   ?C?IILDX
                                           ; SOURCE LINE # 209
0157 900000      R     MOV     DPTR,#ptr
015A E0                MOVX    A,@DPTR
015B FB                MOV     R3,A
015C A3                INC     DPTR
015D E0                MOVX    A,@DPTR
015E FA                MOV     R2,A
015F A3                INC     DPTR
0160 E0                MOVX    A,@DPTR
0161 F9                MOV     R1,A
0162 120000      E     LCALL   ?C?CLDPTR
0165 249A              ADD     A,#09AH
0167 602B              JZ      ?C0113
0169 24F8              ADD     A,#0F8H
016B 603C              JZ      ?C0114
016D 24FC              ADD     A,#0FCH
016F 604D              JZ      ?C0115
0171 24FE              ADD     A,#0FEH
0173 605E              JZ      ?C0116
0175 14                DEC     A
0176 6070              JZ      ?C0117
0178 2413              ADD     A,#013H
017A 6003              JZ      $ + 5H
017C 020000      R     LJMP    ?C0136
                                           ; SOURCE LINE # 210
                                           ; SOURCE LINE # 211
017F         ?C0112:
017F 900000      R     MOV     DPTR,#ptr2
0182 E0                MOVX    A,@DPTR
0183 FB                MOV     R3,A
0184 A3                INC     DPTR
0185 E4                CLR     A
0186 75F001            MOV     B,#01H
0189 120000      E     LCALL   ?C?ILDIX
018C A9F0              MOV     R1,B
018E FA                MOV     R2,A
018F 7408              MOV     A,#08H
0191 020000      R     LJMP    ?C0605
                                           ; SOURCE LINE # 212
0194         ?C0113:
0194 900000      R     MOV     DPTR,#ptr2
0197 E0                MOVX    A,@DPTR
0198 FB                MOV     R3,A
0199 A3                INC     DPTR
019A E4                CLR     A
019B 75F001            MOV     B,#01H
019E 120000      E     LCALL   ?C?ILDIX
01A1 A9F0              MOV     R1,B
01A3 FA                MOV     R2,A
01A4 740C              MOV     A,#0CH
01A6         ?C0601:
01A6 020000      R     LJMP    ?C0605
                                           ; SOURCE LINE # 213
C51 COMPILER V9.01   CJSON                                                                 06/17/2019 10:07:01 PAGE 71  

01A9         ?C0114:
01A9 900000      R     MOV     DPTR,#ptr2
01AC E0                MOVX    A,@DPTR
01AD FB                MOV     R3,A
01AE A3                INC     DPTR
01AF E4                CLR     A
01B0 75F001            MOV     B,#01H
01B3 120000      E     LCALL   ?C?ILDIX
01B6 A9F0              MOV     R1,B
01B8 FA                MOV     R2,A
01B9 740A              MOV     A,#0AH
01BB         ?C0602:
01BB 020000      R     LJMP    ?C0605
                                           ; SOURCE LINE # 214
01BE         ?C0115:
01BE 900000      R     MOV     DPTR,#ptr2
01C1 E0                MOVX    A,@DPTR
01C2 FB                MOV     R3,A
01C3 A3                INC     DPTR
01C4 E4                CLR     A
01C5 75F001            MOV     B,#01H
01C8 120000      E     LCALL   ?C?ILDIX
01CB A9F0              MOV     R1,B
01CD FA                MOV     R2,A
01CE 740D              MOV     A,#0DH
01D0         ?C0603:
01D0 020000      R     LJMP    ?C0605
                                           ; SOURCE LINE # 215
01D3         ?C0116:
01D3 900000      R     MOV     DPTR,#ptr2
01D6 E0                MOVX    A,@DPTR
01D7 FB                MOV     R3,A
01D8 A3                INC     DPTR
01D9 E4                CLR     A
01DA 75F001            MOV     B,#01H
01DD 120000      E     LCALL   ?C?ILDIX
01E0 A9F0              MOV     R1,B
01E2 FA                MOV     R2,A
01E3 7409              MOV     A,#09H
01E5         ?C0604:
01E5 020000      R     LJMP    ?C0605
                                           ; SOURCE LINE # 216
01E8         ?C0117:
                                           ; SOURCE LINE # 217
01E8 900000      R     MOV     DPTR,#ptr
01EB E0                MOVX    A,@DPTR
01EC FB                MOV     R3,A
01ED A3                INC     DPTR
01EE E0                MOVX    A,@DPTR
01EF FA                MOV     R2,A
01F0 A3                INC     DPTR
01F1 E0                MOVX    A,@DPTR
01F2 2401              ADD     A,#01H
01F4 F9                MOV     R1,A
01F5 E4                CLR     A
01F6 3A                ADDC    A,R2
01F7 FA                MOV     R2,A
01F8 120000      R     LCALL   _parse_hex4
01FB 900000      R     MOV     DPTR,#uc
01FE EE                MOV     A,R6
01FF F0                MOVX    @DPTR,A
0200 A3                INC     DPTR
C51 COMPILER V9.01   CJSON                                                                 06/17/2019 10:07:01 PAGE 72  

0201 EF                MOV     A,R7
0202 F0                MOVX    @DPTR,A
0203 900000      R     MOV     DPTR,#ptr+01H
0206 E4                CLR     A
0207 75F004            MOV     B,#04H
020A 120000      E     LCALL   ?C?IILDX
                                           ; SOURCE LINE # 219
020D C3                CLR     C
020E EE                MOV     A,R6
020F 94DC              SUBB    A,#0DCH
0211 4012              JC      ?C0120
0213 D3                SETB    C
0214 900000      R     MOV     DPTR,#uc+01H
0217 E0                MOVX    A,@DPTR
0218 94FF              SUBB    A,#0FFH
021A 900000      R     MOV     DPTR,#uc
021D E0                MOVX    A,@DPTR
021E 94DF              SUBB    A,#0DFH
0220 5003              JNC     $ + 5H
0222 020000      R     LJMP    ?C0111
0225         ?C0120:
0225 900000      R     MOV     DPTR,#uc
0228 E0                MOVX    A,@DPTR
0229 FE                MOV     R6,A
022A A3                INC     DPTR
022B E0                MOVX    A,@DPTR
022C FF                MOV     R7,A
022D 4E                ORL     A,R6
022E 7003              JNZ     $ + 5H
0230 020000      R     LJMP    ?C0111
0233         ?C0118:
                                           ; SOURCE LINE # 221
0233 C3                CLR     C
0234 EE                MOV     A,R6
0235 94D8              SUBB    A,#0D8H
0237 4073              JC      ?C0121
0239 D3                SETB    C
023A EF                MOV     A,R7
023B 94FF              SUBB    A,#0FFH
023D EE                MOV     A,R6
023E 94DB              SUBB    A,#0DBH
0240 506A              JNC     ?C0121
                                           ; SOURCE LINE # 222
                                           ; SOURCE LINE # 223
0242 900000      R     MOV     DPTR,#ptr
0245 E0                MOVX    A,@DPTR
0246 FB                MOV     R3,A
0247 A3                INC     DPTR
0248 E0                MOVX    A,@DPTR
0249 FA                MOV     R2,A
024A A3                INC     DPTR
024B E0                MOVX    A,@DPTR
024C F9                MOV     R1,A
024D 900001            MOV     DPTR,#01H
0250 120000      E     LCALL   ?C?CLDOPTR
0253 645C              XRL     A,#05CH
0255 6003              JZ      $ + 5H
0257 020000      R     LJMP    ?C0111
025A 900002            MOV     DPTR,#02H
025D 120000      E     LCALL   ?C?CLDOPTR
0260 6475              XRL     A,#075H
0262 6003              JZ      $ + 5H
C51 COMPILER V9.01   CJSON                                                                 06/17/2019 10:07:01 PAGE 73  

0264 020000      R     LJMP    ?C0111
0267         ?C0122:
                                           ; SOURCE LINE # 224
0267 E9                MOV     A,R1
0268 2403              ADD     A,#03H
026A F9                MOV     R1,A
026B E4                CLR     A
026C 3A                ADDC    A,R2
026D FA                MOV     R2,A
026E 120000      R     LCALL   _parse_hex4
;---- Variable 'uc2' assigned to Register 'R4/R5' ----
0271 AD07              MOV     R5,AR7
0273 AC06              MOV     R4,AR6
0275 900000      R     MOV     DPTR,#ptr+01H
0278 E4                CLR     A
0279 75F006            MOV     B,#06H
027C 120000      E     LCALL   ?C?IILDX
                                           ; SOURCE LINE # 225
027F C3                CLR     C
0280 EC                MOV     A,R4
0281 94DC              SUBB    A,#0DCH
0283 5003              JNC     $ + 5H
0285 020000      R     LJMP    ?C0111
0288 D3                SETB    C
0289 ED                MOV     A,R5
028A 94FF              SUBB    A,#0FFH
028C EC                MOV     A,R4
028D 94DF              SUBB    A,#0DFH
028F 4003              JC      $ + 5H
0291 020000      R     LJMP    ?C0111
0294         ?C0124:
                                           ; SOURCE LINE # 226
0294 900000      R     MOV     DPTR,#uc
0297 A3                INC     DPTR
0298 E0                MOVX    A,@DPTR
0299 25E0              ADD     A,ACC
029B 25E0              ADD     A,ACC
029D FE                MOV     R6,A
029E EC                MOV     A,R4
029F 5403              ANL     A,#03H
02A1 4E                ORL     A,R6
02A2 FF                MOV     R7,A
02A3 ED                MOV     A,R5
02A4 900000      R     MOV     DPTR,#uc
02A7 CF                XCH     A,R7
02A8 F0                MOVX    @DPTR,A
02A9 A3                INC     DPTR
02AA EF                MOV     A,R7
02AB F0                MOVX    @DPTR,A
                                           ; SOURCE LINE # 227
02AC         ?C0121:
                                           ; SOURCE LINE # 229
02AC 900000      R     MOV     DPTR,#len
02AF E4                CLR     A
02B0 F0                MOVX    @DPTR,A
02B1 A3                INC     DPTR
02B2 7404              MOV     A,#04H
02B4 F0                MOVX    @DPTR,A
02B5 A3                INC     DPTR
02B6 E0                MOVX    A,@DPTR
02B7 FE                MOV     R6,A
02B8 A3                INC     DPTR
C51 COMPILER V9.01   CJSON                                                                 06/17/2019 10:07:01 PAGE 74  

02B9 E0                MOVX    A,@DPTR
02BA C3                CLR     C
02BB 9480              SUBB    A,#080H
02BD EE                MOV     A,R6
02BE 9400              SUBB    A,#00H
02C0 500A              JNC     ?C0126
02C2 900000      R     MOV     DPTR,#len
02C5 E4                CLR     A
02C6 F0                MOVX    @DPTR,A
02C7 A3                INC     DPTR
02C8 04                INC     A
02C9 F0                MOVX    @DPTR,A
02CA 8030              SJMP    ?C0127
02CC         ?C0126:
02CC C3                CLR     C
02CD EE                MOV     A,R6
02CE 9408              SUBB    A,#08H
02D0 500B              JNC     ?C0128
02D2 900000      R     MOV     DPTR,#len
02D5 E4                CLR     A
02D6 F0                MOVX    @DPTR,A
02D7 A3                INC     DPTR
02D8 7402              MOV     A,#02H
02DA F0                MOVX    @DPTR,A
02DB 801F              SJMP    ?C0127
02DD         ?C0128:
02DD 900000      R     MOV     DPTR,#uc
02E0 E0                MOVX    A,@DPTR
02E1 FE                MOV     R6,A
02E2 A3                INC     DPTR
02E3 E0                MOVX    A,@DPTR
02E4 FF                MOV     R7,A
02E5 E4                CLR     A
02E6 FC                MOV     R4,A
02E7 FD                MOV     R5,A
02E8 FB                MOV     R3,A
02E9 FA                MOV     R2,A
02EA 7901              MOV     R1,#01H
02EC F8                MOV     R0,A
02ED D3                SETB    C
02EE 120000      E     LCALL   ?C?SLCMP
02F1 4009              JC      ?C0127
02F3 900000      R     MOV     DPTR,#len
02F6 E4                CLR     A
02F7 F0                MOVX    @DPTR,A
02F8 A3                INC     DPTR
02F9 7403              MOV     A,#03H
02FB F0                MOVX    @DPTR,A
02FC         ?C0127:
02FC 900000      R     MOV     DPTR,#len
02FF E0                MOVX    A,@DPTR
0300 FE                MOV     R6,A
0301 A3                INC     DPTR
0302 E0                MOVX    A,@DPTR
0303 FF                MOV     R7,A
0304 900000      R     MOV     DPTR,#ptr2+01H
0307 EE                MOV     A,R6
0308 8FF0              MOV     B,R7
030A 120000      E     LCALL   ?C?IILDX
                                           ; SOURCE LINE # 231
030D EE                MOV     A,R6
030E 6003              JZ      $ + 5H
C51 COMPILER V9.01   CJSON                                                                 06/17/2019 10:07:01 PAGE 75  

0310 020000      R     LJMP    ?C0131
0313 EF                MOV     A,R7
0314 14                DEC     A
0315 7003              JNZ     $ + 5H
0317 020000      R     LJMP    ?C0135
031A 14                DEC     A
031B 6071              JZ      ?C0134
031D 14                DEC     A
031E 603A              JZ      ?C0133
0320 14                DEC     A
0321 6003              JZ      $ + 5H
0323 020000      R     LJMP    ?C0131
                                           ; SOURCE LINE # 232
0326         ?C0132:
0326 900000      R     MOV     DPTR,#uc
0329 A3                INC     DPTR
032A E0                MOVX    A,@DPTR
032B 4480              ORL     A,#080H
032D 54BF              ANL     A,#0BFH
032F FF                MOV     R7,A
0330 900000      R     MOV     DPTR,#ptr2
0333 E0                MOVX    A,@DPTR
0334 FB                MOV     R3,A
0335 A3                INC     DPTR
0336 74FF              MOV     A,#0FFH
0338 F5F0              MOV     B,A
033A 120000      E     LCALL   ?C?IILDX
033D A9F0              MOV     R1,B
033F FA                MOV     R2,A
0340 EF                MOV     A,R7
0341 120000      E     LCALL   ?C?CSTPTR
0344 900000      R     MOV     DPTR,#uc
0347 E0                MOVX    A,@DPTR
0348 FE                MOV     R6,A
0349 A3                INC     DPTR
034A E0                MOVX    A,@DPTR
034B 7806              MOV     R0,#06H
034D         ?C0502:
034D CE                XCH     A,R6
034E C3                CLR     C
034F 13                RRC     A
0350 CE                XCH     A,R6
0351 13                RRC     A
0352 D8F9              DJNZ    R0,?C0502
0354 F0                MOVX    @DPTR,A
0355 EE                MOV     A,R6
0356 900000      R     MOV     DPTR,#uc
0359 F0                MOVX    @DPTR,A
                                           ; SOURCE LINE # 233
035A         ?C0133:
035A 900000      R     MOV     DPTR,#uc
035D A3                INC     DPTR
035E E0                MOVX    A,@DPTR
035F 4480              ORL     A,#080H
0361 54BF              ANL     A,#0BFH
0363 FF                MOV     R7,A
0364 900000      R     MOV     DPTR,#ptr2
0367 E0                MOVX    A,@DPTR
0368 FB                MOV     R3,A
0369 A3                INC     DPTR
036A 74FF              MOV     A,#0FFH
036C F5F0              MOV     B,A
C51 COMPILER V9.01   CJSON                                                                 06/17/2019 10:07:01 PAGE 76  

036E 120000      E     LCALL   ?C?IILDX
0371 A9F0              MOV     R1,B
0373 FA                MOV     R2,A
0374 EF                MOV     A,R7
0375 120000      E     LCALL   ?C?CSTPTR
0378 900000      R     MOV     DPTR,#uc
037B E0                MOVX    A,@DPTR
037C FE                MOV     R6,A
037D A3                INC     DPTR
037E E0                MOVX    A,@DPTR
037F 7806              MOV     R0,#06H
0381         ?C0503:
0381 CE                XCH     A,R6
0382 C3                CLR     C
0383 13                RRC     A
0384 CE                XCH     A,R6
0385 13                RRC     A
0386 D8F9              DJNZ    R0,?C0503
0388 F0                MOVX    @DPTR,A
0389 EE                MOV     A,R6
038A 900000      R     MOV     DPTR,#uc
038D F0                MOVX    @DPTR,A
                                           ; SOURCE LINE # 234
038E         ?C0134:
038E 900000      R     MOV     DPTR,#uc
0391 A3                INC     DPTR
0392 E0                MOVX    A,@DPTR
0393 4480              ORL     A,#080H
0395 54BF              ANL     A,#0BFH
0397 FF                MOV     R7,A
0398 900000      R     MOV     DPTR,#ptr2
039B E0                MOVX    A,@DPTR
039C FB                MOV     R3,A
039D A3                INC     DPTR
039E 74FF              MOV     A,#0FFH
03A0 F5F0              MOV     B,A
03A2 120000      E     LCALL   ?C?IILDX
03A5 A9F0              MOV     R1,B
03A7 FA                MOV     R2,A
03A8 EF                MOV     A,R7
03A9 120000      E     LCALL   ?C?CSTPTR
03AC 900000      R     MOV     DPTR,#uc
03AF E0                MOVX    A,@DPTR
03B0 FE                MOV     R6,A
03B1 A3                INC     DPTR
03B2 E0                MOVX    A,@DPTR
03B3 7806              MOV     R0,#06H
03B5         ?C0504:
03B5 CE                XCH     A,R6
03B6 C3                CLR     C
03B7 13                RRC     A
03B8 CE                XCH     A,R6
03B9 13                RRC     A
03BA D8F9              DJNZ    R0,?C0504
03BC F0                MOVX    @DPTR,A
03BD EE                MOV     A,R6
03BE 900000      R     MOV     DPTR,#uc
03C1 F0                MOVX    @DPTR,A
                                           ; SOURCE LINE # 235
03C2         ?C0135:
03C2 900000      R     MOV     DPTR,#len
03C5 E0                MOVX    A,@DPTR
C51 COMPILER V9.01   CJSON                                                                 06/17/2019 10:07:01 PAGE 77  

03C6 FE                MOV     R6,A
03C7 A3                INC     DPTR
03C8 E0                MOVX    A,@DPTR
03C9 2400        R     ADD     A,#LOW firstByteMark
03CB F582              MOV     DPL,A
03CD 7400        R     MOV     A,#HIGH firstByteMark
03CF 3E                ADDC    A,R6
03D0 F583              MOV     DPH,A
03D2 E0                MOVX    A,@DPTR
03D3 FF                MOV     R7,A
03D4 900000      R     MOV     DPTR,#uc
03D7 A3                INC     DPTR
03D8 E0                MOVX    A,@DPTR
03D9 FE                MOV     R6,A
03DA EF                MOV     A,R7
03DB 4E                ORL     A,R6
03DC FF                MOV     R7,A
03DD 900000      R     MOV     DPTR,#ptr2
03E0 E0                MOVX    A,@DPTR
03E1 FB                MOV     R3,A
03E2 A3                INC     DPTR
03E3 74FF              MOV     A,#0FFH
03E5 F5F0              MOV     B,A
03E7 120000      E     LCALL   ?C?IILDX
03EA A9F0              MOV     R1,B
03EC FA                MOV     R2,A
03ED EF                MOV     A,R7
03EE 120000      E     LCALL   ?C?CSTPTR
                                           ; SOURCE LINE # 236
03F1         ?C0131:
                                           ; SOURCE LINE # 237
03F1 900000      R     MOV     DPTR,#len
03F4 E0                MOVX    A,@DPTR
03F5 FE                MOV     R6,A
03F6 A3                INC     DPTR
03F7 E0                MOVX    A,@DPTR
03F8 FF                MOV     R7,A
03F9 900000      R     MOV     DPTR,#ptr2+01H
03FC EE                MOV     A,R6
03FD 8FF0              MOV     B,R7
03FF 120000      E     LCALL   ?C?IILDX
                                           ; SOURCE LINE # 238
0402 8023              SJMP    ?C0111
                                           ; SOURCE LINE # 239
0404         ?C0136:
0404 900000      R     MOV     DPTR,#ptr
0407 E0                MOVX    A,@DPTR
0408 FB                MOV     R3,A
0409 A3                INC     DPTR
040A E0                MOVX    A,@DPTR
040B FA                MOV     R2,A
040C A3                INC     DPTR
040D E0                MOVX    A,@DPTR
040E F9                MOV     R1,A
040F 120000      E     LCALL   ?C?CLDPTR
0412 FF                MOV     R7,A
0413 900000      R     MOV     DPTR,#ptr2
0416 E0                MOVX    A,@DPTR
0417 FB                MOV     R3,A
0418 A3                INC     DPTR
0419 E4                CLR     A
041A 75F001            MOV     B,#01H
C51 COMPILER V9.01   CJSON                                                                 06/17/2019 10:07:01 PAGE 78  

041D 120000      E     LCALL   ?C?ILDIX
0420 A9F0              MOV     R1,B
0422 FA                MOV     R2,A
0423 EF                MOV     A,R7
0424         ?C0605:
0424 120000      E     LCALL   ?C?CSTPTR
                                           ; SOURCE LINE # 240
0427         ?C0111:
                                           ; SOURCE LINE # 241
0427 900000      R     MOV     DPTR,#ptr+01H
042A E4                CLR     A
042B 75F001            MOV     B,#01H
042E 120000      E     LCALL   ?C?IILDX
                                           ; SOURCE LINE # 242
                                           ; SOURCE LINE # 243
0431 020000      R     LJMP    ?C0107
0434         ?C0108:
                                           ; SOURCE LINE # 244
0434 900000      R     MOV     DPTR,#ptr2
0437 E0                MOVX    A,@DPTR
0438 FB                MOV     R3,A
0439 A3                INC     DPTR
043A E0                MOVX    A,@DPTR
043B FA                MOV     R2,A
043C A3                INC     DPTR
043D E0                MOVX    A,@DPTR
043E F9                MOV     R1,A
043F E4                CLR     A
0440 120000      E     LCALL   ?C?CSTPTR
                                           ; SOURCE LINE # 245
0443 900000      R     MOV     DPTR,#ptr
0446 E0                MOVX    A,@DPTR
0447 FB                MOV     R3,A
0448 A3                INC     DPTR
0449 E0                MOVX    A,@DPTR
044A FA                MOV     R2,A
044B A3                INC     DPTR
044C E0                MOVX    A,@DPTR
044D F9                MOV     R1,A
044E 120000      E     LCALL   ?C?CLDPTR
0451 B4220A            CJNE    A,#022H,?C0137
0454 900000      R     MOV     DPTR,#ptr+01H
0457 E4                CLR     A
0458 75F001            MOV     B,#01H
045B 120000      E     LCALL   ?C?IILDX
045E         ?C0137:
                                           ; SOURCE LINE # 246
045E 900000      R     MOV     DPTR,#out
0461 E0                MOVX    A,@DPTR
0462 FB                MOV     R3,A
0463 A3                INC     DPTR
0464 E0                MOVX    A,@DPTR
0465 FA                MOV     R2,A
0466 A3                INC     DPTR
0467 E0                MOVX    A,@DPTR
0468 F9                MOV     R1,A
0469 C003              PUSH    AR3
046B C002              PUSH    AR2
046D C001              PUSH    AR1
046F 900000      R     MOV     DPTR,#item
0472 E0                MOVX    A,@DPTR
0473 FB                MOV     R3,A
C51 COMPILER V9.01   CJSON                                                                 06/17/2019 10:07:01 PAGE 79  

0474 A3                INC     DPTR
0475 E0                MOVX    A,@DPTR
0476 FA                MOV     R2,A
0477 A3                INC     DPTR
0478 E0                MOVX    A,@DPTR
0479 F9                MOV     R1,A
047A 90000B            MOV     DPTR,#0BH
047D 120000      E     LCALL   ?C?PSTOPTR
                                           ; SOURCE LINE # 247
0480 900000      R     MOV     DPTR,#item
0483 E0                MOVX    A,@DPTR
0484 FB                MOV     R3,A
0485 A3                INC     DPTR
0486 E0                MOVX    A,@DPTR
0487 FA                MOV     R2,A
0488 A3                INC     DPTR
0489 E0                MOVX    A,@DPTR
048A F9                MOV     R1,A
048B 900009            MOV     DPTR,#09H
048E E4                CLR     A
048F 75F004            MOV     B,#04H
0492 120000      E     LCALL   ?C?ISTOPTR
                                           ; SOURCE LINE # 248
0495 900000      R     MOV     DPTR,#ptr
0498 E0                MOVX    A,@DPTR
0499 FB                MOV     R3,A
049A A3                INC     DPTR
049B E0                MOVX    A,@DPTR
049C FA                MOV     R2,A
049D A3                INC     DPTR
049E E0                MOVX    A,@DPTR
049F F9                MOV     R1,A
                                           ; SOURCE LINE # 249
04A0         ?C0102:
04A0 22                RET     
             ; FUNCTION _parse_string (END)

             ; FUNCTION _print_string_ptr (BEGIN)
                                           ; SOURCE LINE # 252
0000 900000      R     MOV     DPTR,#str
0003 EB                MOV     A,R3
0004 F0                MOVX    @DPTR,A
0005 A3                INC     DPTR
0006 EA                MOV     A,R2
0007 F0                MOVX    @DPTR,A
0008 A3                INC     DPTR
0009 E9                MOV     A,R1
000A F0                MOVX    @DPTR,A
                                           ; SOURCE LINE # 253
                                           ; SOURCE LINE # 254
000B E4                CLR     A
000C 900000      R     MOV     DPTR,#len
000F F0                MOVX    @DPTR,A
0010 A3                INC     DPTR
0011 F0                MOVX    @DPTR,A
0012 A3                INC     DPTR
0013 F0                MOVX    @DPTR,A
0014 A3                INC     DPTR
0015 F0                MOVX    @DPTR,A
                                           ; SOURCE LINE # 256
0016 900000      R     MOV     DPTR,#ptr
0019 EB                MOV     A,R3
C51 COMPILER V9.01   CJSON                                                                 06/17/2019 10:07:01 PAGE 80  

001A F0                MOVX    @DPTR,A
001B A3                INC     DPTR
001C EA                MOV     A,R2
001D F0                MOVX    @DPTR,A
001E A3                INC     DPTR
001F E9                MOV     A,R1
0020 F0                MOVX    @DPTR,A
0021         ?C0138:
0021 900000      R     MOV     DPTR,#ptr
0024 E0                MOVX    A,@DPTR
0025 FB                MOV     R3,A
0026 A3                INC     DPTR
0027 E0                MOVX    A,@DPTR
0028 FA                MOV     R2,A
0029 A3                INC     DPTR
002A E0                MOVX    A,@DPTR
002B F9                MOV     R1,A
002C 120000      E     LCALL   ?C?CLDPTR
002F FF                MOV     R7,A
0030 6048              JZ      ?C0139
0032 D3                SETB    C
0033 6480              XRL     A,#080H
0035 9480              SUBB    A,#080H
0037 400A              JC      ?C0144
0039 120000      E     LCALL   ?C?CLDPTR
003C C3                CLR     C
003D 6480              XRL     A,#080H
003F 94A0              SUBB    A,#0A0H
0041 4017              JC      ?C0143
0043         ?C0144:
0043 900000      R     MOV     DPTR,#ptr
0046 E0                MOVX    A,@DPTR
0047 FB                MOV     R3,A
0048 A3                INC     DPTR
0049 E0                MOVX    A,@DPTR
004A FA                MOV     R2,A
004B A3                INC     DPTR
004C E0                MOVX    A,@DPTR
004D F9                MOV     R1,A
004E 120000      E     LCALL   ?C?CLDPTR
0051 FF                MOV     R7,A
0052 6422              XRL     A,#022H
0054 6004              JZ      ?C0143
0056 EF                MOV     A,R7
0057 B45C06            CJNE    A,#05CH,?C0141
005A         ?C0143:
005A 7E00              MOV     R6,#00H
005C 7F01              MOV     R7,#01H
005E 8004              SJMP    ?C0142
0060         ?C0141:
0060 7E00              MOV     R6,#00H
0062 7F00              MOV     R7,#00H
0064         ?C0142:
0064 900000      R     MOV     DPTR,#flag
0067 E0                MOVX    A,@DPTR
0068 4E                ORL     A,R6
0069 F0                MOVX    @DPTR,A
006A A3                INC     DPTR
006B E0                MOVX    A,@DPTR
006C 4F                ORL     A,R7
006D F0                MOVX    @DPTR,A
006E 900000      R     MOV     DPTR,#ptr+01H
C51 COMPILER V9.01   CJSON                                                                 06/17/2019 10:07:01 PAGE 81  

0071 E4                CLR     A
0072 75F001            MOV     B,#01H
0075 120000      E     LCALL   ?C?IILDX
0078 80A7              SJMP    ?C0138
007A         ?C0139:
                                           ; SOURCE LINE # 257
007A 900000      R     MOV     DPTR,#flag
007D E0                MOVX    A,@DPTR
007E 7002              JNZ     ?C0505
0080 A3                INC     DPTR
0081 E0                MOVX    A,@DPTR
0082         ?C0505:
0082 6003              JZ      $ + 5H
0084 020000      R     LJMP    ?C0145
                                           ; SOURCE LINE # 258
                                           ; SOURCE LINE # 259
0087 900000      R     MOV     DPTR,#str
008A A3                INC     DPTR
008B E0                MOVX    A,@DPTR
008C FA                MOV     R2,A
008D A3                INC     DPTR
008E E0                MOVX    A,@DPTR
008F AE02              MOV     R6,AR2
0091 FF                MOV     R7,A
0092 900000      R     MOV     DPTR,#ptr
0095 A3                INC     DPTR
0096 E0                MOVX    A,@DPTR
0097 FA                MOV     R2,A
0098 A3                INC     DPTR
0099 E0                MOVX    A,@DPTR
009A C3                CLR     C
009B 9F                SUBB    A,R7
009C FF                MOV     R7,A
009D EA                MOV     A,R2
009E 9E                SUBB    A,R6
009F 900000      R     MOV     DPTR,#len
00A2 F0                MOVX    @DPTR,A
00A3 A3                INC     DPTR
00A4 EF                MOV     A,R7
00A5 F0                MOVX    @DPTR,A
                                           ; SOURCE LINE # 260
00A6 900000      R     MOV     DPTR,#p
00A9 E0                MOVX    A,@DPTR
00AA FB                MOV     R3,A
00AB A3                INC     DPTR
00AC E0                MOVX    A,@DPTR
00AD FA                MOV     R2,A
00AE A3                INC     DPTR
00AF E0                MOVX    A,@DPTR
00B0 F9                MOV     R1,A
00B1 EA                MOV     A,R2
00B2 49                ORL     A,R1
00B3 4B                ORL     A,R3
00B4 6013              JZ      ?C0146
00B6 900000      R     MOV     DPTR,#len+01H
00B9 E0                MOVX    A,@DPTR
00BA 2403              ADD     A,#03H
00BC FD                MOV     R5,A
00BD 900000      R     MOV     DPTR,#len
00C0 E0                MOVX    A,@DPTR
00C1 3400              ADDC    A,#00H
00C3 FC                MOV     R4,A
C51 COMPILER V9.01   CJSON                                                                 06/17/2019 10:07:01 PAGE 82  

00C4 120000      R     LCALL   _ensure
00C7 801D              SJMP    ?C0606
00C9         ?C0146:
                                           ; SOURCE LINE # 261
00C9 900000      R     MOV     DPTR,#len+01H
00CC E0                MOVX    A,@DPTR
00CD 2403              ADD     A,#03H
00CF FF                MOV     R7,A
00D0 900000      R     MOV     DPTR,#len
00D3 E0                MOVX    A,@DPTR
00D4 3400              ADDC    A,#00H
00D6 FE                MOV     R6,A
00D7 900000      R     MOV     DPTR,#_cJSON_malloc
00DA A3                INC     DPTR
00DB E0                MOVX    A,@DPTR
00DC FA                MOV     R2,A
00DD A3                INC     DPTR
00DE E0                MOVX    A,@DPTR
00DF F582              MOV     DPL,A
00E1 8A83              MOV     DPH,R2
00E3 120000      E     LCALL   ?C?ICALL2
00E6         ?C0606:
00E6 900000      R     MOV     DPTR,#out
00E9 EB                MOV     A,R3
00EA F0                MOVX    @DPTR,A
00EB A3                INC     DPTR
00EC EA                MOV     A,R2
00ED F0                MOVX    @DPTR,A
00EE A3                INC     DPTR
00EF E9                MOV     A,R1
00F0 F0                MOVX    @DPTR,A
00F1         ?C0147:
                                           ; SOURCE LINE # 262
00F1 900000      R     MOV     DPTR,#out
00F4 E0                MOVX    A,@DPTR
00F5 FB                MOV     R3,A
00F6 A3                INC     DPTR
00F7 E0                MOVX    A,@DPTR
00F8 FA                MOV     R2,A
00F9 A3                INC     DPTR
00FA E0                MOVX    A,@DPTR
00FB F9                MOV     R1,A
00FC EA                MOV     A,R2
00FD 49                ORL     A,R1
00FE 4B                ORL     A,R3
00FF 7003              JNZ     ?C0148
0101 020000      R     LJMP    ?C0611
0104         ?C0148:
                                           ; SOURCE LINE # 263
0104 900000      R     MOV     DPTR,#out
0107 E0                MOVX    A,@DPTR
0108 F9                MOV     R1,A
0109 A3                INC     DPTR
010A E0                MOVX    A,@DPTR
010B FA                MOV     R2,A
010C A3                INC     DPTR
010D E0                MOVX    A,@DPTR
010E 900000      R     MOV     DPTR,#ptr2
0111 C9                XCH     A,R1
0112 F0                MOVX    @DPTR,A
0113 A3                INC     DPTR
0114 EA                MOV     A,R2
C51 COMPILER V9.01   CJSON                                                                 06/17/2019 10:07:01 PAGE 83  

0115 F0                MOVX    @DPTR,A
0116 A3                INC     DPTR
0117 E9                MOV     A,R1
0118 F0                MOVX    @DPTR,A
0119 900000      R     MOV     DPTR,#ptr2
011C E0                MOVX    A,@DPTR
011D FB                MOV     R3,A
011E A3                INC     DPTR
011F E4                CLR     A
0120 75F001            MOV     B,#01H
0123 120000      E     LCALL   ?C?ILDIX
0126 A9F0              MOV     R1,B
0128 FA                MOV     R2,A
0129 7422              MOV     A,#022H
012B 120000      E     LCALL   ?C?CSTPTR
                                           ; SOURCE LINE # 264
012E 900000      R     MOV     DPTR,#ptr2
0131 E0                MOVX    A,@DPTR
0132 FB                MOV     R3,A
0133 A3                INC     DPTR
0134 E0                MOVX    A,@DPTR
0135 FA                MOV     R2,A
0136 A3                INC     DPTR
0137 E0                MOVX    A,@DPTR
0138 F8                MOV     R0,A
0139 AC02              MOV     R4,AR2
013B AD03              MOV     R5,AR3
013D 900000      R     MOV     DPTR,#str
0140 E0                MOVX    A,@DPTR
0141 FB                MOV     R3,A
0142 A3                INC     DPTR
0143 E0                MOVX    A,@DPTR
0144 FA                MOV     R2,A
0145 A3                INC     DPTR
0146 E0                MOVX    A,@DPTR
0147 F9                MOV     R1,A
0148 120000      E     LCALL   ?C?STRCPY
                                           ; SOURCE LINE # 265
014B 900000      R     MOV     DPTR,#ptr2
014E E0                MOVX    A,@DPTR
014F FB                MOV     R3,A
0150 A3                INC     DPTR
0151 E0                MOVX    A,@DPTR
0152 FA                MOV     R2,A
0153 A3                INC     DPTR
0154 E0                MOVX    A,@DPTR
0155 F9                MOV     R1,A
0156 900000      R     MOV     DPTR,#len
0159 E0                MOVX    A,@DPTR
015A FE                MOV     R6,A
015B A3                INC     DPTR
015C E0                MOVX    A,@DPTR
015D FF                MOV     R7,A
015E F582              MOV     DPL,A
0160 8E83              MOV     DPH,R6
0162 7422              MOV     A,#022H
0164 120000      E     LCALL   ?C?CSTOPTR
                                           ; SOURCE LINE # 266
0167 8F82              MOV     DPL,R7
0169 8E83              MOV     DPH,R6
016B A3                INC     DPTR
016C E4                CLR     A
C51 COMPILER V9.01   CJSON                                                                 06/17/2019 10:07:01 PAGE 84  

016D 120000      E     LCALL   ?C?CSTOPTR
                                           ; SOURCE LINE # 267
0170 020000      R     LJMP    ?C0612
                                           ; SOURCE LINE # 268
0173         ?C0145:
                                           ; SOURCE LINE # 270
0173 900000      R     MOV     DPTR,#str
0176 E0                MOVX    A,@DPTR
0177 FB                MOV     R3,A
0178 A3                INC     DPTR
0179 E0                MOVX    A,@DPTR
017A FA                MOV     R2,A
017B A3                INC     DPTR
017C E0                MOVX    A,@DPTR
017D F9                MOV     R1,A
017E EA                MOV     A,R2
017F 49                ORL     A,R1
0180 4B                ORL     A,R3
0181 7063              JNZ     ?C0150
                                           ; SOURCE LINE # 271
                                           ; SOURCE LINE # 272
0183 A3                INC     DPTR
0184 E0                MOVX    A,@DPTR
0185 FB                MOV     R3,A
0186 A3                INC     DPTR
0187 E0                MOVX    A,@DPTR
0188 FA                MOV     R2,A
0189 A3                INC     DPTR
018A E0                MOVX    A,@DPTR
018B F9                MOV     R1,A
018C EA                MOV     A,R2
018D 49                ORL     A,R1
018E 4B                ORL     A,R3
018F 6009              JZ      ?C0151
0191 7D03              MOV     R5,#03H
0193 7C00              MOV     R4,#00H
0195 120000      R     LCALL   _ensure
0198 8013              SJMP    ?C0607
019A         ?C0151:
                                           ; SOURCE LINE # 273
019A 900000      R     MOV     DPTR,#_cJSON_malloc
019D A3                INC     DPTR
019E E0                MOVX    A,@DPTR
019F FA                MOV     R2,A
01A0 A3                INC     DPTR
01A1 E0                MOVX    A,@DPTR
01A2 F582              MOV     DPL,A
01A4 8A83              MOV     DPH,R2
01A6 7F03              MOV     R7,#03H
01A8 7E00              MOV     R6,#00H
01AA 120000      E     LCALL   ?C?ICALL2
01AD         ?C0607:
01AD 900000      R     MOV     DPTR,#out
01B0 EB                MOV     A,R3
01B1 F0                MOVX    @DPTR,A
01B2 A3                INC     DPTR
01B3 EA                MOV     A,R2
01B4 F0                MOVX    @DPTR,A
01B5 A3                INC     DPTR
01B6 E9                MOV     A,R1
01B7 F0                MOVX    @DPTR,A
01B8         ?C0152:
C51 COMPILER V9.01   CJSON                                                                 06/17/2019 10:07:01 PAGE 85  

                                           ; SOURCE LINE # 274
01B8 900000      R     MOV     DPTR,#out
01BB E0                MOVX    A,@DPTR
01BC FB                MOV     R3,A
01BD A3                INC     DPTR
01BE E0                MOVX    A,@DPTR
01BF FA                MOV     R2,A
01C0 A3                INC     DPTR
01C1 E0                MOVX    A,@DPTR
01C2 F9                MOV     R1,A
01C3 EA                MOV     A,R2
01C4 49                ORL     A,R1
01C5 4B                ORL     A,R3
01C6 7003              JNZ     ?C0153
01C8         ?C0609:
01C8 020000      R     LJMP    ?C0611
01CB         ?C0153:
                                           ; SOURCE LINE # 275
01CB 900000      R     MOV     DPTR,#out
01CE E0                MOVX    A,@DPTR
01CF FB                MOV     R3,A
01D0 A3                INC     DPTR
01D1 E0                MOVX    A,@DPTR
01D2 FA                MOV     R2,A
01D3 A3                INC     DPTR
01D4 E0                MOVX    A,@DPTR
01D5 F8                MOV     R0,A
01D6 AC02              MOV     R4,AR2
01D8 AD03              MOV     R5,AR3
01DA 7BFF              MOV     R3,#0FFH
01DC 7A00        R     MOV     R2,#HIGH ?SC_16
01DE 7900        R     MOV     R1,#LOW ?SC_16
01E0 120000      E     LCALL   ?C?STRCPY
                                           ; SOURCE LINE # 276
01E3         ?C0610:
01E3 020000      R     LJMP    ?C0612
                                           ; SOURCE LINE # 277
01E6         ?C0150:
                                           ; SOURCE LINE # 278
01E6 900000      R     MOV     DPTR,#str
01E9 E0                MOVX    A,@DPTR
01EA F9                MOV     R1,A
01EB A3                INC     DPTR
01EC E0                MOVX    A,@DPTR
01ED FA                MOV     R2,A
01EE A3                INC     DPTR
01EF E0                MOVX    A,@DPTR
01F0 900000      R     MOV     DPTR,#ptr
01F3 C9                XCH     A,R1
01F4 F0                MOVX    @DPTR,A
01F5 A3                INC     DPTR
01F6 EA                MOV     A,R2
01F7 F0                MOVX    @DPTR,A
01F8 A3                INC     DPTR
01F9 E9                MOV     A,R1
01FA F0                MOVX    @DPTR,A
01FB         ?C0154:
01FB 900000      R     MOV     DPTR,#ptr
01FE E0                MOVX    A,@DPTR
01FF FB                MOV     R3,A
0200 A3                INC     DPTR
0201 E0                MOVX    A,@DPTR
C51 COMPILER V9.01   CJSON                                                                 06/17/2019 10:07:01 PAGE 86  

0202 FA                MOV     R2,A
0203 A3                INC     DPTR
0204 E0                MOVX    A,@DPTR
0205 F9                MOV     R1,A
0206 120000      E     LCALL   ?C?CLDPTR
0209 900000      R     MOV     DPTR,#token
020C F0                MOVX    @DPTR,A
020D 6054              JZ      ?C0155
020F 900000      R     MOV     DPTR,#len
0212 E4                CLR     A
0213 75F001            MOV     B,#01H
0216 120000      E     LCALL   ?C?IILDX
0219 45F0              ORL     A,B
021B 6046              JZ      ?C0155
021D 7BFF              MOV     R3,#0FFH
021F 7A00        R     MOV     R2,#HIGH ?SC_19
0221 7900        R     MOV     R1,#LOW ?SC_19
0223 900000      R     MOV     DPTR,#token
0226 E0                MOVX    A,@DPTR
0227 FD                MOV     R5,A
0228 120000      E     LCALL   _strchr
022B EA                MOV     A,R2
022C 49                ORL     A,R1
022D 4B                ORL     A,R3
022E 6010              JZ      ?C0156
0230 900000      R     MOV     DPTR,#len+01H
0233 E0                MOVX    A,@DPTR
0234 04                INC     A
0235 F0                MOVX    @DPTR,A
0236 701F              JNZ     ?C0157
0238 900000      R     MOV     DPTR,#len
023B E0                MOVX    A,@DPTR
023C 04                INC     A
023D F0                MOVX    @DPTR,A
023E         ?C0506:
023E 8017              SJMP    ?C0157
0240         ?C0156:
0240 900000      R     MOV     DPTR,#token
0243 E0                MOVX    A,@DPTR
0244 C3                CLR     C
0245 9420              SUBB    A,#020H
0247 500E              JNC     ?C0157
0249 900000      R     MOV     DPTR,#len+01H
024C E0                MOVX    A,@DPTR
024D 2405              ADD     A,#05H
024F F0                MOVX    @DPTR,A
0250 900000      R     MOV     DPTR,#len
0253 E0                MOVX    A,@DPTR
0254 3400              ADDC    A,#00H
0256 F0                MOVX    @DPTR,A
0257         ?C0157:
0257 900000      R     MOV     DPTR,#ptr+01H
025A E4                CLR     A
025B 75F001            MOV     B,#01H
025E 120000      E     LCALL   ?C?IILDX
0261 8098              SJMP    ?C0154
0263         ?C0155:
                                           ; SOURCE LINE # 280
0263 900000      R     MOV     DPTR,#p
0266 E0                MOVX    A,@DPTR
0267 FB                MOV     R3,A
0268 A3                INC     DPTR
C51 COMPILER V9.01   CJSON                                                                 06/17/2019 10:07:01 PAGE 87  

0269 E0                MOVX    A,@DPTR
026A FA                MOV     R2,A
026B A3                INC     DPTR
026C E0                MOVX    A,@DPTR
026D F9                MOV     R1,A
026E EA                MOV     A,R2
026F 49                ORL     A,R1
0270 4B                ORL     A,R3
0271 6013              JZ      ?C0159
0273 900000      R     MOV     DPTR,#len+01H
0276 E0                MOVX    A,@DPTR
0277 2403              ADD     A,#03H
0279 FD                MOV     R5,A
027A 900000      R     MOV     DPTR,#len
027D E0                MOVX    A,@DPTR
027E 3400              ADDC    A,#00H
0280 FC                MOV     R4,A
0281 120000      R     LCALL   _ensure
0284 801D              SJMP    ?C0608
0286         ?C0159:
                                           ; SOURCE LINE # 281
0286 900000      R     MOV     DPTR,#len+01H
0289 E0                MOVX    A,@DPTR
028A 2403              ADD     A,#03H
028C FF                MOV     R7,A
028D 900000      R     MOV     DPTR,#len
0290 E0                MOVX    A,@DPTR
0291 3400              ADDC    A,#00H
0293 FE                MOV     R6,A
0294 900000      R     MOV     DPTR,#_cJSON_malloc
0297 A3                INC     DPTR
0298 E0                MOVX    A,@DPTR
0299 FA                MOV     R2,A
029A A3                INC     DPTR
029B E0                MOVX    A,@DPTR
029C F582              MOV     DPL,A
029E 8A83              MOV     DPH,R2
02A0 120000      E     LCALL   ?C?ICALL2
02A3         ?C0608:
02A3 900000      R     MOV     DPTR,#out
02A6 EB                MOV     A,R3
02A7 F0                MOVX    @DPTR,A
02A8 A3                INC     DPTR
02A9 EA                MOV     A,R2
02AA F0                MOVX    @DPTR,A
02AB A3                INC     DPTR
02AC E9                MOV     A,R1
02AD F0                MOVX    @DPTR,A
02AE         ?C0160:
                                           ; SOURCE LINE # 282
02AE 900000      R     MOV     DPTR,#out
02B1 E0                MOVX    A,@DPTR
02B2 FB                MOV     R3,A
02B3 A3                INC     DPTR
02B4 E0                MOVX    A,@DPTR
02B5 FA                MOV     R2,A
02B6 A3                INC     DPTR
02B7 E0                MOVX    A,@DPTR
02B8 F9                MOV     R1,A
02B9 EA                MOV     A,R2
02BA 49                ORL     A,R1
02BB 4B                ORL     A,R3
C51 COMPILER V9.01   CJSON                                                                 06/17/2019 10:07:01 PAGE 88  

02BC 7004              JNZ     ?C0161
02BE         ?C0611:
02BE FB                MOV     R3,A
02BF FA                MOV     R2,A
02C0 F9                MOV     R1,A
02C1 22                RET     
02C2         ?C0161:
                                           ; SOURCE LINE # 284
02C2 900000      R     MOV     DPTR,#out
02C5 E0                MOVX    A,@DPTR
02C6 F9                MOV     R1,A
02C7 A3                INC     DPTR
02C8 E0                MOVX    A,@DPTR
02C9 FA                MOV     R2,A
02CA A3                INC     DPTR
02CB E0                MOVX    A,@DPTR
02CC 900000      R     MOV     DPTR,#ptr2
02CF C9                XCH     A,R1
02D0 F0                MOVX    @DPTR,A
02D1 A3                INC     DPTR
02D2 EA                MOV     A,R2
02D3 F0                MOVX    @DPTR,A
02D4 A3                INC     DPTR
02D5 E9                MOV     A,R1
02D6 F0                MOVX    @DPTR,A
02D7 900000      R     MOV     DPTR,#str
02DA E0                MOVX    A,@DPTR
02DB F9                MOV     R1,A
02DC A3                INC     DPTR
02DD E0                MOVX    A,@DPTR
02DE FA                MOV     R2,A
02DF A3                INC     DPTR
02E0 E0                MOVX    A,@DPTR
02E1 900000      R     MOV     DPTR,#ptr
02E4 C9                XCH     A,R1
02E5 F0                MOVX    @DPTR,A
02E6 A3                INC     DPTR
02E7 EA                MOV     A,R2
02E8 F0                MOVX    @DPTR,A
02E9 A3                INC     DPTR
02EA E9                MOV     A,R1
02EB F0                MOVX    @DPTR,A
                                           ; SOURCE LINE # 285
02EC A3                INC     DPTR
02ED 020000      R     LJMP    ?C0613
02F0         ?C0162:
                                           ; SOURCE LINE # 286
02F0 900000      R     MOV     DPTR,#ptr
02F3 E0                MOVX    A,@DPTR
02F4 FB                MOV     R3,A
02F5 A3                INC     DPTR
02F6 E0                MOVX    A,@DPTR
02F7 FA                MOV     R2,A
02F8 A3                INC     DPTR
02F9 E0                MOVX    A,@DPTR
02FA F9                MOV     R1,A
02FB 120000      E     LCALL   ?C?CLDPTR
02FE FF                MOV     R7,A
02FF 7003              JNZ     $ + 5H
0301 020000      R     LJMP    ?C0163
                                           ; SOURCE LINE # 287
                                           ; SOURCE LINE # 288
C51 COMPILER V9.01   CJSON                                                                 06/17/2019 10:07:01 PAGE 89  

0304 D3                SETB    C
0305 941F              SUBB    A,#01FH
0307 4033              JC      ?C0164
0309 120000      E     LCALL   ?C?CLDPTR
030C FF                MOV     R7,A
030D 6422              XRL     A,#022H
030F 602B              JZ      ?C0164
0311 EF                MOV     A,R7
0312 645C              XRL     A,#05CH
0314 6026              JZ      ?C0164
0316 900000      R     MOV     DPTR,#ptr
0319 A3                INC     DPTR
031A E4                CLR     A
031B 75F001            MOV     B,#01H
031E 120000      E     LCALL   ?C?ILDIX
0321 A9F0              MOV     R1,B
0323 FA                MOV     R2,A
0324 120000      E     LCALL   ?C?CLDPTR
0327 FF                MOV     R7,A
0328 900000      R     MOV     DPTR,#ptr2
032B E0                MOVX    A,@DPTR
032C FB                MOV     R3,A
032D A3                INC     DPTR
032E E4                CLR     A
032F 75F001            MOV     B,#01H
0332 120000      E     LCALL   ?C?ILDIX
0335 A9F0              MOV     R1,B
0337 FA                MOV     R2,A
0338 EF                MOV     A,R7
0339 020000      R     LJMP    ?C0620
033C         ?C0164:
                                           ; SOURCE LINE # 290
                                           ; SOURCE LINE # 291
033C 900000      R     MOV     DPTR,#ptr2
033F E0                MOVX    A,@DPTR
0340 FB                MOV     R3,A
0341 A3                INC     DPTR
0342 E4                CLR     A
0343 75F001            MOV     B,#01H
0346 120000      E     LCALL   ?C?ILDIX
0349 A9F0              MOV     R1,B
034B FA                MOV     R2,A
034C 745C              MOV     A,#05CH
034E 120000      E     LCALL   ?C?CSTPTR
                                           ; SOURCE LINE # 292
0351 900000      R     MOV     DPTR,#ptr
0354 E0                MOVX    A,@DPTR
0355 FB                MOV     R3,A
0356 A3                INC     DPTR
0357 E4                CLR     A
0358 75F001            MOV     B,#01H
035B 120000      E     LCALL   ?C?ILDIX
035E A9F0              MOV     R1,B
0360 FA                MOV     R2,A
0361 120000      E     LCALL   ?C?CLDPTR
0364 900000      R     MOV     DPTR,#token
0367 F0                MOVX    @DPTR,A
0368 24DE              ADD     A,#0DEH
036A 6042              JZ      ?C0168
036C 24C6              ADD     A,#0C6H
036E 602A              JZ      ?C0167
0370 2454              ADD     A,#054H
C51 COMPILER V9.01   CJSON                                                                 06/17/2019 10:07:01 PAGE 90  

0372 B40600            CJNE    A,#06H,?C0507
0375         ?C0507:
0375 4003              JC      $ + 5H
0377 020000      R     LJMP    ?C0174
037A 900000      R     MOV     DPTR,#?C0508
037D 75F003            MOV     B,#03H
0380 A4                MUL     AB
0381 C583              XCH     A,DPH
0383 25F0              ADD     A,B
0385 C583              XCH     A,DPH
0387 73                JMP     @A+DPTR
0388         ?C0508:
0388 020000      R     LJMP    ?C0169
038B 020000      R     LJMP    ?C0173
038E 020000      R     LJMP    ?C0171
0391 020000      R     LJMP    ?C0174
0394 020000      R     LJMP    ?C0170
0397 020000      R     LJMP    ?C0172
                                           ; SOURCE LINE # 293
                                           ; SOURCE LINE # 294
039A         ?C0167:
039A 900000      R     MOV     DPTR,#ptr2
039D E0                MOVX    A,@DPTR
039E FB                MOV     R3,A
039F A3                INC     DPTR
03A0 E4                CLR     A
03A1 75F001            MOV     B,#01H
03A4 120000      E     LCALL   ?C?ILDIX
03A7 A9F0              MOV     R1,B
03A9 FA                MOV     R2,A
03AA 745C              MOV     A,#05CH
03AC         ?C0614:
03AC 8076              SJMP    ?C0620
                                           ; SOURCE LINE # 295
03AE         ?C0168:
03AE 900000      R     MOV     DPTR,#ptr2
03B1         ?C0613:
03B1 E0                MOVX    A,@DPTR
03B2 FB                MOV     R3,A
03B3 A3                INC     DPTR
03B4 E4                CLR     A
03B5 75F001            MOV     B,#01H
03B8 120000      E     LCALL   ?C?ILDIX
03BB A9F0              MOV     R1,B
03BD FA                MOV     R2,A
03BE 7422              MOV     A,#022H
03C0         ?C0615:
03C0 8062              SJMP    ?C0620
                                           ; SOURCE LINE # 296
03C2         ?C0169:
03C2 900000      R     MOV     DPTR,#ptr2
03C5 E0                MOVX    A,@DPTR
03C6 FB                MOV     R3,A
03C7 A3                INC     DPTR
03C8 E4                CLR     A
03C9 75F001            MOV     B,#01H
03CC 120000      E     LCALL   ?C?ILDIX
03CF A9F0              MOV     R1,B
03D1 FA                MOV     R2,A
03D2 7462              MOV     A,#062H
03D4         ?C0616:
03D4 804E              SJMP    ?C0620
C51 COMPILER V9.01   CJSON                                                                 06/17/2019 10:07:01 PAGE 91  

                                           ; SOURCE LINE # 297
03D6         ?C0170:
03D6 900000      R     MOV     DPTR,#ptr2
03D9 E0                MOVX    A,@DPTR
03DA FB                MOV     R3,A
03DB A3                INC     DPTR
03DC E4                CLR     A
03DD 75F001            MOV     B,#01H
03E0 120000      E     LCALL   ?C?ILDIX
03E3 A9F0              MOV     R1,B
03E5 FA                MOV     R2,A
03E6 7466              MOV     A,#066H
03E8         ?C0617:
03E8 803A              SJMP    ?C0620
                                           ; SOURCE LINE # 298
03EA         ?C0171:
03EA 900000      R     MOV     DPTR,#ptr2
03ED E0                MOVX    A,@DPTR
03EE FB                MOV     R3,A
03EF A3                INC     DPTR
03F0 E4                CLR     A
03F1 75F001            MOV     B,#01H
03F4 120000      E     LCALL   ?C?ILDIX
03F7 A9F0              MOV     R1,B
03F9 FA                MOV     R2,A
03FA 746E              MOV     A,#06EH
03FC         ?C0618:
03FC 8026              SJMP    ?C0620
                                           ; SOURCE LINE # 299
03FE         ?C0172:
03FE 900000      R     MOV     DPTR,#ptr2
0401 E0                MOVX    A,@DPTR
0402 FB                MOV     R3,A
0403 A3                INC     DPTR
0404 E4                CLR     A
0405 75F001            MOV     B,#01H
0408 120000      E     LCALL   ?C?ILDIX
040B A9F0              MOV     R1,B
040D FA                MOV     R2,A
040E 7472              MOV     A,#072H
0410         ?C0619:
0410 8012              SJMP    ?C0620
                                           ; SOURCE LINE # 300
0412         ?C0173:
0412 900000      R     MOV     DPTR,#ptr2
0415 E0                MOVX    A,@DPTR
0416 FB                MOV     R3,A
0417 A3                INC     DPTR
0418 E4                CLR     A
0419 75F001            MOV     B,#01H
041C 120000      E     LCALL   ?C?ILDIX
041F A9F0              MOV     R1,B
0421 FA                MOV     R2,A
0422 7474              MOV     A,#074H
0424         ?C0620:
0424 120000      E     LCALL   ?C?CSTPTR
0427 020000      R     LJMP    ?C0162
                                           ; SOURCE LINE # 301
042A         ?C0174:
042A 900000      E     MOV     DPTR,#?_sprintf?BYTE+03H
042D 74FF              MOV     A,#0FFH
042F F0                MOVX    @DPTR,A
C51 COMPILER V9.01   CJSON                                                                 06/17/2019 10:07:01 PAGE 92  

0430 A3                INC     DPTR
0431 7400        R     MOV     A,#HIGH ?SC_27
0433 F0                MOVX    @DPTR,A
0434 A3                INC     DPTR
0435 7400        R     MOV     A,#LOW ?SC_27
0437 F0                MOVX    @DPTR,A
0438 900000      R     MOV     DPTR,#token
043B E0                MOVX    A,@DPTR
043C 900000      E     MOV     DPTR,#?_sprintf?BYTE+06H
043F F0                MOVX    @DPTR,A
0440 900000      R     MOV     DPTR,#ptr2
0443 E0                MOVX    A,@DPTR
0444 FB                MOV     R3,A
0445 A3                INC     DPTR
0446 E0                MOVX    A,@DPTR
0447 FA                MOV     R2,A
0448 A3                INC     DPTR
0449 E0                MOVX    A,@DPTR
044A F9                MOV     R1,A
044B 120000      E     LCALL   _sprintf
044E 900000      R     MOV     DPTR,#ptr2+01H
0451 E4                CLR     A
0452 75F005            MOV     B,#05H
0455 120000      E     LCALL   ?C?IILDX
0458 020000      R     LJMP    ?C0162
                                           ; SOURCE LINE # 302
                                           ; SOURCE LINE # 303
                                           ; SOURCE LINE # 304
045B         ?C0163:
                                           ; SOURCE LINE # 305
045B 900000      R     MOV     DPTR,#ptr2
045E E0                MOVX    A,@DPTR
045F FB                MOV     R3,A
0460 A3                INC     DPTR
0461 E4                CLR     A
0462 75F001            MOV     B,#01H
0465 120000      E     LCALL   ?C?ILDIX
0468 A9F0              MOV     R1,B
046A FA                MOV     R2,A
046B 7422              MOV     A,#022H
046D 120000      E     LCALL   ?C?CSTPTR
0470 900000      R     MOV     DPTR,#ptr2
0473 E0                MOVX    A,@DPTR
0474 FB                MOV     R3,A
0475 A3                INC     DPTR
0476 E4                CLR     A
0477 75F001            MOV     B,#01H
047A 120000      E     LCALL   ?C?ILDIX
047D A9F0              MOV     R1,B
047F FA                MOV     R2,A
0480 E4                CLR     A
0481 120000      E     LCALL   ?C?CSTPTR
                                           ; SOURCE LINE # 306
0484         ?C0612:
0484 900000      R     MOV     DPTR,#out
0487 E0                MOVX    A,@DPTR
0488 FB                MOV     R3,A
0489 A3                INC     DPTR
048A E0                MOVX    A,@DPTR
048B FA                MOV     R2,A
048C A3                INC     DPTR
048D E0                MOVX    A,@DPTR
C51 COMPILER V9.01   CJSON                                                                 06/17/2019 10:07:01 PAGE 93  

048E F9                MOV     R1,A
                                           ; SOURCE LINE # 307
048F         ?C0149:
048F 22                RET     
             ; FUNCTION _print_string_ptr (END)

             ; FUNCTION _print_string (BEGIN)
                                           ; SOURCE LINE # 309
;---- Variable 'item' assigned to Register 'R1/R2/R3' ----
0000 90000B            MOV     DPTR,#0BH
0003 120000      E     LCALL   ?C?PLDOPTR
0006 C002              PUSH    AR2
0008 C001              PUSH    AR1
000A 900000      R     MOV     DPTR,#p
000D E0                MOVX    A,@DPTR
000E F9                MOV     R1,A
000F A3                INC     DPTR
0010 E0                MOVX    A,@DPTR
0011 FA                MOV     R2,A
0012 A3                INC     DPTR
0013 E0                MOVX    A,@DPTR
0014 900000      R     MOV     DPTR,#?_print_string_ptr?BYTE+03H
0017 C9                XCH     A,R1
0018 F0                MOVX    @DPTR,A
0019 A3                INC     DPTR
001A EA                MOV     A,R2
001B F0                MOVX    @DPTR,A
001C A3                INC     DPTR
001D E9                MOV     A,R1
001E F0                MOVX    @DPTR,A
001F D001              POP     AR1
0021 D002              POP     AR2
0023 120000      R     LCALL   _print_string_ptr
0026         ?C0175:
0026 22                RET     
             ; FUNCTION _print_string (END)

             ; FUNCTION L?0681 (BEGIN)
0000         L?0682:
0000 900000      R     MOV     DPTR,#value
0003         L?0683:
0003 E0                MOVX    A,@DPTR
0004 FB                MOV     R3,A
0005 A3                INC     DPTR
0006 E0                MOVX    A,@DPTR
0007 FA                MOV     R2,A
0008 A3                INC     DPTR
0009 E0                MOVX    A,@DPTR
000A 2401              ADD     A,#01H
000C F9                MOV     R1,A
000D E4                CLR     A
000E 3A                ADDC    A,R2
000F FA                MOV     R2,A
             ; FUNCTION _skip (BEGIN)
                                           ; SOURCE LINE # 320
;---- Variable 'in' assigned to Register 'R1/R2/R3' ----
0010         ?C0176:
0010 EA                MOV     A,R2
0011 49                ORL     A,R1
0012 4B                ORL     A,R3
0013 6013              JZ      ?C0177
0015 120000      E     LCALL   ?C?CLDPTR
C51 COMPILER V9.01   CJSON                                                                 06/17/2019 10:07:01 PAGE 94  

0018 600E              JZ      ?C0177
001A D3                SETB    C
001B 9420              SUBB    A,#020H
001D 5009              JNC     ?C0177
001F 7401              MOV     A,#01H
0021 29                ADD     A,R1
0022 F9                MOV     R1,A
0023 E4                CLR     A
0024 3A                ADDC    A,R2
0025 FA                MOV     R2,A
0026 80E8              SJMP    ?C0176
0028         ?C0177:
0028         ?C0178:
0028 22                RET     
             ; FUNCTION _skip (END)

             ; FUNCTION _cJSON_ParseWithOpts (BEGIN)
                                           ; SOURCE LINE # 323
0000 900000      R     MOV     DPTR,#value
0003 EB                MOV     A,R3
0004 F0                MOVX    @DPTR,A
0005 A3                INC     DPTR
0006 EA                MOV     A,R2
0007 F0                MOVX    @DPTR,A
0008 A3                INC     DPTR
0009 E9                MOV     A,R1
000A F0                MOVX    @DPTR,A
                                           ; SOURCE LINE # 324
                                           ; SOURCE LINE # 325
000B 900000      R     MOV     DPTR,#end
000E E4                CLR     A
000F F0                MOVX    @DPTR,A
0010 A3                INC     DPTR
0011 F0                MOVX    @DPTR,A
0012 A3                INC     DPTR
0013 F0                MOVX    @DPTR,A
                                           ; SOURCE LINE # 326
0014 120000      R     LCALL   cJSON_New_Item
0017 900000      R     MOV     DPTR,#c
001A EB                MOV     A,R3
001B F0                MOVX    @DPTR,A
001C A3                INC     DPTR
001D EA                MOV     A,R2
001E F0                MOVX    @DPTR,A
001F A3                INC     DPTR
0020 E9                MOV     A,R1
0021 F0                MOVX    @DPTR,A
                                           ; SOURCE LINE # 327
0022 900000      R     MOV     DPTR,#ep
0025 E4                CLR     A
0026 F0                MOVX    @DPTR,A
0027 A3                INC     DPTR
0028 F0                MOVX    @DPTR,A
0029 A3                INC     DPTR
002A F0                MOVX    @DPTR,A
                                           ; SOURCE LINE # 328
002B 900000      R     MOV     DPTR,#c
002E E0                MOVX    A,@DPTR
002F FB                MOV     R3,A
0030 A3                INC     DPTR
0031 E0                MOVX    A,@DPTR
0032 FA                MOV     R2,A
C51 COMPILER V9.01   CJSON                                                                 06/17/2019 10:07:01 PAGE 95  

0033 A3                INC     DPTR
0034 E0                MOVX    A,@DPTR
0035 F9                MOV     R1,A
0036 EA                MOV     A,R2
0037 49                ORL     A,R1
0038 4B                ORL     A,R3
0039 7004              JNZ     ?C0179
003B FB                MOV     R3,A
003C FA                MOV     R2,A
003D F9                MOV     R1,A
003E 22                RET     
003F         ?C0179:
                                           ; SOURCE LINE # 330
003F 900000      R     MOV     DPTR,#value
0042 E0                MOVX    A,@DPTR
0043 FB                MOV     R3,A
0044 A3                INC     DPTR
0045 E0                MOVX    A,@DPTR
0046 FA                MOV     R2,A
0047 A3                INC     DPTR
0048 E0                MOVX    A,@DPTR
0049 F9                MOV     R1,A
004A 120000      R     LCALL   _skip
004D 900000      R     MOV     DPTR,#?_parse_value?BYTE+03H
0050 EB                MOV     A,R3
0051 F0                MOVX    @DPTR,A
0052 A3                INC     DPTR
0053 EA                MOV     A,R2
0054 F0                MOVX    @DPTR,A
0055 A3                INC     DPTR
0056 E9                MOV     A,R1
0057 F0                MOVX    @DPTR,A
0058 900000      R     MOV     DPTR,#c
005B 120000      R     LCALL   L?0685
005E 900000      R     MOV     DPTR,#end
0061 EB                MOV     A,R3
0062 F0                MOVX    @DPTR,A
0063 A3                INC     DPTR
0064 EA                MOV     A,R2
0065 F0                MOVX    @DPTR,A
0066 A3                INC     DPTR
0067 E9                MOV     A,R1
0068 F0                MOVX    @DPTR,A
                                           ; SOURCE LINE # 331
0069 4A                ORL     A,R2
006A 4B                ORL     A,R3
006B 7006              JNZ     ?C0181
006D A3                INC     DPTR
006E 120000      R     LCALL   L?0694
0071 8043              SJMP    ?C0621
0073         ?C0181:
                                           ; SOURCE LINE # 334
0073 900000      R     MOV     DPTR,#require_null_terminated
0076 E0                MOVX    A,@DPTR
0077 7002              JNZ     ?C0509
0079 A3                INC     DPTR
007A E0                MOVX    A,@DPTR
007B         ?C0509:
007B 6040              JZ      ?C0182
007D 900000      R     MOV     DPTR,#end
0080 E0                MOVX    A,@DPTR
0081 FB                MOV     R3,A
C51 COMPILER V9.01   CJSON                                                                 06/17/2019 10:07:01 PAGE 96  

0082 A3                INC     DPTR
0083 E0                MOVX    A,@DPTR
0084 FA                MOV     R2,A
0085 A3                INC     DPTR
0086 E0                MOVX    A,@DPTR
0087 F9                MOV     R1,A
0088 120000      R     LCALL   _skip
008B 900000      R     MOV     DPTR,#end
008E EB                MOV     A,R3
008F F0                MOVX    @DPTR,A
0090 A3                INC     DPTR
0091 EA                MOV     A,R2
0092 F0                MOVX    @DPTR,A
0093 A3                INC     DPTR
0094 E9                MOV     A,R1
0095 F0                MOVX    @DPTR,A
0096 120000      E     LCALL   ?C?CLDPTR
0099 6022              JZ      ?C0182
009B 900000      R     MOV     DPTR,#c
009E 120000      R     LCALL   L?0694
00A1 900000      R     MOV     DPTR,#end
00A4 E0                MOVX    A,@DPTR
00A5 F9                MOV     R1,A
00A6 A3                INC     DPTR
00A7 E0                MOVX    A,@DPTR
00A8 FA                MOV     R2,A
00A9 A3                INC     DPTR
00AA E0                MOVX    A,@DPTR
00AB 900000      R     MOV     DPTR,#ep
00AE C9                XCH     A,R1
00AF F0                MOVX    @DPTR,A
00B0 A3                INC     DPTR
00B1 EA                MOV     A,R2
00B2 F0                MOVX    @DPTR,A
00B3 A3                INC     DPTR
00B4 E9                MOV     A,R1
00B5 F0                MOVX    @DPTR,A
00B6         ?C0621:
00B6 7B00              MOV     R3,#00H
00B8 7A00              MOV     R2,#00H
00BA 7900              MOV     R1,#00H
00BC 22                RET     
00BD         ?C0182:
                                           ; SOURCE LINE # 335
00BD 900000      R     MOV     DPTR,#return_parse_end
00C0 E0                MOVX    A,@DPTR
00C1 FB                MOV     R3,A
00C2 A3                INC     DPTR
00C3 E0                MOVX    A,@DPTR
00C4 FA                MOV     R2,A
00C5 A3                INC     DPTR
00C6 E0                MOVX    A,@DPTR
00C7 F9                MOV     R1,A
00C8 EA                MOV     A,R2
00C9 49                ORL     A,R1
00CA 4B                ORL     A,R3
00CB 601F              JZ      ?C0184
00CD 900000      R     MOV     DPTR,#end
00D0 E0                MOVX    A,@DPTR
00D1 FB                MOV     R3,A
00D2 A3                INC     DPTR
00D3 E0                MOVX    A,@DPTR
C51 COMPILER V9.01   CJSON                                                                 06/17/2019 10:07:01 PAGE 97  

00D4 FA                MOV     R2,A
00D5 A3                INC     DPTR
00D6 E0                MOVX    A,@DPTR
00D7 F9                MOV     R1,A
00D8 C003              PUSH    AR3
00DA C002              PUSH    AR2
00DC C001              PUSH    AR1
00DE 900000      R     MOV     DPTR,#return_parse_end
00E1 E0                MOVX    A,@DPTR
00E2 FB                MOV     R3,A
00E3 A3                INC     DPTR
00E4 E0                MOVX    A,@DPTR
00E5 FA                MOV     R2,A
00E6 A3                INC     DPTR
00E7 E0                MOVX    A,@DPTR
00E8 F9                MOV     R1,A
00E9 120000      E     LCALL   ?C?PSTPTR
00EC         ?C0184:
                                           ; SOURCE LINE # 336
00EC 900000      R     MOV     DPTR,#c
00EF E0                MOVX    A,@DPTR
00F0 FB                MOV     R3,A
00F1 A3                INC     DPTR
00F2 E0                MOVX    A,@DPTR
00F3 FA                MOV     R2,A
00F4 A3                INC     DPTR
00F5 E0                MOVX    A,@DPTR
00F6 F9                MOV     R1,A
                                           ; SOURCE LINE # 337
00F7         ?C0180:
00F7 22                RET     
             ; FUNCTION _cJSON_ParseWithOpts (END)

             ; FUNCTION _cJSON_Parse (BEGIN)
                                           ; SOURCE LINE # 339
;---- Variable 'value' assigned to Register 'R1/R2/R3' ----
0000 900000      R     MOV     DPTR,#?_cJSON_ParseWithOpts?BYTE+03H
0003 E4                CLR     A
0004 F0                MOVX    @DPTR,A
0005 A3                INC     DPTR
0006 F0                MOVX    @DPTR,A
0007 A3                INC     DPTR
0008 F0                MOVX    @DPTR,A
0009 A3                INC     DPTR
000A F0                MOVX    @DPTR,A
000B A3                INC     DPTR
000C F0                MOVX    @DPTR,A
000D 120000      R     LCALL   _cJSON_ParseWithOpts
0010         ?C0185:
0010 22                RET     
             ; FUNCTION _cJSON_Parse (END)

             ; FUNCTION _cJSON_Print (BEGIN)
                                           ; SOURCE LINE # 342
;---- Variable 'item' assigned to Register 'R1/R2/R3' ----
0000 C003              PUSH    AR3
0002 900000      R     MOV     DPTR,#?_print_value?BYTE+05H
0005 E4                CLR     A
0006 F0                MOVX    @DPTR,A
0007 A3                INC     DPTR
0008 04                INC     A
0009 F0                MOVX    @DPTR,A
C51 COMPILER V9.01   CJSON                                                                 06/17/2019 10:07:01 PAGE 98  

000A A3                INC     DPTR
000B 14                DEC     A
000C F0                MOVX    @DPTR,A
000D A3                INC     DPTR
000E F0                MOVX    @DPTR,A
000F A3                INC     DPTR
0010 F0                MOVX    @DPTR,A
0011 D003              POP     AR3
0013 FD                MOV     R5,A
0014 FC                MOV     R4,A
0015 120000      R     LCALL   _print_value
0018         ?C0186:
0018 22                RET     
             ; FUNCTION _cJSON_Print (END)

             ; FUNCTION _cJSON_PrintUnformatted (BEGIN)
                                           ; SOURCE LINE # 343
;---- Variable 'item' assigned to Register 'R1/R2/R3' ----
0000 C001              PUSH    AR1
0002 E4                CLR     A
0003 900000      R     MOV     DPTR,#?_print_value?BYTE+05H
0006 F0                MOVX    @DPTR,A
0007 A3                INC     DPTR
0008 F0                MOVX    @DPTR,A
0009 F9                MOV     R1,A
000A A3                INC     DPTR
000B C9                XCH     A,R1
000C F0                MOVX    @DPTR,A
000D A3                INC     DPTR
000E F0                MOVX    @DPTR,A
000F A3                INC     DPTR
0010 E9                MOV     A,R1
0011 F0                MOVX    @DPTR,A
0012 D001              POP     AR1
0014 E4                CLR     A
0015 FD                MOV     R5,A
0016 FC                MOV     R4,A
0017 120000      R     LCALL   _print_value
001A         ?C0187:
001A 22                RET     
             ; FUNCTION _cJSON_PrintUnformatted (END)

             ; FUNCTION _cJSON_PrintBuffered (BEGIN)
                                           ; SOURCE LINE # 345
0000 900000      R     MOV     DPTR,#item
0003 EB                MOV     A,R3
0004 F0                MOVX    @DPTR,A
0005 A3                INC     DPTR
0006 EA                MOV     A,R2
0007 F0                MOVX    @DPTR,A
0008 A3                INC     DPTR
0009 E9                MOV     A,R1
000A F0                MOVX    @DPTR,A
000B A3                INC     DPTR
000C EC                MOV     A,R4
000D F0                MOVX    @DPTR,A
000E FE                MOV     R6,A
000F A3                INC     DPTR
0010 ED                MOV     A,R5
0011 F0                MOVX    @DPTR,A
0012 FF                MOV     R7,A
                                           ; SOURCE LINE # 346
C51 COMPILER V9.01   CJSON                                                                 06/17/2019 10:07:01 PAGE 99  

                                           ; SOURCE LINE # 348
0013 900000      R     MOV     DPTR,#_cJSON_malloc
0016 A3                INC     DPTR
0017 E0                MOVX    A,@DPTR
0018 FA                MOV     R2,A
0019 A3                INC     DPTR
001A E0                MOVX    A,@DPTR
001B F582              MOV     DPL,A
001D 8A83              MOV     DPH,R2
001F 120000      E     LCALL   ?C?ICALL2
0022 900000      R     MOV     DPTR,#p
0025 EB                MOV     A,R3
0026 F0                MOVX    @DPTR,A
0027 A3                INC     DPTR
0028 EA                MOV     A,R2
0029 F0                MOVX    @DPTR,A
002A A3                INC     DPTR
002B E9                MOV     A,R1
002C F0                MOVX    @DPTR,A
                                           ; SOURCE LINE # 349
002D 900000      R     MOV     DPTR,#prebuffer
0030 E0                MOVX    A,@DPTR
0031 FF                MOV     R7,A
0032 A3                INC     DPTR
0033 E0                MOVX    A,@DPTR
0034 900000      R     MOV     DPTR,#p+03H
0037 CF                XCH     A,R7
0038 F0                MOVX    @DPTR,A
0039 A3                INC     DPTR
003A EF                MOV     A,R7
003B F0                MOVX    @DPTR,A
                                           ; SOURCE LINE # 350
003C E4                CLR     A
003D A3                INC     DPTR
003E F0                MOVX    @DPTR,A
003F A3                INC     DPTR
0040 F0                MOVX    @DPTR,A
                                           ; SOURCE LINE # 351
0041 900000      R     MOV     DPTR,#fmt
0044 E0                MOVX    A,@DPTR
0045 FF                MOV     R7,A
0046 A3                INC     DPTR
0047 E0                MOVX    A,@DPTR
0048 900000      R     MOV     DPTR,#?_print_value?BYTE+05H
004B CF                XCH     A,R7
004C F0                MOVX    @DPTR,A
004D A3                INC     DPTR
004E EF                MOV     A,R7
004F F0                MOVX    @DPTR,A
0050 A3                INC     DPTR
0051 7401              MOV     A,#01H
0053 F0                MOVX    @DPTR,A
0054 A3                INC     DPTR
0055 7400        R     MOV     A,#HIGH p
0057 F0                MOVX    @DPTR,A
0058 A3                INC     DPTR
0059 7400        R     MOV     A,#LOW p
005B F0                MOVX    @DPTR,A
005C 900000      R     MOV     DPTR,#item
005F E0                MOVX    A,@DPTR
0060 FB                MOV     R3,A
0061 A3                INC     DPTR
C51 COMPILER V9.01   CJSON                                                                 06/17/2019 10:07:01 PAGE 100 

0062 E0                MOVX    A,@DPTR
0063 FA                MOV     R2,A
0064 A3                INC     DPTR
0065 E0                MOVX    A,@DPTR
0066 F9                MOV     R1,A
0067 E4                CLR     A
0068 FD                MOV     R5,A
0069 FC                MOV     R4,A
006A 120000      R     LCALL   _print_value
                                           ; SOURCE LINE # 352
                                           ; SOURCE LINE # 353
006D         ?C0188:
006D 22                RET     
             ; FUNCTION _cJSON_PrintBuffered (END)

             ; FUNCTION L?0684 (BEGIN)
0000 900000      R     MOV     DPTR,#?_parse_value?BYTE+03H
0003 EB                MOV     A,R3
0004 F0                MOVX    @DPTR,A
0005 A3                INC     DPTR
0006 EA                MOV     A,R2
0007 F0                MOVX    @DPTR,A
0008 A3                INC     DPTR
0009 E9                MOV     A,R1
000A F0                MOVX    @DPTR,A
000B 900000      R     MOV     DPTR,#child
000E         L?0685:
000E E0                MOVX    A,@DPTR
000F FB                MOV     R3,A
0010 A3                INC     DPTR
0011 E0                MOVX    A,@DPTR
0012 FA                MOV     R2,A
0013 A3                INC     DPTR
0014 E0                MOVX    A,@DPTR
0015 F9                MOV     R1,A
             ; FUNCTION _parse_value (BEGIN)
                                           ; SOURCE LINE # 357
0016 900000      R     MOV     DPTR,#item
0019 EB                MOV     A,R3
001A F0                MOVX    @DPTR,A
001B A3                INC     DPTR
001C EA                MOV     A,R2
001D F0                MOVX    @DPTR,A
001E A3                INC     DPTR
001F E9                MOV     A,R1
0020 F0                MOVX    @DPTR,A
                                           ; SOURCE LINE # 358
                                           ; SOURCE LINE # 359
0021 A3                INC     DPTR
0022 E0                MOVX    A,@DPTR
0023 FB                MOV     R3,A
0024 A3                INC     DPTR
0025 E0                MOVX    A,@DPTR
0026 FA                MOV     R2,A
0027 A3                INC     DPTR
0028 E0                MOVX    A,@DPTR
0029 F9                MOV     R1,A
002A EA                MOV     A,R2
002B 49                ORL     A,R1
002C 4B                ORL     A,R3
002D 7004              JNZ     ?C0189
002F FB                MOV     R3,A
C51 COMPILER V9.01   CJSON                                                                 06/17/2019 10:07:01 PAGE 101 

0030 FA                MOV     R2,A
0031 F9                MOV     R1,A
0032 22                RET     
0033         ?C0189:
                                           ; SOURCE LINE # 360
0033 900000      E     MOV     DPTR,#?_strncmp?BYTE+03H
0036 74FF              MOV     A,#0FFH
0038 F0                MOVX    @DPTR,A
0039 A3                INC     DPTR
003A 7400        R     MOV     A,#HIGH ?SC_33
003C F0                MOVX    @DPTR,A
003D A3                INC     DPTR
003E 7400        R     MOV     A,#LOW ?SC_33
0040 F0                MOVX    @DPTR,A
0041 A3                INC     DPTR
0042 E4                CLR     A
0043 F0                MOVX    @DPTR,A
0044 A3                INC     DPTR
0045 7404              MOV     A,#04H
0047 F0                MOVX    @DPTR,A
0048 900000      R     MOV     DPTR,#value
004B E0                MOVX    A,@DPTR
004C FB                MOV     R3,A
004D A3                INC     DPTR
004E E0                MOVX    A,@DPTR
004F FA                MOV     R2,A
0050 A3                INC     DPTR
0051 E0                MOVX    A,@DPTR
0052 F9                MOV     R1,A
0053 120000      E     LCALL   _strncmp
0056 EF                MOV     A,R7
0057 7015              JNZ     ?C0191
0059 900000      R     MOV     DPTR,#item
005C E0                MOVX    A,@DPTR
005D FB                MOV     R3,A
005E A3                INC     DPTR
005F E0                MOVX    A,@DPTR
0060 FA                MOV     R2,A
0061 A3                INC     DPTR
0062 E0                MOVX    A,@DPTR
0063 F9                MOV     R1,A
0064 900009            MOV     DPTR,#09H
0067 E4                CLR     A
0068 75F002            MOV     B,#02H
006B 020000      R     LJMP    ?C0622
006E         ?C0191:
                                           ; SOURCE LINE # 361
006E 900000      E     MOV     DPTR,#?_strncmp?BYTE+03H
0071 74FF              MOV     A,#0FFH
0073 F0                MOVX    @DPTR,A
0074 A3                INC     DPTR
0075 7400        R     MOV     A,#HIGH ?SC_38
0077 F0                MOVX    @DPTR,A
0078 A3                INC     DPTR
0079 7400        R     MOV     A,#LOW ?SC_38
007B F0                MOVX    @DPTR,A
007C A3                INC     DPTR
007D E4                CLR     A
007E F0                MOVX    @DPTR,A
007F A3                INC     DPTR
0080 7405              MOV     A,#05H
0082 F0                MOVX    @DPTR,A
C51 COMPILER V9.01   CJSON                                                                 06/17/2019 10:07:01 PAGE 102 

0083 900000      R     MOV     DPTR,#value
0086 E0                MOVX    A,@DPTR
0087 FB                MOV     R3,A
0088 A3                INC     DPTR
0089 E0                MOVX    A,@DPTR
008A FA                MOV     R2,A
008B A3                INC     DPTR
008C E0                MOVX    A,@DPTR
008D F9                MOV     R1,A
008E 120000      E     LCALL   _strncmp
0091 EF                MOV     A,R7
0092 7022              JNZ     ?C0192
0094 900000      R     MOV     DPTR,#item
0097 E0                MOVX    A,@DPTR
0098 FB                MOV     R3,A
0099 A3                INC     DPTR
009A E0                MOVX    A,@DPTR
009B FA                MOV     R2,A
009C A3                INC     DPTR
009D E0                MOVX    A,@DPTR
009E F9                MOV     R1,A
009F 900009            MOV     DPTR,#09H
00A2 E4                CLR     A
00A3 F5F0              MOV     B,A
00A5 120000      E     LCALL   ?C?ISTOPTR
00A8 900000      R     MOV     DPTR,#value
00AB E0                MOVX    A,@DPTR
00AC FB                MOV     R3,A
00AD A3                INC     DPTR
00AE E0                MOVX    A,@DPTR
00AF FA                MOV     R2,A
00B0 A3                INC     DPTR
00B1 E0                MOVX    A,@DPTR
00B2 2405              ADD     A,#05H
00B4 8051              SJMP    ?C0623
00B6         ?C0192:
                                           ; SOURCE LINE # 362
00B6 900000      E     MOV     DPTR,#?_strncmp?BYTE+03H
00B9 74FF              MOV     A,#0FFH
00BB F0                MOVX    @DPTR,A
00BC A3                INC     DPTR
00BD 7400        R     MOV     A,#HIGH ?SC_44
00BF F0                MOVX    @DPTR,A
00C0 A3                INC     DPTR
00C1 7400        R     MOV     A,#LOW ?SC_44
00C3 F0                MOVX    @DPTR,A
00C4 A3                INC     DPTR
00C5 E4                CLR     A
00C6 F0                MOVX    @DPTR,A
00C7 A3                INC     DPTR
00C8 7404              MOV     A,#04H
00CA F0                MOVX    @DPTR,A
00CB 900000      R     MOV     DPTR,#value
00CE E0                MOVX    A,@DPTR
00CF FB                MOV     R3,A
00D0 A3                INC     DPTR
00D1 E0                MOVX    A,@DPTR
00D2 FA                MOV     R2,A
00D3 A3                INC     DPTR
00D4 E0                MOVX    A,@DPTR
00D5 F9                MOV     R1,A
00D6 120000      E     LCALL   _strncmp
C51 COMPILER V9.01   CJSON                                                                 06/17/2019 10:07:01 PAGE 103 

00D9 EF                MOV     A,R7
00DA 7030              JNZ     ?C0193
00DC 900000      R     MOV     DPTR,#item
00DF E0                MOVX    A,@DPTR
00E0 FB                MOV     R3,A
00E1 A3                INC     DPTR
00E2 E0                MOVX    A,@DPTR
00E3 FA                MOV     R2,A
00E4 A3                INC     DPTR
00E5 E0                MOVX    A,@DPTR
00E6 F9                MOV     R1,A
00E7 900009            MOV     DPTR,#09H
00EA E4                CLR     A
00EB 75F001            MOV     B,#01H
00EE 120000      E     LCALL   ?C?ISTOPTR
00F1 90000E            MOV     DPTR,#0EH
00F4 E4                CLR     A
00F5 75F001            MOV     B,#01H
00F8         ?C0622:
00F8 120000      E     LCALL   ?C?ISTOPTR
00FB 900000      R     MOV     DPTR,#value
00FE E0                MOVX    A,@DPTR
00FF FB                MOV     R3,A
0100 A3                INC     DPTR
0101 E0                MOVX    A,@DPTR
0102 FA                MOV     R2,A
0103 A3                INC     DPTR
0104 E0                MOVX    A,@DPTR
0105 2404              ADD     A,#04H
0107         ?C0623:
0107 F9                MOV     R1,A
0108 E4                CLR     A
0109 3A                ADDC    A,R2
010A FA                MOV     R2,A
010B 22                RET     
010C         ?C0193:
                                           ; SOURCE LINE # 363
010C 900000      R     MOV     DPTR,#value
010F E0                MOVX    A,@DPTR
0110 FB                MOV     R3,A
0111 A3                INC     DPTR
0112 E0                MOVX    A,@DPTR
0113 FA                MOV     R2,A
0114 A3                INC     DPTR
0115 E0                MOVX    A,@DPTR
0116 F9                MOV     R1,A
0117 120000      E     LCALL   ?C?CLDPTR
011A B42219            CJNE    A,#022H,?C0194
011D 900000      R     MOV     DPTR,#?_parse_string?BYTE+03H
0120 EB                MOV     A,R3
0121 F0                MOVX    @DPTR,A
0122 A3                INC     DPTR
0123 EA                MOV     A,R2
0124 F0                MOVX    @DPTR,A
0125 A3                INC     DPTR
0126 E9                MOV     A,R1
0127 F0                MOVX    @DPTR,A
0128 900000      R     MOV     DPTR,#item
012B E0                MOVX    A,@DPTR
012C FB                MOV     R3,A
012D A3                INC     DPTR
012E E0                MOVX    A,@DPTR
C51 COMPILER V9.01   CJSON                                                                 06/17/2019 10:07:01 PAGE 104 

012F FA                MOV     R2,A
0130 A3                INC     DPTR
0131 E0                MOVX    A,@DPTR
0132 F9                MOV     R1,A
0133 020000      R     LJMP    _parse_string
0136         ?C0194:
                                           ; SOURCE LINE # 364
0136 900000      R     MOV     DPTR,#value
0139 E0                MOVX    A,@DPTR
013A FB                MOV     R3,A
013B A3                INC     DPTR
013C E0                MOVX    A,@DPTR
013D FA                MOV     R2,A
013E A3                INC     DPTR
013F E0                MOVX    A,@DPTR
0140 F9                MOV     R1,A
0141 120000      E     LCALL   ?C?CLDPTR
0144 FF                MOV     R7,A
0145 642D              XRL     A,#02DH
0147 6010              JZ      ?C0196
0149 C3                CLR     C
014A EF                MOV     A,R7
014B 6480              XRL     A,#080H
014D 94B0              SUBB    A,#0B0H
014F 402B              JC      ?C0195
0151 D3                SETB    C
0152 EF                MOV     A,R7
0153 6480              XRL     A,#080H
0155 94B9              SUBB    A,#0B9H
0157 5023              JNC     ?C0195
0159         ?C0196:
0159 900000      R     MOV     DPTR,#value
015C E0                MOVX    A,@DPTR
015D F9                MOV     R1,A
015E A3                INC     DPTR
015F E0                MOVX    A,@DPTR
0160 FA                MOV     R2,A
0161 A3                INC     DPTR
0162 E0                MOVX    A,@DPTR
0163 900000      R     MOV     DPTR,#?_parse_number?BYTE+03H
0166 C9                XCH     A,R1
0167 F0                MOVX    @DPTR,A
0168 A3                INC     DPTR
0169 EA                MOV     A,R2
016A F0                MOVX    @DPTR,A
016B A3                INC     DPTR
016C E9                MOV     A,R1
016D F0                MOVX    @DPTR,A
016E 900000      R     MOV     DPTR,#item
0171 E0                MOVX    A,@DPTR
0172 FB                MOV     R3,A
0173 A3                INC     DPTR
0174 E0                MOVX    A,@DPTR
0175 FA                MOV     R2,A
0176 A3                INC     DPTR
0177 E0                MOVX    A,@DPTR
0178 F9                MOV     R1,A
0179 020000      R     LJMP    _parse_number
017C         ?C0195:
                                           ; SOURCE LINE # 365
017C 900000      R     MOV     DPTR,#value
017F E0                MOVX    A,@DPTR
C51 COMPILER V9.01   CJSON                                                                 06/17/2019 10:07:01 PAGE 105 

0180 FB                MOV     R3,A
0181 A3                INC     DPTR
0182 E0                MOVX    A,@DPTR
0183 FA                MOV     R2,A
0184 A3                INC     DPTR
0185 E0                MOVX    A,@DPTR
0186 F9                MOV     R1,A
0187 120000      E     LCALL   ?C?CLDPTR
018A B45B19            CJNE    A,#05BH,?C0197
018D 900000      R     MOV     DPTR,#?_parse_array?BYTE+03H
0190 EB                MOV     A,R3
0191 F0                MOVX    @DPTR,A
0192 A3                INC     DPTR
0193 EA                MOV     A,R2
0194 F0                MOVX    @DPTR,A
0195 A3                INC     DPTR
0196 E9                MOV     A,R1
0197 F0                MOVX    @DPTR,A
0198 900000      R     MOV     DPTR,#item
019B E0                MOVX    A,@DPTR
019C FB                MOV     R3,A
019D A3                INC     DPTR
019E E0                MOVX    A,@DPTR
019F FA                MOV     R2,A
01A0 A3                INC     DPTR
01A1 E0                MOVX    A,@DPTR
01A2 F9                MOV     R1,A
01A3 020000      R     LJMP    _parse_array
01A6         ?C0197:
                                           ; SOURCE LINE # 366
01A6 900000      R     MOV     DPTR,#value
01A9 E0                MOVX    A,@DPTR
01AA FB                MOV     R3,A
01AB A3                INC     DPTR
01AC E0                MOVX    A,@DPTR
01AD FA                MOV     R2,A
01AE A3                INC     DPTR
01AF E0                MOVX    A,@DPTR
01B0 F9                MOV     R1,A
01B1 120000      E     LCALL   ?C?CLDPTR
01B4 B47B19            CJNE    A,#07BH,?C0198
01B7 900000      R     MOV     DPTR,#?_parse_object?BYTE+03H
01BA EB                MOV     A,R3
01BB F0                MOVX    @DPTR,A
01BC A3                INC     DPTR
01BD EA                MOV     A,R2
01BE F0                MOVX    @DPTR,A
01BF A3                INC     DPTR
01C0 E9                MOV     A,R1
01C1 F0                MOVX    @DPTR,A
01C2 900000      R     MOV     DPTR,#item
01C5 E0                MOVX    A,@DPTR
01C6 FB                MOV     R3,A
01C7 A3                INC     DPTR
01C8 E0                MOVX    A,@DPTR
01C9 FA                MOV     R2,A
01CA A3                INC     DPTR
01CB E0                MOVX    A,@DPTR
01CC F9                MOV     R1,A
01CD 020000      R     LJMP    _parse_object
01D0         ?C0198:
                                           ; SOURCE LINE # 368
C51 COMPILER V9.01   CJSON                                                                 06/17/2019 10:07:01 PAGE 106 

01D0 900000      R     MOV     DPTR,#value
01D3 E0                MOVX    A,@DPTR
01D4 F9                MOV     R1,A
01D5 A3                INC     DPTR
01D6 E0                MOVX    A,@DPTR
01D7 FA                MOV     R2,A
01D8 A3                INC     DPTR
01D9 E0                MOVX    A,@DPTR
01DA 900000      R     MOV     DPTR,#ep
01DD C9                XCH     A,R1
01DE F0                MOVX    @DPTR,A
01DF A3                INC     DPTR
01E0 EA                MOV     A,R2
01E1 F0                MOVX    @DPTR,A
01E2 A3                INC     DPTR
01E3 E9                MOV     A,R1
01E4 F0                MOVX    @DPTR,A
01E5 7B00              MOV     R3,#00H
01E7 7A00              MOV     R2,#00H
01E9 7900              MOV     R1,#00H
                                           ; SOURCE LINE # 369
01EB         ?C0190:
01EB 22                RET     
             ; FUNCTION _parse_value (END)

             ; FUNCTION L?0692 (BEGIN)
0000 F0                MOVX    @DPTR,A
0001 900000      R     MOV     DPTR,#child
0004         L?0693:
0004 E0                MOVX    A,@DPTR
0005 FB                MOV     R3,A
0006 A3                INC     DPTR
0007 E0                MOVX    A,@DPTR
0008 FA                MOV     R2,A
0009 A3                INC     DPTR
000A E0                MOVX    A,@DPTR
000B F9                MOV     R1,A
             ; FUNCTION _print_value (BEGIN)
                                           ; SOURCE LINE # 372
000C 900000      R     MOV     DPTR,#item
000F EB                MOV     A,R3
0010 F0                MOVX    @DPTR,A
0011 A3                INC     DPTR
0012 EA                MOV     A,R2
0013 F0                MOVX    @DPTR,A
0014 A3                INC     DPTR
0015 E9                MOV     A,R1
0016 F0                MOVX    @DPTR,A
0017 A3                INC     DPTR
0018 EC                MOV     A,R4
0019 F0                MOVX    @DPTR,A
001A A3                INC     DPTR
001B ED                MOV     A,R5
001C F0                MOVX    @DPTR,A
                                           ; SOURCE LINE # 373
                                           ; SOURCE LINE # 374
001D 900000      R     MOV     DPTR,#out
0020 E4                CLR     A
0021 F0                MOVX    @DPTR,A
0022 A3                INC     DPTR
0023 F0                MOVX    @DPTR,A
0024 A3                INC     DPTR
C51 COMPILER V9.01   CJSON                                                                 06/17/2019 10:07:01 PAGE 107 

0025 F0                MOVX    @DPTR,A
                                           ; SOURCE LINE # 375
0026 900000      R     MOV     DPTR,#item
0029 E0                MOVX    A,@DPTR
002A FB                MOV     R3,A
002B A3                INC     DPTR
002C E0                MOVX    A,@DPTR
002D FA                MOV     R2,A
002E A3                INC     DPTR
002F E0                MOVX    A,@DPTR
0030 F9                MOV     R1,A
0031 EA                MOV     A,R2
0032 49                ORL     A,R1
0033 4B                ORL     A,R3
0034 7004              JNZ     ?C0199
0036 FB                MOV     R3,A
0037 FA                MOV     R2,A
0038 F9                MOV     R1,A
0039 22                RET     
003A         ?C0199:
                                           ; SOURCE LINE # 376
003A 900000      R     MOV     DPTR,#p
003D E0                MOVX    A,@DPTR
003E FB                MOV     R3,A
003F A3                INC     DPTR
0040 E0                MOVX    A,@DPTR
0041 FA                MOV     R2,A
0042 A3                INC     DPTR
0043 E0                MOVX    A,@DPTR
0044 F9                MOV     R1,A
0045 EA                MOV     A,R2
0046 49                ORL     A,R1
0047 4B                ORL     A,R3
0048 7003              JNZ     $ + 5H
004A 020000      R     LJMP    ?C0201
                                           ; SOURCE LINE # 377
                                           ; SOURCE LINE # 378
004D 900000      R     MOV     DPTR,#item
0050 E0                MOVX    A,@DPTR
0051 FB                MOV     R3,A
0052 A3                INC     DPTR
0053 E0                MOVX    A,@DPTR
0054 FA                MOV     R2,A
0055 A3                INC     DPTR
0056 E0                MOVX    A,@DPTR
0057 F9                MOV     R1,A
0058 900009            MOV     DPTR,#09H
005B 120000      E     LCALL   ?C?ILDOPTR
005E B40700            CJNE    A,#07H,?C0510
0061         ?C0510:
0061 4003              JC      $ + 5H
0063 020000      R     LJMP    ?C0213
0066 900000      R     MOV     DPTR,#?C0511
0069 F8                MOV     R0,A
006A 28                ADD     A,R0
006B 28                ADD     A,R0
006C 73                JMP     @A+DPTR
006D         ?C0511:
006D 020000      R     LJMP    ?C0205
0070 020000      R     LJMP    ?C0207
0073 020000      R     LJMP    ?C0203
0076 020000      R     LJMP    ?C0209
C51 COMPILER V9.01   CJSON                                                                 06/17/2019 10:07:01 PAGE 108 

0079 020000      R     LJMP    ?C0210
007C 020000      R     LJMP    ?C0211
007F 020000      R     LJMP    ?C0212
                                           ; SOURCE LINE # 379
                                           ; SOURCE LINE # 380
0082         ?C0203:
0082 120000      R     LCALL   L?0688
0085 900000      R     MOV     DPTR,#out
0088 EB                MOV     A,R3
0089 F0                MOVX    @DPTR,A
008A A3                INC     DPTR
008B EA                MOV     A,R2
008C F0                MOVX    @DPTR,A
008D A3                INC     DPTR
008E E9                MOV     A,R1
008F F0                MOVX    @DPTR,A
0090 4A                ORL     A,R2
0091 4B                ORL     A,R3
0092 7003              JNZ     $ + 5H
0094 020000      R     LJMP    ?C0213
0097 900000      R     MOV     DPTR,#out
009A E0                MOVX    A,@DPTR
009B FB                MOV     R3,A
009C A3                INC     DPTR
009D E0                MOVX    A,@DPTR
009E FA                MOV     R2,A
009F A3                INC     DPTR
00A0 E0                MOVX    A,@DPTR
00A1 F8                MOV     R0,A
00A2 AC02              MOV     R4,AR2
00A4 AD03              MOV     R5,AR3
00A6 7BFF              MOV     R3,#0FFH
00A8 7A00        R     MOV     R2,#HIGH ?SC_33
00AA 7900        R     MOV     R1,#LOW ?SC_33
00AC 8058              SJMP    ?C0625
                                           ; SOURCE LINE # 381
00AE         ?C0205:
00AE 7D06              MOV     R5,#06H
00B0 120000      R     LCALL   L?0689
00B3 900000      R     MOV     DPTR,#out
00B6 EB                MOV     A,R3
00B7 F0                MOVX    @DPTR,A
00B8 A3                INC     DPTR
00B9 EA                MOV     A,R2
00BA F0                MOVX    @DPTR,A
00BB A3                INC     DPTR
00BC E9                MOV     A,R1
00BD F0                MOVX    @DPTR,A
00BE 4A                ORL     A,R2
00BF 4B                ORL     A,R3
00C0 7003              JNZ     $ + 5H
00C2 020000      R     LJMP    ?C0213
00C5 900000      R     MOV     DPTR,#out
00C8 E0                MOVX    A,@DPTR
00C9 FB                MOV     R3,A
00CA A3                INC     DPTR
00CB E0                MOVX    A,@DPTR
00CC FA                MOV     R2,A
00CD A3                INC     DPTR
00CE E0                MOVX    A,@DPTR
00CF F8                MOV     R0,A
00D0 AC02              MOV     R4,AR2
C51 COMPILER V9.01   CJSON                                                                 06/17/2019 10:07:01 PAGE 109 

00D2 AD03              MOV     R5,AR3
00D4 7BFF              MOV     R3,#0FFH
00D6 7A00        R     MOV     R2,#HIGH ?SC_38
00D8 7900        R     MOV     R1,#LOW ?SC_38
00DA         ?C0624:
00DA 802A              SJMP    ?C0625
                                           ; SOURCE LINE # 382
00DC         ?C0207:
00DC 120000      R     LCALL   L?0688
00DF 900000      R     MOV     DPTR,#out
00E2 EB                MOV     A,R3
00E3 F0                MOVX    @DPTR,A
00E4 A3                INC     DPTR
00E5 EA                MOV     A,R2
00E6 F0                MOVX    @DPTR,A
00E7 A3                INC     DPTR
00E8 E9                MOV     A,R1
00E9 F0                MOVX    @DPTR,A
00EA 4A                ORL     A,R2
00EB 4B                ORL     A,R3
00EC 7003              JNZ     $ + 5H
00EE 020000      R     LJMP    ?C0213
00F1 900000      R     MOV     DPTR,#out
00F4 E0                MOVX    A,@DPTR
00F5 FB                MOV     R3,A
00F6 A3                INC     DPTR
00F7 E0                MOVX    A,@DPTR
00F8 FA                MOV     R2,A
00F9 A3                INC     DPTR
00FA E0                MOVX    A,@DPTR
00FB F8                MOV     R0,A
00FC AC02              MOV     R4,AR2
00FE AD03              MOV     R5,AR3
0100 7BFF              MOV     R3,#0FFH
0102 7A00        R     MOV     R2,#HIGH ?SC_44
0104 7900        R     MOV     R1,#LOW ?SC_44
0106         ?C0625:
0106 120000      E     LCALL   ?C?STRCPY
0109 020000      R     LJMP    ?C0213
                                           ; SOURCE LINE # 383
010C         ?C0209:
010C 900000      R     MOV     DPTR,#p
010F E0                MOVX    A,@DPTR
0110 F9                MOV     R1,A
0111 A3                INC     DPTR
0112 E0                MOVX    A,@DPTR
0113 FA                MOV     R2,A
0114 A3                INC     DPTR
0115 E0                MOVX    A,@DPTR
0116 900000      R     MOV     DPTR,#?_print_number?BYTE+03H
0119 C9                XCH     A,R1
011A F0                MOVX    @DPTR,A
011B A3                INC     DPTR
011C EA                MOV     A,R2
011D F0                MOVX    @DPTR,A
011E A3                INC     DPTR
011F E9                MOV     A,R1
0120 020000      R     LJMP    ?C0626
                                           ; SOURCE LINE # 384
0123         ?C0210:
0123 900000      R     MOV     DPTR,#p
0126 E0                MOVX    A,@DPTR
C51 COMPILER V9.01   CJSON                                                                 06/17/2019 10:07:01 PAGE 110 

0127 F9                MOV     R1,A
0128 A3                INC     DPTR
0129 E0                MOVX    A,@DPTR
012A FA                MOV     R2,A
012B A3                INC     DPTR
012C E0                MOVX    A,@DPTR
012D 900000      R     MOV     DPTR,#?_print_string?BYTE+03H
0130 C9                XCH     A,R1
0131 F0                MOVX    @DPTR,A
0132 A3                INC     DPTR
0133 EA                MOV     A,R2
0134 F0                MOVX    @DPTR,A
0135 A3                INC     DPTR
0136 E9                MOV     A,R1
0137 020000      R     LJMP    ?C0627
                                           ; SOURCE LINE # 385
013A         ?C0211:
013A 900000      R     MOV     DPTR,#depth
013D E0                MOVX    A,@DPTR
013E FC                MOV     R4,A
013F A3                INC     DPTR
0140 E0                MOVX    A,@DPTR
0141 FD                MOV     R5,A
0142 A3                INC     DPTR
0143 E0                MOVX    A,@DPTR
0144 FF                MOV     R7,A
0145 A3                INC     DPTR
0146 E0                MOVX    A,@DPTR
0147 900000      R     MOV     DPTR,#?_print_array?BYTE+05H
014A CF                XCH     A,R7
014B F0                MOVX    @DPTR,A
014C A3                INC     DPTR
014D EF                MOV     A,R7
014E F0                MOVX    @DPTR,A
014F 900000      R     MOV     DPTR,#p
0152 E0                MOVX    A,@DPTR
0153 F9                MOV     R1,A
0154 A3                INC     DPTR
0155 E0                MOVX    A,@DPTR
0156 FA                MOV     R2,A
0157 A3                INC     DPTR
0158 E0                MOVX    A,@DPTR
0159 900000      R     MOV     DPTR,#?_print_array?BYTE+07H
015C C9                XCH     A,R1
015D F0                MOVX    @DPTR,A
015E A3                INC     DPTR
015F EA                MOV     A,R2
0160 F0                MOVX    @DPTR,A
0161 A3                INC     DPTR
0162 E9                MOV     A,R1
0163 020000      R     LJMP    ?C0628
                                           ; SOURCE LINE # 386
0166         ?C0212:
0166 900000      R     MOV     DPTR,#depth
0169 E0                MOVX    A,@DPTR
016A FC                MOV     R4,A
016B A3                INC     DPTR
016C E0                MOVX    A,@DPTR
016D FD                MOV     R5,A
016E A3                INC     DPTR
016F E0                MOVX    A,@DPTR
0170 FF                MOV     R7,A
C51 COMPILER V9.01   CJSON                                                                 06/17/2019 10:07:01 PAGE 111 

0171 A3                INC     DPTR
0172 E0                MOVX    A,@DPTR
0173 900000      R     MOV     DPTR,#?_print_object?BYTE+05H
0176 CF                XCH     A,R7
0177 F0                MOVX    @DPTR,A
0178 A3                INC     DPTR
0179 EF                MOV     A,R7
017A F0                MOVX    @DPTR,A
017B 900000      R     MOV     DPTR,#p
017E E0                MOVX    A,@DPTR
017F F9                MOV     R1,A
0180 A3                INC     DPTR
0181 E0                MOVX    A,@DPTR
0182 FA                MOV     R2,A
0183 A3                INC     DPTR
0184 E0                MOVX    A,@DPTR
0185 900000      R     MOV     DPTR,#?_print_object?BYTE+07H
0188 C9                XCH     A,R1
0189 F0                MOVX    @DPTR,A
018A A3                INC     DPTR
018B EA                MOV     A,R2
018C F0                MOVX    @DPTR,A
018D A3                INC     DPTR
018E E9                MOV     A,R1
018F 020000      R     LJMP    ?C0629
                                           ; SOURCE LINE # 387
                                           ; SOURCE LINE # 388
0192         ?C0201:
                                           ; SOURCE LINE # 390
                                           ; SOURCE LINE # 391
0192 900000      R     MOV     DPTR,#item
0195 E0                MOVX    A,@DPTR
0196 FB                MOV     R3,A
0197 A3                INC     DPTR
0198 E0                MOVX    A,@DPTR
0199 FA                MOV     R2,A
019A A3                INC     DPTR
019B E0                MOVX    A,@DPTR
019C F9                MOV     R1,A
019D 900009            MOV     DPTR,#09H
01A0 120000      E     LCALL   ?C?ILDOPTR
01A3 B40700            CJNE    A,#07H,?C0512
01A6         ?C0512:
01A6 4003              JC      $ + 5H
01A8 020000      R     LJMP    ?C0213
01AB 900000      R     MOV     DPTR,#?C0513
01AE F8                MOV     R0,A
01AF 28                ADD     A,R0
01B0 28                ADD     A,R0
01B1 73                JMP     @A+DPTR
01B2         ?C0513:
01B2 020000      R     LJMP    ?C0216
01B5 020000      R     LJMP    ?C0217
01B8 020000      R     LJMP    ?C0215
01BB 020000      R     LJMP    ?C0218
01BE 020000      R     LJMP    ?C0219
01C1 020000      R     LJMP    ?C0220
01C4 020000      R     LJMP    ?C0221
                                           ; SOURCE LINE # 392
                                           ; SOURCE LINE # 393
01C7         ?C0215:
01C7 7BFF              MOV     R3,#0FFH
C51 COMPILER V9.01   CJSON                                                                 06/17/2019 10:07:01 PAGE 112 

01C9 7A00        R     MOV     R2,#HIGH ?SC_33
01CB 7900        R     MOV     R1,#LOW ?SC_33
01CD 800E              SJMP    ?C0631
                                           ; SOURCE LINE # 394
01CF         ?C0216:
01CF 7BFF              MOV     R3,#0FFH
01D1 7A00        R     MOV     R2,#HIGH ?SC_38
01D3 7900        R     MOV     R1,#LOW ?SC_38
01D5         ?C0630:
01D5 8006              SJMP    ?C0631
                                           ; SOURCE LINE # 395
01D7         ?C0217:
01D7 7BFF              MOV     R3,#0FFH
01D9 7A00        R     MOV     R2,#HIGH ?SC_44
01DB 7900        R     MOV     R1,#LOW ?SC_44
01DD         ?C0631:
01DD 120000      R     LCALL   _cJSON_strdup
01E0 020000      R     LJMP    ?C0635
                                           ; SOURCE LINE # 396
01E3         ?C0218:
01E3 900000      R     MOV     DPTR,#?_print_number?BYTE+03H
01E6 E4                CLR     A
01E7 F0                MOVX    @DPTR,A
01E8 A3                INC     DPTR
01E9 F0                MOVX    @DPTR,A
01EA A3                INC     DPTR
01EB         ?C0626:
01EB F0                MOVX    @DPTR,A
01EC 900000      R     MOV     DPTR,#item
01EF E0                MOVX    A,@DPTR
01F0 FB                MOV     R3,A
01F1 A3                INC     DPTR
01F2 E0                MOVX    A,@DPTR
01F3 FA                MOV     R2,A
01F4 A3                INC     DPTR
01F5 E0                MOVX    A,@DPTR
01F6 F9                MOV     R1,A
01F7 120000      R     LCALL   _print_number
01FA         ?C0632:
01FA 806F              SJMP    ?C0635
                                           ; SOURCE LINE # 397
01FC         ?C0219:
01FC 900000      R     MOV     DPTR,#?_print_string?BYTE+03H
01FF E4                CLR     A
0200 F0                MOVX    @DPTR,A
0201 A3                INC     DPTR
0202 F0                MOVX    @DPTR,A
0203 A3                INC     DPTR
0204         ?C0627:
0204 F0                MOVX    @DPTR,A
0205 900000      R     MOV     DPTR,#item
0208 E0                MOVX    A,@DPTR
0209 FB                MOV     R3,A
020A A3                INC     DPTR
020B E0                MOVX    A,@DPTR
020C FA                MOV     R2,A
020D A3                INC     DPTR
020E E0                MOVX    A,@DPTR
020F F9                MOV     R1,A
0210 120000      R     LCALL   _print_string
0213         ?C0633:
0213 8056              SJMP    ?C0635
C51 COMPILER V9.01   CJSON                                                                 06/17/2019 10:07:01 PAGE 113 

                                           ; SOURCE LINE # 398
0215         ?C0220:
0215 900000      R     MOV     DPTR,#depth
0218 E0                MOVX    A,@DPTR
0219 FC                MOV     R4,A
021A A3                INC     DPTR
021B E0                MOVX    A,@DPTR
021C FD                MOV     R5,A
021D A3                INC     DPTR
021E E0                MOVX    A,@DPTR
021F FF                MOV     R7,A
0220 A3                INC     DPTR
0221 E0                MOVX    A,@DPTR
0222 900000      R     MOV     DPTR,#?_print_array?BYTE+05H
0225 CF                XCH     A,R7
0226 F0                MOVX    @DPTR,A
0227 A3                INC     DPTR
0228 EF                MOV     A,R7
0229 F0                MOVX    @DPTR,A
022A A3                INC     DPTR
022B E4                CLR     A
022C F0                MOVX    @DPTR,A
022D A3                INC     DPTR
022E F0                MOVX    @DPTR,A
022F A3                INC     DPTR
0230         ?C0628:
0230 F0                MOVX    @DPTR,A
0231 900000      R     MOV     DPTR,#item
0234 E0                MOVX    A,@DPTR
0235 FB                MOV     R3,A
0236 A3                INC     DPTR
0237 E0                MOVX    A,@DPTR
0238 FA                MOV     R2,A
0239 A3                INC     DPTR
023A E0                MOVX    A,@DPTR
023B F9                MOV     R1,A
023C 120000      R     LCALL   _print_array
023F         ?C0634:
023F 802A              SJMP    ?C0635
                                           ; SOURCE LINE # 399
0241         ?C0221:
0241 900000      R     MOV     DPTR,#depth
0244 E0                MOVX    A,@DPTR
0245 FC                MOV     R4,A
0246 A3                INC     DPTR
0247 E0                MOVX    A,@DPTR
0248 FD                MOV     R5,A
0249 A3                INC     DPTR
024A E0                MOVX    A,@DPTR
024B FF                MOV     R7,A
024C A3                INC     DPTR
024D E0                MOVX    A,@DPTR
024E 900000      R     MOV     DPTR,#?_print_object?BYTE+05H
0251 CF                XCH     A,R7
0252 F0                MOVX    @DPTR,A
0253 A3                INC     DPTR
0254 EF                MOV     A,R7
0255 F0                MOVX    @DPTR,A
0256 A3                INC     DPTR
0257 E4                CLR     A
0258 F0                MOVX    @DPTR,A
0259 A3                INC     DPTR
C51 COMPILER V9.01   CJSON                                                                 06/17/2019 10:07:01 PAGE 114 

025A F0                MOVX    @DPTR,A
025B A3                INC     DPTR
025C         ?C0629:
025C F0                MOVX    @DPTR,A
025D 900000      R     MOV     DPTR,#item
0260 E0                MOVX    A,@DPTR
0261 FB                MOV     R3,A
0262 A3                INC     DPTR
0263 E0                MOVX    A,@DPTR
0264 FA                MOV     R2,A
0265 A3                INC     DPTR
0266 E0                MOVX    A,@DPTR
0267 F9                MOV     R1,A
0268 120000      R     LCALL   _print_object
026B         ?C0635:
026B 900000      R     MOV     DPTR,#out
026E EB                MOV     A,R3
026F F0                MOVX    @DPTR,A
0270 A3                INC     DPTR
0271 EA                MOV     A,R2
0272 F0                MOVX    @DPTR,A
0273 A3                INC     DPTR
0274 E9                MOV     A,R1
0275 F0                MOVX    @DPTR,A
                                           ; SOURCE LINE # 400
                                           ; SOURCE LINE # 401
0276         ?C0213:
                                           ; SOURCE LINE # 402
0276 900000      R     MOV     DPTR,#out
0279 E0                MOVX    A,@DPTR
027A FB                MOV     R3,A
027B A3                INC     DPTR
027C E0                MOVX    A,@DPTR
027D FA                MOV     R2,A
027E A3                INC     DPTR
027F E0                MOVX    A,@DPTR
0280 F9                MOV     R1,A
                                           ; SOURCE LINE # 403
0281         ?C0200:
0281 22                RET     
             ; FUNCTION _print_value (END)

             ; FUNCTION _parse_array (BEGIN)
                                           ; SOURCE LINE # 406
0000 900000      R     MOV     DPTR,#item
0003 EB                MOV     A,R3
0004 F0                MOVX    @DPTR,A
0005 A3                INC     DPTR
0006 EA                MOV     A,R2
0007 F0                MOVX    @DPTR,A
0008 A3                INC     DPTR
0009 E9                MOV     A,R1
000A F0                MOVX    @DPTR,A
                                           ; SOURCE LINE # 407
                                           ; SOURCE LINE # 409
000B A3                INC     DPTR
000C E0                MOVX    A,@DPTR
000D FB                MOV     R3,A
000E A3                INC     DPTR
000F E0                MOVX    A,@DPTR
0010 FA                MOV     R2,A
0011 A3                INC     DPTR
C51 COMPILER V9.01   CJSON                                                                 06/17/2019 10:07:01 PAGE 115 

0012 E0                MOVX    A,@DPTR
0013 F9                MOV     R1,A
0014 120000      E     LCALL   ?C?CLDPTR
0017 645B              XRL     A,#05BH
0019 6007              JZ      ?C0222
001B 900000      R     MOV     DPTR,#ep
001E EB                MOV     A,R3
001F 020000      R     LJMP    ?C0636
0022         ?C0222:
                                           ; SOURCE LINE # 411
0022 900000      R     MOV     DPTR,#item
0025 E0                MOVX    A,@DPTR
0026 FB                MOV     R3,A
0027 A3                INC     DPTR
0028 E0                MOVX    A,@DPTR
0029 FA                MOV     R2,A
002A A3                INC     DPTR
002B E0                MOVX    A,@DPTR
002C F9                MOV     R1,A
002D 900009            MOV     DPTR,#09H
0030 E4                CLR     A
0031 75F005            MOV     B,#05H
0034 120000      E     LCALL   ?C?ISTOPTR
                                           ; SOURCE LINE # 412
0037 900000      R     MOV     DPTR,#value
003A 120000      R     LCALL   L?0683
003D 900000      R     MOV     DPTR,#value
0040 EB                MOV     A,R3
0041 F0                MOVX    @DPTR,A
0042 A3                INC     DPTR
0043 EA                MOV     A,R2
0044 F0                MOVX    @DPTR,A
0045 A3                INC     DPTR
0046 E9                MOV     A,R1
0047 F0                MOVX    @DPTR,A
                                           ; SOURCE LINE # 413
0048 120000      E     LCALL   ?C?CLDPTR
004B B45D0D            CJNE    A,#05DH,?C0224
004E 900000      R     MOV     DPTR,#value
0051 E0                MOVX    A,@DPTR
0052 FB                MOV     R3,A
0053 A3                INC     DPTR
0054 E0                MOVX    A,@DPTR
0055 FA                MOV     R2,A
0056 A3                INC     DPTR
0057 E0                MOVX    A,@DPTR
0058 020000      R     LJMP    ?C0637
005B         ?C0224:
                                           ; SOURCE LINE # 415
005B 120000      R     LCALL   cJSON_New_Item
005E 900000      R     MOV     DPTR,#child
0061 EB                MOV     A,R3
0062 F0                MOVX    @DPTR,A
0063 A3                INC     DPTR
0064 EA                MOV     A,R2
0065 F0                MOVX    @DPTR,A
0066 A3                INC     DPTR
0067 E9                MOV     A,R1
0068 F0                MOVX    @DPTR,A
0069 C003              PUSH    AR3
006B C002              PUSH    AR2
006D C001              PUSH    AR1
C51 COMPILER V9.01   CJSON                                                                 06/17/2019 10:07:01 PAGE 116 

006F 900000      R     MOV     DPTR,#item
0072 E0                MOVX    A,@DPTR
0073 FB                MOV     R3,A
0074 A3                INC     DPTR
0075 E0                MOVX    A,@DPTR
0076 FA                MOV     R2,A
0077 A3                INC     DPTR
0078 E0                MOVX    A,@DPTR
0079 F9                MOV     R1,A
007A 900006            MOV     DPTR,#06H
007D 120000      E     LCALL   ?C?PSTOPTR
                                           ; SOURCE LINE # 416
0080 900000      R     MOV     DPTR,#item
0083 E0                MOVX    A,@DPTR
0084 FB                MOV     R3,A
0085 A3                INC     DPTR
0086 E0                MOVX    A,@DPTR
0087 FA                MOV     R2,A
0088 A3                INC     DPTR
0089 E0                MOVX    A,@DPTR
008A F9                MOV     R1,A
008B 900006            MOV     DPTR,#06H
008E 120000      E     LCALL   ?C?PLDOPTR
0091 EA                MOV     A,R2
0092 49                ORL     A,R1
0093 4B                ORL     A,R3
0094 7003              JNZ     ?C0225
0096 020000      R     LJMP    ?C0640
0099         ?C0225:
                                           ; SOURCE LINE # 417
0099 900000      R     MOV     DPTR,#value
009C E0                MOVX    A,@DPTR
009D FB                MOV     R3,A
009E A3                INC     DPTR
009F E0                MOVX    A,@DPTR
00A0 FA                MOV     R2,A
00A1 A3                INC     DPTR
00A2 E0                MOVX    A,@DPTR
00A3 F9                MOV     R1,A
00A4 120000      R     LCALL   _skip
00A7 120000      R     LCALL   L?0684
00AA 120000      R     LCALL   _skip
00AD 900000      R     MOV     DPTR,#value
00B0 EB                MOV     A,R3
00B1 F0                MOVX    @DPTR,A
00B2 A3                INC     DPTR
00B3 EA                MOV     A,R2
00B4 F0                MOVX    @DPTR,A
00B5 A3                INC     DPTR
00B6 E9                MOV     A,R1
00B7 F0                MOVX    @DPTR,A
                                           ; SOURCE LINE # 418
00B8 4A                ORL     A,R2
00B9 4B                ORL     A,R3
00BA 7003              JNZ     ?C0227
00BC         ?C0638:
00BC 020000      R     LJMP    ?C0640
00BF         ?C0227:
                                           ; SOURCE LINE # 420
00BF 900000      R     MOV     DPTR,#value
00C2 E0                MOVX    A,@DPTR
00C3 FB                MOV     R3,A
C51 COMPILER V9.01   CJSON                                                                 06/17/2019 10:07:01 PAGE 117 

00C4 A3                INC     DPTR
00C5 E0                MOVX    A,@DPTR
00C6 FA                MOV     R2,A
00C7 A3                INC     DPTR
00C8 E0                MOVX    A,@DPTR
00C9 F9                MOV     R1,A
00CA 120000      E     LCALL   ?C?CLDPTR
00CD 642C              XRL     A,#02CH
00CF 6003              JZ      $ + 5H
00D1 020000      R     LJMP    ?C0228
                                           ; SOURCE LINE # 421
                                           ; SOURCE LINE # 423
00D4 120000      R     LCALL   cJSON_New_Item
00D7 900000      R     MOV     DPTR,#new_item
00DA EB                MOV     A,R3
00DB F0                MOVX    @DPTR,A
00DC A3                INC     DPTR
00DD EA                MOV     A,R2
00DE F0                MOVX    @DPTR,A
00DF A3                INC     DPTR
00E0 E9                MOV     A,R1
00E1 F0                MOVX    @DPTR,A
00E2 4A                ORL     A,R2
00E3 4B                ORL     A,R3
00E4 7003              JNZ     ?C0229
00E6         ?C0639:
00E6 020000      R     LJMP    ?C0640
00E9         ?C0229:
                                           ; SOURCE LINE # 424
00E9 900000      R     MOV     DPTR,#new_item
00EC E0                MOVX    A,@DPTR
00ED FB                MOV     R3,A
00EE A3                INC     DPTR
00EF E0                MOVX    A,@DPTR
00F0 FA                MOV     R2,A
00F1 A3                INC     DPTR
00F2 E0                MOVX    A,@DPTR
00F3 F9                MOV     R1,A
00F4 C003              PUSH    AR3
00F6 C002              PUSH    AR2
00F8 C001              PUSH    AR1
00FA 900000      R     MOV     DPTR,#child
00FD E0                MOVX    A,@DPTR
00FE FB                MOV     R3,A
00FF A3                INC     DPTR
0100 E0                MOVX    A,@DPTR
0101 FA                MOV     R2,A
0102 A3                INC     DPTR
0103 E0                MOVX    A,@DPTR
0104 F9                MOV     R1,A
0105 120000      E     LCALL   ?C?PSTPTR
0108 900000      R     MOV     DPTR,#child
010B E0                MOVX    A,@DPTR
010C FB                MOV     R3,A
010D A3                INC     DPTR
010E E0                MOVX    A,@DPTR
010F FA                MOV     R2,A
0110 A3                INC     DPTR
0111 E0                MOVX    A,@DPTR
0112 F9                MOV     R1,A
0113 C003              PUSH    AR3
0115 C002              PUSH    AR2
C51 COMPILER V9.01   CJSON                                                                 06/17/2019 10:07:01 PAGE 118 

0117 C001              PUSH    AR1
0119 A3                INC     DPTR
011A E0                MOVX    A,@DPTR
011B FB                MOV     R3,A
011C A3                INC     DPTR
011D E0                MOVX    A,@DPTR
011E FA                MOV     R2,A
011F A3                INC     DPTR
0120 E0                MOVX    A,@DPTR
0121 F9                MOV     R1,A
0122 900003            MOV     DPTR,#03H
0125 120000      E     LCALL   ?C?PSTOPTR
0128 900000      R     MOV     DPTR,#new_item
012B E0                MOVX    A,@DPTR
012C F9                MOV     R1,A
012D A3                INC     DPTR
012E E0                MOVX    A,@DPTR
012F FA                MOV     R2,A
0130 A3                INC     DPTR
0131 E0                MOVX    A,@DPTR
0132 900000      R     MOV     DPTR,#child
0135 C9                XCH     A,R1
0136 F0                MOVX    @DPTR,A
0137 A3                INC     DPTR
0138 EA                MOV     A,R2
0139 F0                MOVX    @DPTR,A
013A A3                INC     DPTR
013B E9                MOV     A,R1
013C F0                MOVX    @DPTR,A
                                           ; SOURCE LINE # 425
013D 900000      R     MOV     DPTR,#value
0140 120000      R     LCALL   L?0683
0143 120000      R     LCALL   L?0684
0146 120000      R     LCALL   _skip
0149 900000      R     MOV     DPTR,#value
014C EB                MOV     A,R3
014D F0                MOVX    @DPTR,A
014E A3                INC     DPTR
014F EA                MOV     A,R2
0150 F0                MOVX    @DPTR,A
0151 A3                INC     DPTR
0152 E9                MOV     A,R1
0153 F0                MOVX    @DPTR,A
                                           ; SOURCE LINE # 426
0154 4A                ORL     A,R2
0155 4B                ORL     A,R3
0156 6003              JZ      $ + 5H
0158 020000      R     LJMP    ?C0227
015B         ?C0640:
015B FB                MOV     R3,A
015C FA                MOV     R2,A
015D F9                MOV     R1,A
015E 22                RET     
                                           ; SOURCE LINE # 427
015F         ?C0228:
                                           ; SOURCE LINE # 429
015F 900000      R     MOV     DPTR,#value
0162 E0                MOVX    A,@DPTR
0163 FB                MOV     R3,A
0164 A3                INC     DPTR
0165 E0                MOVX    A,@DPTR
0166 FA                MOV     R2,A
C51 COMPILER V9.01   CJSON                                                                 06/17/2019 10:07:01 PAGE 119 

0167 A3                INC     DPTR
0168 E0                MOVX    A,@DPTR
0169 F9                MOV     R1,A
016A 120000      E     LCALL   ?C?CLDPTR
016D B45D08            CJNE    A,#05DH,?C0231
0170 E9                MOV     A,R1
0171         ?C0637:
0171 2401              ADD     A,#01H
0173 F9                MOV     R1,A
0174 E4                CLR     A
0175 3A                ADDC    A,R2
0176 FA                MOV     R2,A
0177 22                RET     
0178         ?C0231:
                                           ; SOURCE LINE # 430
0178 900000      R     MOV     DPTR,#value
017B E0                MOVX    A,@DPTR
017C F9                MOV     R1,A
017D A3                INC     DPTR
017E E0                MOVX    A,@DPTR
017F FA                MOV     R2,A
0180 A3                INC     DPTR
0181 E0                MOVX    A,@DPTR
0182 900000      R     MOV     DPTR,#ep
0185 C9                XCH     A,R1
0186         ?C0636:
0186 F0                MOVX    @DPTR,A
0187 A3                INC     DPTR
0188 EA                MOV     A,R2
0189 F0                MOVX    @DPTR,A
018A A3                INC     DPTR
018B E9                MOV     A,R1
018C F0                MOVX    @DPTR,A
018D 7B00              MOV     R3,#00H
018F 7A00              MOV     R2,#00H
0191 7900              MOV     R1,#00H
                                           ; SOURCE LINE # 431
0193         ?C0223:
0193 22                RET     
             ; FUNCTION _parse_array (END)

             ; FUNCTION _print_array (BEGIN)
                                           ; SOURCE LINE # 434
0000 900000      R     MOV     DPTR,#item
0003 EB                MOV     A,R3
0004 F0                MOVX    @DPTR,A
0005 A3                INC     DPTR
0006 EA                MOV     A,R2
0007 F0                MOVX    @DPTR,A
0008 A3                INC     DPTR
0009 E9                MOV     A,R1
000A F0                MOVX    @DPTR,A
000B A3                INC     DPTR
000C EC                MOV     A,R4
000D F0                MOVX    @DPTR,A
000E A3                INC     DPTR
000F ED                MOV     A,R5
0010 F0                MOVX    @DPTR,A
                                           ; SOURCE LINE # 435
                                           ; SOURCE LINE # 437
0011 900000      R     MOV     DPTR,#out
0014 E4                CLR     A
C51 COMPILER V9.01   CJSON                                                                 06/17/2019 10:07:01 PAGE 120 

0015 F0                MOVX    @DPTR,A
0016 A3                INC     DPTR
0017 F0                MOVX    @DPTR,A
0018 A3                INC     DPTR
0019 F0                MOVX    @DPTR,A
001A 900000      R     MOV     DPTR,#len
001D F0                MOVX    @DPTR,A
001E A3                INC     DPTR
001F 7405              MOV     A,#05H
0021 F0                MOVX    @DPTR,A
                                           ; SOURCE LINE # 438
0022 900000      R     MOV     DPTR,#item
0025 E0                MOVX    A,@DPTR
0026 FB                MOV     R3,A
0027 A3                INC     DPTR
0028 E0                MOVX    A,@DPTR
0029 FA                MOV     R2,A
002A A3                INC     DPTR
002B E0                MOVX    A,@DPTR
002C F9                MOV     R1,A
002D 900006            MOV     DPTR,#06H
0030 120000      E     LCALL   ?C?PLDOPTR
0033 900000      R     MOV     DPTR,#child
0036 EB                MOV     A,R3
0037 F0                MOVX    @DPTR,A
0038 A3                INC     DPTR
0039 EA                MOV     A,R2
003A F0                MOVX    @DPTR,A
003B A3                INC     DPTR
003C E9                MOV     A,R1
003D F0                MOVX    @DPTR,A
                                           ; SOURCE LINE # 439
003E E4                CLR     A
003F A3                INC     DPTR
0040 F0                MOVX    @DPTR,A
0041 A3                INC     DPTR
0042 F0                MOVX    @DPTR,A
0043 A3                INC     DPTR
0044 F0                MOVX    @DPTR,A
0045 A3                INC     DPTR
0046 F0                MOVX    @DPTR,A
0047 A3                INC     DPTR
0048 F0                MOVX    @DPTR,A
0049 A3                INC     DPTR
004A F0                MOVX    @DPTR,A
                                           ; SOURCE LINE # 440
004B A3                INC     DPTR
004C F0                MOVX    @DPTR,A
004D A3                INC     DPTR
004E F0                MOVX    @DPTR,A
004F         ?C0232:
                                           ; SOURCE LINE # 443
004F 900000      R     MOV     DPTR,#child
0052 E0                MOVX    A,@DPTR
0053 FB                MOV     R3,A
0054 A3                INC     DPTR
0055 E0                MOVX    A,@DPTR
0056 FA                MOV     R2,A
0057 A3                INC     DPTR
0058 E0                MOVX    A,@DPTR
0059 F9                MOV     R1,A
005A EA                MOV     A,R2
C51 COMPILER V9.01   CJSON                                                                 06/17/2019 10:07:01 PAGE 121 

005B 49                ORL     A,R1
005C 4B                ORL     A,R3
005D 6029              JZ      ?C0233
005F 900000      R     MOV     DPTR,#numentries+01H
0062 E0                MOVX    A,@DPTR
0063 04                INC     A
0064 F0                MOVX    @DPTR,A
0065 7006              JNZ     ?C0514
0067 900000      R     MOV     DPTR,#numentries
006A E0                MOVX    A,@DPTR
006B 04                INC     A
006C F0                MOVX    @DPTR,A
006D         ?C0514:
006D 900000      R     MOV     DPTR,#child
0070 E0                MOVX    A,@DPTR
0071 FB                MOV     R3,A
0072 A3                INC     DPTR
0073 E0                MOVX    A,@DPTR
0074 FA                MOV     R2,A
0075 A3                INC     DPTR
0076 E0                MOVX    A,@DPTR
0077 F9                MOV     R1,A
0078 120000      E     LCALL   ?C?PLDPTR
007B 900000      R     MOV     DPTR,#child
007E EB                MOV     A,R3
007F F0                MOVX    @DPTR,A
0080 A3                INC     DPTR
0081 EA                MOV     A,R2
0082 F0                MOVX    @DPTR,A
0083 A3                INC     DPTR
0084 E9                MOV     A,R1
0085 F0                MOVX    @DPTR,A
0086 80C7              SJMP    ?C0232
0088         ?C0233:
                                           ; SOURCE LINE # 445
0088 900000      R     MOV     DPTR,#numentries
008B E0                MOVX    A,@DPTR
008C 7002              JNZ     ?C0515
008E A3                INC     DPTR
008F E0                MOVX    A,@DPTR
0090         ?C0515:
0090 705E              JNZ     ?C0234
                                           ; SOURCE LINE # 446
                                           ; SOURCE LINE # 447
0092 900000      R     MOV     DPTR,#p
0095 E0                MOVX    A,@DPTR
0096 FB                MOV     R3,A
0097 A3                INC     DPTR
0098 E0                MOVX    A,@DPTR
0099 FA                MOV     R2,A
009A A3                INC     DPTR
009B E0                MOVX    A,@DPTR
009C F9                MOV     R1,A
009D EA                MOV     A,R2
009E 49                ORL     A,R1
009F 4B                ORL     A,R3
00A0 6009              JZ      ?C0235
00A2 7D03              MOV     R5,#03H
00A4 7C00              MOV     R4,#00H
00A6 120000      R     LCALL   _ensure
00A9 8013              SJMP    ?C0641
00AB         ?C0235:
C51 COMPILER V9.01   CJSON                                                                 06/17/2019 10:07:01 PAGE 122 

                                           ; SOURCE LINE # 448
00AB 900000      R     MOV     DPTR,#_cJSON_malloc
00AE A3                INC     DPTR
00AF E0                MOVX    A,@DPTR
00B0 FA                MOV     R2,A
00B1 A3                INC     DPTR
00B2 E0                MOVX    A,@DPTR
00B3 F582              MOV     DPL,A
00B5 8A83              MOV     DPH,R2
00B7 7F03              MOV     R7,#03H
00B9 7E00              MOV     R6,#00H
00BB 120000      E     LCALL   ?C?ICALL2
00BE         ?C0641:
00BE 900000      R     MOV     DPTR,#out
00C1 EB                MOV     A,R3
00C2 F0                MOVX    @DPTR,A
00C3 A3                INC     DPTR
00C4 EA                MOV     A,R2
00C5 F0                MOVX    @DPTR,A
00C6 A3                INC     DPTR
00C7 E9                MOV     A,R1
00C8 F0                MOVX    @DPTR,A
00C9         ?C0236:
                                           ; SOURCE LINE # 449
00C9 900000      R     MOV     DPTR,#out
00CC E0                MOVX    A,@DPTR
00CD FB                MOV     R3,A
00CE A3                INC     DPTR
00CF E0                MOVX    A,@DPTR
00D0 FA                MOV     R2,A
00D1 A3                INC     DPTR
00D2 E0                MOVX    A,@DPTR
00D3 F9                MOV     R1,A
00D4 EA                MOV     A,R2
00D5 49                ORL     A,R1
00D6 4B                ORL     A,R3
00D7 6014              JZ      ?C0237
00D9 900000      R     MOV     DPTR,#out
00DC A3                INC     DPTR
00DD A3                INC     DPTR
00DE E0                MOVX    A,@DPTR
00DF F8                MOV     R0,A
00E0 AC02              MOV     R4,AR2
00E2 AD03              MOV     R5,AR3
00E4 7BFF              MOV     R3,#0FFH
00E6 7A00        R     MOV     R2,#HIGH ?SC_49
00E8 7900        R     MOV     R1,#LOW ?SC_49
00EA 120000      E     LCALL   ?C?STRCPY
00ED         ?C0237:
                                           ; SOURCE LINE # 450
00ED 020000      R     LJMP    ?C0642
                                           ; SOURCE LINE # 451
00F0         ?C0234:
                                           ; SOURCE LINE # 453
00F0 900000      R     MOV     DPTR,#p
00F3 E0                MOVX    A,@DPTR
00F4 FB                MOV     R3,A
00F5 A3                INC     DPTR
00F6 E0                MOVX    A,@DPTR
00F7 FA                MOV     R2,A
00F8 A3                INC     DPTR
00F9 E0                MOVX    A,@DPTR
C51 COMPILER V9.01   CJSON                                                                 06/17/2019 10:07:01 PAGE 123 

00FA F9                MOV     R1,A
00FB EA                MOV     A,R2
00FC 49                ORL     A,R1
00FD 4B                ORL     A,R3
00FE 7003              JNZ     $ + 5H
0100 020000      R     LJMP    ?C0239
                                           ; SOURCE LINE # 454
                                           ; SOURCE LINE # 456
0103 900005            MOV     DPTR,#05H
0106 120000      E     LCALL   ?C?ILDOPTR
0109 FF                MOV     R7,A
010A 900000      R     MOV     DPTR,#i
010D E5F0              MOV     A,B
010F F0                MOVX    @DPTR,A
0110 A3                INC     DPTR
0111 EF                MOV     A,R7
0112 F0                MOVX    @DPTR,A
                                           ; SOURCE LINE # 457
0113 7D01              MOV     R5,#01H
0115 7C00              MOV     R4,#00H
0117 120000      R     LCALL   _ensure
011A 900000      R     MOV     DPTR,#ptr
011D EB                MOV     A,R3
011E F0                MOVX    @DPTR,A
011F A3                INC     DPTR
0120 EA                MOV     A,R2
0121 F0                MOVX    @DPTR,A
0122 A3                INC     DPTR
0123 E9                MOV     A,R1
0124 F0                MOVX    @DPTR,A
0125 4A                ORL     A,R2
0126 4B                ORL     A,R3
0127 7003              JNZ     ?C0240
0129 020000      R     LJMP    ?C0646
012C         ?C0240:
012C 900000      R     MOV     DPTR,#ptr
012F E0                MOVX    A,@DPTR
0130 FB                MOV     R3,A
0131 A3                INC     DPTR
0132 E0                MOVX    A,@DPTR
0133 FA                MOV     R2,A
0134 A3                INC     DPTR
0135 E0                MOVX    A,@DPTR
0136 F9                MOV     R1,A
0137 745B              MOV     A,#05BH
0139 120000      E     LCALL   ?C?CSTPTR
013C 900000      R     MOV     DPTR,#p
013F E0                MOVX    A,@DPTR
0140 FB                MOV     R3,A
0141 A3                INC     DPTR
0142 E0                MOVX    A,@DPTR
0143 FA                MOV     R2,A
0144 A3                INC     DPTR
0145 E0                MOVX    A,@DPTR
0146 F9                MOV     R1,A
0147 900005            MOV     DPTR,#05H
014A E4                CLR     A
014B 75F001            MOV     B,#01H
014E 120000      E     LCALL   ?C?IILDOPTR
                                           ; SOURCE LINE # 458
0151 900000      R     MOV     DPTR,#item
0154 E0                MOVX    A,@DPTR
C51 COMPILER V9.01   CJSON                                                                 06/17/2019 10:07:01 PAGE 124 

0155 FB                MOV     R3,A
0156 A3                INC     DPTR
0157 E0                MOVX    A,@DPTR
0158 FA                MOV     R2,A
0159 A3                INC     DPTR
015A E0                MOVX    A,@DPTR
015B F9                MOV     R1,A
015C 900006            MOV     DPTR,#06H
015F 120000      E     LCALL   ?C?PLDOPTR
0162 020000      R     LJMP    ?C0644
0165         ?C0241:
                                           ; SOURCE LINE # 459
0165 900000      R     MOV     DPTR,#child
0168 E0                MOVX    A,@DPTR
0169 FB                MOV     R3,A
016A A3                INC     DPTR
016B E0                MOVX    A,@DPTR
016C FA                MOV     R2,A
016D A3                INC     DPTR
016E E0                MOVX    A,@DPTR
016F F9                MOV     R1,A
0170 EA                MOV     A,R2
0171 49                ORL     A,R1
0172 4B                ORL     A,R3
0173 7003              JNZ     $ + 5H
0175 020000      R     LJMP    ?C0242
0178 900000      R     MOV     DPTR,#fail
017B E0                MOVX    A,@DPTR
017C 7002              JNZ     ?C0516
017E A3                INC     DPTR
017F E0                MOVX    A,@DPTR
0180         ?C0516:
0180 6003              JZ      $ + 5H
0182 020000      R     LJMP    ?C0242
                                           ; SOURCE LINE # 460
                                           ; SOURCE LINE # 461
0185 900000      R     MOV     DPTR,#depth+01H
0188 E0                MOVX    A,@DPTR
0189 2401              ADD     A,#01H
018B FD                MOV     R5,A
018C 900000      R     MOV     DPTR,#depth
018F E0                MOVX    A,@DPTR
0190 3400              ADDC    A,#00H
0192 FC                MOV     R4,A
0193 900000      R     MOV     DPTR,#fmt
0196 E0                MOVX    A,@DPTR
0197 FF                MOV     R7,A
0198 A3                INC     DPTR
0199 E0                MOVX    A,@DPTR
019A 900000      R     MOV     DPTR,#?_print_value?BYTE+05H
019D CF                XCH     A,R7
019E F0                MOVX    @DPTR,A
019F A3                INC     DPTR
01A0 EF                MOV     A,R7
01A1 F0                MOVX    @DPTR,A
01A2 900000      R     MOV     DPTR,#p
01A5 E0                MOVX    A,@DPTR
01A6 F9                MOV     R1,A
01A7 A3                INC     DPTR
01A8 E0                MOVX    A,@DPTR
01A9 FA                MOV     R2,A
01AA A3                INC     DPTR
C51 COMPILER V9.01   CJSON                                                                 06/17/2019 10:07:01 PAGE 125 

01AB E0                MOVX    A,@DPTR
01AC 900000      R     MOV     DPTR,#?_print_value?BYTE+07H
01AF C9                XCH     A,R1
01B0 F0                MOVX    @DPTR,A
01B1 A3                INC     DPTR
01B2 EA                MOV     A,R2
01B3 F0                MOVX    @DPTR,A
01B4 A3                INC     DPTR
01B5 E9                MOV     A,R1
01B6 120000      R     LCALL   L?0692
                                           ; SOURCE LINE # 462
01B9 900000      R     MOV     DPTR,#p
01BC 120000      R     LCALL   L?0698
01BF 900000      R     MOV     DPTR,#p
01C2 E0                MOVX    A,@DPTR
01C3 FB                MOV     R3,A
01C4 A3                INC     DPTR
01C5 E0                MOVX    A,@DPTR
01C6 FA                MOV     R2,A
01C7 A3                INC     DPTR
01C8 E0                MOVX    A,@DPTR
01C9 F9                MOV     R1,A
01CA 900005            MOV     DPTR,#05H
01CD EE                MOV     A,R6
01CE 8FF0              MOV     B,R7
01D0 120000      E     LCALL   ?C?ISTOPTR
                                           ; SOURCE LINE # 463
01D3 900000      R     MOV     DPTR,#child
01D6 E0                MOVX    A,@DPTR
01D7 FB                MOV     R3,A
01D8 A3                INC     DPTR
01D9 E0                MOVX    A,@DPTR
01DA FA                MOV     R2,A
01DB A3                INC     DPTR
01DC E0                MOVX    A,@DPTR
01DD F9                MOV     R1,A
01DE 120000      E     LCALL   ?C?PLDPTR
01E1 EA                MOV     A,R2
01E2 49                ORL     A,R1
01E3 4B                ORL     A,R3
01E4 7003              JNZ     $ + 5H
01E6 020000      R     LJMP    ?C0243
01E9 900000      R     MOV     DPTR,#fmt
01EC E0                MOVX    A,@DPTR
01ED 7002              JNZ     ?C0517
01EF A3                INC     DPTR
01F0 E0                MOVX    A,@DPTR
01F1         ?C0517:
01F1 7E00              MOV     R6,#00H
01F3 6004              JZ      ?C0244
01F5 7F02              MOV     R7,#02H
01F7 8002              SJMP    ?C0245
01F9         ?C0244:
01F9 7F01              MOV     R7,#01H
01FB         ?C0245:
01FB 900000      R     MOV     DPTR,#len
01FE EE                MOV     A,R6
01FF F0                MOVX    @DPTR,A
0200 A3                INC     DPTR
0201 EF                MOV     A,R7
0202 F0                MOVX    @DPTR,A
0203 900000      R     MOV     DPTR,#p
C51 COMPILER V9.01   CJSON                                                                 06/17/2019 10:07:01 PAGE 126 

0206 E0                MOVX    A,@DPTR
0207 FB                MOV     R3,A
0208 A3                INC     DPTR
0209 E0                MOVX    A,@DPTR
020A FA                MOV     R2,A
020B A3                INC     DPTR
020C E0                MOVX    A,@DPTR
020D F9                MOV     R1,A
020E EF                MOV     A,R7
020F 2401              ADD     A,#01H
0211 FD                MOV     R5,A
0212 E4                CLR     A
0213 3E                ADDC    A,R6
0214 FC                MOV     R4,A
0215 120000      R     LCALL   _ensure
0218 900000      R     MOV     DPTR,#ptr
021B EB                MOV     A,R3
021C F0                MOVX    @DPTR,A
021D A3                INC     DPTR
021E EA                MOV     A,R2
021F F0                MOVX    @DPTR,A
0220 A3                INC     DPTR
0221 E9                MOV     A,R1
0222 F0                MOVX    @DPTR,A
0223 4A                ORL     A,R2
0224 4B                ORL     A,R3
0225 7003              JNZ     ?C0246
0227         ?C0643:
0227 020000      R     LJMP    ?C0646
022A         ?C0246:
022A 900000      R     MOV     DPTR,#ptr
022D E0                MOVX    A,@DPTR
022E FB                MOV     R3,A
022F A3                INC     DPTR
0230 E4                CLR     A
0231 75F001            MOV     B,#01H
0234 120000      E     LCALL   ?C?ILDIX
0237 A9F0              MOV     R1,B
0239 FA                MOV     R2,A
023A 742C              MOV     A,#02CH
023C 120000      E     LCALL   ?C?CSTPTR
023F 900000      R     MOV     DPTR,#fmt
0242 E0                MOVX    A,@DPTR
0243 7002              JNZ     ?C0518
0245 A3                INC     DPTR
0246 E0                MOVX    A,@DPTR
0247         ?C0518:
0247 6015              JZ      ?C0247
0249 900000      R     MOV     DPTR,#ptr
024C E0                MOVX    A,@DPTR
024D FB                MOV     R3,A
024E A3                INC     DPTR
024F E4                CLR     A
0250 75F001            MOV     B,#01H
0253 120000      E     LCALL   ?C?ILDIX
0256 A9F0              MOV     R1,B
0258 FA                MOV     R2,A
0259 7420              MOV     A,#020H
025B 120000      E     LCALL   ?C?CSTPTR
025E         ?C0247:
025E 900000      R     MOV     DPTR,#ptr
0261 E0                MOVX    A,@DPTR
C51 COMPILER V9.01   CJSON                                                                 06/17/2019 10:07:01 PAGE 127 

0262 FB                MOV     R3,A
0263 A3                INC     DPTR
0264 E0                MOVX    A,@DPTR
0265 FA                MOV     R2,A
0266 A3                INC     DPTR
0267 E0                MOVX    A,@DPTR
0268 F9                MOV     R1,A
0269 E4                CLR     A
026A 120000      E     LCALL   ?C?CSTPTR
026D 900000      R     MOV     DPTR,#len
0270 E0                MOVX    A,@DPTR
0271 FE                MOV     R6,A
0272 A3                INC     DPTR
0273 E0                MOVX    A,@DPTR
0274 FF                MOV     R7,A
0275 900000      R     MOV     DPTR,#p
0278 E0                MOVX    A,@DPTR
0279 FB                MOV     R3,A
027A A3                INC     DPTR
027B E0                MOVX    A,@DPTR
027C FA                MOV     R2,A
027D A3                INC     DPTR
027E E0                MOVX    A,@DPTR
027F F9                MOV     R1,A
0280 900005            MOV     DPTR,#05H
0283 EE                MOV     A,R6
0284 8FF0              MOV     B,R7
0286 120000      E     LCALL   ?C?IILDOPTR
0289         ?C0243:
                                           ; SOURCE LINE # 464
0289 900000      R     MOV     DPTR,#child
028C E0                MOVX    A,@DPTR
028D FB                MOV     R3,A
028E A3                INC     DPTR
028F E0                MOVX    A,@DPTR
0290 FA                MOV     R2,A
0291 A3                INC     DPTR
0292 E0                MOVX    A,@DPTR
0293 F9                MOV     R1,A
0294 120000      E     LCALL   ?C?PLDPTR
0297         ?C0644:
0297 900000      R     MOV     DPTR,#child
029A EB                MOV     A,R3
029B F0                MOVX    @DPTR,A
029C A3                INC     DPTR
029D EA                MOV     A,R2
029E F0                MOVX    @DPTR,A
029F A3                INC     DPTR
02A0 E9                MOV     A,R1
02A1 F0                MOVX    @DPTR,A
                                           ; SOURCE LINE # 465
02A2 020000      R     LJMP    ?C0241
02A5         ?C0242:
                                           ; SOURCE LINE # 466
02A5 900000      R     MOV     DPTR,#p
02A8 E0                MOVX    A,@DPTR
02A9 FB                MOV     R3,A
02AA A3                INC     DPTR
02AB E0                MOVX    A,@DPTR
02AC FA                MOV     R2,A
02AD A3                INC     DPTR
02AE E0                MOVX    A,@DPTR
C51 COMPILER V9.01   CJSON                                                                 06/17/2019 10:07:01 PAGE 128 

02AF F9                MOV     R1,A
02B0 7D02              MOV     R5,#02H
02B2 7C00              MOV     R4,#00H
02B4 120000      R     LCALL   _ensure
02B7 900000      R     MOV     DPTR,#ptr
02BA EB                MOV     A,R3
02BB F0                MOVX    @DPTR,A
02BC A3                INC     DPTR
02BD EA                MOV     A,R2
02BE F0                MOVX    @DPTR,A
02BF A3                INC     DPTR
02C0 E9                MOV     A,R1
02C1 F0                MOVX    @DPTR,A
02C2 4A                ORL     A,R2
02C3 4B                ORL     A,R3
02C4 7002              JNZ     ?C0248
02C6         ?C0645:
02C6 8079              SJMP    ?C0646
02C8         ?C0248:
02C8 900000      R     MOV     DPTR,#ptr
02CB E0                MOVX    A,@DPTR
02CC FB                MOV     R3,A
02CD A3                INC     DPTR
02CE E4                CLR     A
02CF 75F001            MOV     B,#01H
02D2 120000      E     LCALL   ?C?ILDIX
02D5 A9F0              MOV     R1,B
02D7 FA                MOV     R2,A
02D8 745D              MOV     A,#05DH
02DA 120000      E     LCALL   ?C?CSTPTR
02DD 900000      R     MOV     DPTR,#ptr
02E0 E0                MOVX    A,@DPTR
02E1 FB                MOV     R3,A
02E2 A3                INC     DPTR
02E3 E0                MOVX    A,@DPTR
02E4 FA                MOV     R2,A
02E5 A3                INC     DPTR
02E6 E0                MOVX    A,@DPTR
02E7 F9                MOV     R1,A
02E8 E4                CLR     A
02E9 120000      E     LCALL   ?C?CSTPTR
                                           ; SOURCE LINE # 467
02EC 900000      R     MOV     DPTR,#p
02EF E0                MOVX    A,@DPTR
02F0 FB                MOV     R3,A
02F1 A3                INC     DPTR
02F2 E0                MOVX    A,@DPTR
02F3 FA                MOV     R2,A
02F4 A3                INC     DPTR
02F5 E0                MOVX    A,@DPTR
02F6 F9                MOV     R1,A
02F7 120000      E     LCALL   ?C?PLDPTR
02FA 900000      R     MOV     DPTR,#i
02FD E0                MOVX    A,@DPTR
02FE FE                MOV     R6,A
02FF A3                INC     DPTR
0300 E0                MOVX    A,@DPTR
0301 29                ADD     A,R1
0302 F9                MOV     R1,A
0303 EA                MOV     A,R2
0304 3E                ADDC    A,R6
0305 FA                MOV     R2,A
C51 COMPILER V9.01   CJSON                                                                 06/17/2019 10:07:01 PAGE 129 

0306 900000      R     MOV     DPTR,#out
0309 EB                MOV     A,R3
030A F0                MOVX    @DPTR,A
030B A3                INC     DPTR
030C EA                MOV     A,R2
030D F0                MOVX    @DPTR,A
030E A3                INC     DPTR
030F E9                MOV     A,R1
0310 F0                MOVX    @DPTR,A
                                           ; SOURCE LINE # 468
0311 020000      R     LJMP    ?C0249
0314         ?C0239:
                                           ; SOURCE LINE # 470
                                           ; SOURCE LINE # 472
0314 900000      R     MOV     DPTR,#numentries
0317 E0                MOVX    A,@DPTR
0318 FE                MOV     R6,A
0319 A3                INC     DPTR
031A E0                MOVX    A,@DPTR
031B FF                MOV     R7,A
031C 7C00              MOV     R4,#00H
031E 7D03              MOV     R5,#03H
0320 120000      E     LCALL   ?C?IMUL
0323 900000      R     MOV     DPTR,#_cJSON_malloc
0326 A3                INC     DPTR
0327 E0                MOVX    A,@DPTR
0328 FA                MOV     R2,A
0329 A3                INC     DPTR
032A E0                MOVX    A,@DPTR
032B F582              MOV     DPL,A
032D 8A83              MOV     DPH,R2
032F 120000      E     LCALL   ?C?ICALL2
0332 900000      R     MOV     DPTR,#entries
0335 EB                MOV     A,R3
0336 F0                MOVX    @DPTR,A
0337 A3                INC     DPTR
0338 EA                MOV     A,R2
0339 F0                MOVX    @DPTR,A
033A A3                INC     DPTR
033B E9                MOV     A,R1
033C F0                MOVX    @DPTR,A
                                           ; SOURCE LINE # 473
033D 4A                ORL     A,R2
033E 4B                ORL     A,R3
033F 7004              JNZ     ?C0250
0341         ?C0646:
0341 FB                MOV     R3,A
0342 FA                MOV     R2,A
0343 F9                MOV     R1,A
0344 22                RET     
0345         ?C0250:
                                           ; SOURCE LINE # 474
0345 900000      R     MOV     DPTR,#numentries
0348 E0                MOVX    A,@DPTR
0349 FE                MOV     R6,A
034A A3                INC     DPTR
034B E0                MOVX    A,@DPTR
034C FF                MOV     R7,A
034D 7C00              MOV     R4,#00H
034F 7D03              MOV     R5,#03H
0351 120000      E     LCALL   ?C?IMUL
0354 7D00              MOV     R5,#00H
C51 COMPILER V9.01   CJSON                                                                 06/17/2019 10:07:01 PAGE 130 

0356 900000      R     MOV     DPTR,#entries
0359 E0                MOVX    A,@DPTR
035A FB                MOV     R3,A
035B A3                INC     DPTR
035C E0                MOVX    A,@DPTR
035D FA                MOV     R2,A
035E A3                INC     DPTR
035F E0                MOVX    A,@DPTR
0360 F9                MOV     R1,A
0361 120000      E     LCALL   ?C?MEMSET
                                           ; SOURCE LINE # 476
0364 900000      R     MOV     DPTR,#item
0367 E0                MOVX    A,@DPTR
0368 FB                MOV     R3,A
0369 A3                INC     DPTR
036A E0                MOVX    A,@DPTR
036B FA                MOV     R2,A
036C A3                INC     DPTR
036D E0                MOVX    A,@DPTR
036E F9                MOV     R1,A
036F 900006            MOV     DPTR,#06H
0372 120000      E     LCALL   ?C?PLDOPTR
0375 020000      R     LJMP    ?C0647
0378         ?C0251:
                                           ; SOURCE LINE # 477
0378 900000      R     MOV     DPTR,#child
037B E0                MOVX    A,@DPTR
037C FB                MOV     R3,A
037D A3                INC     DPTR
037E E0                MOVX    A,@DPTR
037F FA                MOV     R2,A
0380 A3                INC     DPTR
0381 E0                MOVX    A,@DPTR
0382 F9                MOV     R1,A
0383 EA                MOV     A,R2
0384 49                ORL     A,R1
0385 4B                ORL     A,R3
0386 7003              JNZ     $ + 5H
0388 020000      R     LJMP    ?C0252
038B 900000      R     MOV     DPTR,#fail
038E E0                MOVX    A,@DPTR
038F 7002              JNZ     ?C0519
0391 A3                INC     DPTR
0392 E0                MOVX    A,@DPTR
0393         ?C0519:
0393 6003              JZ      $ + 5H
0395 020000      R     LJMP    ?C0252
                                           ; SOURCE LINE # 478
                                           ; SOURCE LINE # 479
0398 900000      R     MOV     DPTR,#depth+01H
039B E0                MOVX    A,@DPTR
039C 2401              ADD     A,#01H
039E FD                MOV     R5,A
039F 900000      R     MOV     DPTR,#depth
03A2 E0                MOVX    A,@DPTR
03A3 3400              ADDC    A,#00H
03A5 FC                MOV     R4,A
03A6 900000      R     MOV     DPTR,#fmt
03A9 E0                MOVX    A,@DPTR
03AA FF                MOV     R7,A
03AB A3                INC     DPTR
03AC E0                MOVX    A,@DPTR
C51 COMPILER V9.01   CJSON                                                                 06/17/2019 10:07:01 PAGE 131 

03AD 900000      R     MOV     DPTR,#?_print_value?BYTE+05H
03B0 CF                XCH     A,R7
03B1 F0                MOVX    @DPTR,A
03B2 A3                INC     DPTR
03B3 EF                MOV     A,R7
03B4 F0                MOVX    @DPTR,A
03B5 A3                INC     DPTR
03B6 E4                CLR     A
03B7 F0                MOVX    @DPTR,A
03B8 A3                INC     DPTR
03B9 F0                MOVX    @DPTR,A
03BA A3                INC     DPTR
03BB 120000      R     LCALL   L?0692
03BE 900000      R     MOV     DPTR,#ret
03C1 EB                MOV     A,R3
03C2 F0                MOVX    @DPTR,A
03C3 A3                INC     DPTR
03C4 EA                MOV     A,R2
03C5 F0                MOVX    @DPTR,A
03C6 A3                INC     DPTR
03C7 E9                MOV     A,R1
03C8 F0                MOVX    @DPTR,A
                                           ; SOURCE LINE # 480
03C9 900000      R     MOV     DPTR,#ret
03CC E0                MOVX    A,@DPTR
03CD FB                MOV     R3,A
03CE A3                INC     DPTR
03CF E0                MOVX    A,@DPTR
03D0 FA                MOV     R2,A
03D1 A3                INC     DPTR
03D2 E0                MOVX    A,@DPTR
03D3 F9                MOV     R1,A
03D4 C003              PUSH    AR3
03D6 C002              PUSH    AR2
03D8 C001              PUSH    AR1
03DA 900000      R     MOV     DPTR,#entries
03DD E0                MOVX    A,@DPTR
03DE FB                MOV     R3,A
03DF A3                INC     DPTR
03E0 E0                MOVX    A,@DPTR
03E1 FA                MOV     R2,A
03E2 A3                INC     DPTR
03E3 E0                MOVX    A,@DPTR
03E4 F9                MOV     R1,A
03E5 900000      R     MOV     DPTR,#i
03E8 E4                CLR     A
03E9 75F001            MOV     B,#01H
03EC 120000      E     LCALL   ?C?ILDIX
03EF 85F082            MOV     DPL,B
03F2 F583              MOV     DPH,A
03F4 7403              MOV     A,#03H
03F6 120000      E     LCALL   ?C?OFFX256
03F9 120000      E     LCALL   ?C?PSTOPTR
                                           ; SOURCE LINE # 481
03FC 900000      R     MOV     DPTR,#ret
03FF E0                MOVX    A,@DPTR
0400 FB                MOV     R3,A
0401 A3                INC     DPTR
0402 E0                MOVX    A,@DPTR
0403 FA                MOV     R2,A
0404 A3                INC     DPTR
0405 E0                MOVX    A,@DPTR
C51 COMPILER V9.01   CJSON                                                                 06/17/2019 10:07:01 PAGE 132 

0406 F9                MOV     R1,A
0407 EA                MOV     A,R2
0408 49                ORL     A,R1
0409 4B                ORL     A,R3
040A 6036              JZ      ?C0253
040C 900000      R     MOV     DPTR,#ret
040F A3                INC     DPTR
0410 A3                INC     DPTR
0411 E0                MOVX    A,@DPTR
0412 120000      E     LCALL   _strlen
0415 EF                MOV     A,R7
0416 2402              ADD     A,#02H
0418 FF                MOV     R7,A
0419 E4                CLR     A
041A 3E                ADDC    A,R6
041B FE                MOV     R6,A
041C 900000      R     MOV     DPTR,#fmt
041F E0                MOVX    A,@DPTR
0420 7002              JNZ     ?C0520
0422 A3                INC     DPTR
0423 E0                MOVX    A,@DPTR
0424         ?C0520:
0424 7C00              MOV     R4,#00H
0426 6004              JZ      ?C0254
0428 7D01              MOV     R5,#01H
042A 8002              SJMP    ?C0255
042C         ?C0254:
042C 7D00              MOV     R5,#00H
042E         ?C0255:
042E EF                MOV     A,R7
042F 2D                ADD     A,R5
0430 FF                MOV     R7,A
0431 EE                MOV     A,R6
0432 3C                ADDC    A,R4
0433 FE                MOV     R6,A
0434 900000      R     MOV     DPTR,#len+01H
0437 E0                MOVX    A,@DPTR
0438 2F                ADD     A,R7
0439 F0                MOVX    @DPTR,A
043A 900000      R     MOV     DPTR,#len
043D E0                MOVX    A,@DPTR
043E 3E                ADDC    A,R6
043F F0                MOVX    @DPTR,A
0440 8008              SJMP    ?C0256
0442         ?C0253:
0442 900000      R     MOV     DPTR,#fail
0445 E4                CLR     A
0446 F0                MOVX    @DPTR,A
0447 A3                INC     DPTR
0448 04                INC     A
0449 F0                MOVX    @DPTR,A
044A         ?C0256:
                                           ; SOURCE LINE # 482
044A 900000      R     MOV     DPTR,#child
044D E0                MOVX    A,@DPTR
044E FB                MOV     R3,A
044F A3                INC     DPTR
0450 E0                MOVX    A,@DPTR
0451 FA                MOV     R2,A
0452 A3                INC     DPTR
0453 E0                MOVX    A,@DPTR
0454 F9                MOV     R1,A
C51 COMPILER V9.01   CJSON                                                                 06/17/2019 10:07:01 PAGE 133 

0455 120000      E     LCALL   ?C?PLDPTR
0458         ?C0647:
0458 900000      R     MOV     DPTR,#child
045B EB                MOV     A,R3
045C F0                MOVX    @DPTR,A
045D A3                INC     DPTR
045E EA                MOV     A,R2
045F F0                MOVX    @DPTR,A
0460 A3                INC     DPTR
0461 E9                MOV     A,R1
0462 F0                MOVX    @DPTR,A
                                           ; SOURCE LINE # 483
0463 020000      R     LJMP    ?C0251
0466         ?C0252:
                                           ; SOURCE LINE # 486
0466 900000      R     MOV     DPTR,#fail
0469 E0                MOVX    A,@DPTR
046A 7002              JNZ     ?C0521
046C A3                INC     DPTR
046D E0                MOVX    A,@DPTR
046E         ?C0521:
046E 7022              JNZ     ?C0257
0470 900000      R     MOV     DPTR,#len
0473 E0                MOVX    A,@DPTR
0474 FE                MOV     R6,A
0475 A3                INC     DPTR
0476 E0                MOVX    A,@DPTR
0477 FF                MOV     R7,A
0478 900000      R     MOV     DPTR,#_cJSON_malloc
047B A3                INC     DPTR
047C E0                MOVX    A,@DPTR
047D FA                MOV     R2,A
047E A3                INC     DPTR
047F E0                MOVX    A,@DPTR
0480 F582              MOV     DPL,A
0482 8A83              MOV     DPH,R2
0484 120000      E     LCALL   ?C?ICALL2
0487 900000      R     MOV     DPTR,#out
048A EB                MOV     A,R3
048B F0                MOVX    @DPTR,A
048C A3                INC     DPTR
048D EA                MOV     A,R2
048E F0                MOVX    @DPTR,A
048F A3                INC     DPTR
0490 E9                MOV     A,R1
0491 F0                MOVX    @DPTR,A
0492         ?C0257:
                                           ; SOURCE LINE # 488
0492 900000      R     MOV     DPTR,#out
0495 E0                MOVX    A,@DPTR
0496 FB                MOV     R3,A
0497 A3                INC     DPTR
0498 E0                MOVX    A,@DPTR
0499 FA                MOV     R2,A
049A A3                INC     DPTR
049B E0                MOVX    A,@DPTR
049C F9                MOV     R1,A
049D EA                MOV     A,R2
049E 49                ORL     A,R1
049F 4B                ORL     A,R3
04A0 7007              JNZ     ?C0258
04A2 900000      R     MOV     DPTR,#fail
C51 COMPILER V9.01   CJSON                                                                 06/17/2019 10:07:01 PAGE 134 

04A5 F0                MOVX    @DPTR,A
04A6 A3                INC     DPTR
04A7 04                INC     A
04A8 F0                MOVX    @DPTR,A
04A9         ?C0258:
                                           ; SOURCE LINE # 491
04A9 900000      R     MOV     DPTR,#fail
04AC E0                MOVX    A,@DPTR
04AD 7002              JNZ     ?C0522
04AF A3                INC     DPTR
04B0 E0                MOVX    A,@DPTR
04B1         ?C0522:
04B1 7003              JNZ     $ + 5H
04B3 020000      R     LJMP    ?C0259
                                           ; SOURCE LINE # 492
                                           ; SOURCE LINE # 493
04B6 E4                CLR     A
04B7 900000      R     MOV     DPTR,#i
04BA F0                MOVX    @DPTR,A
04BB A3                INC     DPTR
04BC F0                MOVX    @DPTR,A
04BD         ?C0260:
04BD 900000      R     MOV     DPTR,#numentries
04C0 E0                MOVX    A,@DPTR
04C1 FE                MOV     R6,A
04C2 A3                INC     DPTR
04C3 E0                MOVX    A,@DPTR
04C4 FF                MOV     R7,A
04C5 A3                INC     DPTR
04C6 E0                MOVX    A,@DPTR
04C7 FC                MOV     R4,A
04C8 A3                INC     DPTR
04C9 E0                MOVX    A,@DPTR
04CA FD                MOV     R5,A
04CB C3                CLR     C
04CC 9F                SUBB    A,R7
04CD EE                MOV     A,R6
04CE 6480              XRL     A,#080H
04D0 F8                MOV     R0,A
04D1 EC                MOV     A,R4
04D2 6480              XRL     A,#080H
04D4 98                SUBB    A,R0
04D5 5056              JNC     ?C0261
04D7 900000      R     MOV     DPTR,#entries
04DA E0                MOVX    A,@DPTR
04DB FB                MOV     R3,A
04DC A3                INC     DPTR
04DD E0                MOVX    A,@DPTR
04DE FA                MOV     R2,A
04DF A3                INC     DPTR
04E0 E0                MOVX    A,@DPTR
04E1 F9                MOV     R1,A
04E2 8D82              MOV     DPL,R5
04E4 8C83              MOV     DPH,R4
04E6 7403              MOV     A,#03H
04E8 120000      E     LCALL   ?C?OFFX256
04EB 120000      E     LCALL   ?C?PLDOPTR
04EE EA                MOV     A,R2
04EF 49                ORL     A,R1
04F0 4B                ORL     A,R3
04F1 602A              JZ      ?C0262
04F3 900000      R     MOV     DPTR,#entries
C51 COMPILER V9.01   CJSON                                                                 06/17/2019 10:07:01 PAGE 135 

04F6 E0                MOVX    A,@DPTR
04F7 FB                MOV     R3,A
04F8 A3                INC     DPTR
04F9 E0                MOVX    A,@DPTR
04FA FA                MOV     R2,A
04FB A3                INC     DPTR
04FC E0                MOVX    A,@DPTR
04FD F9                MOV     R1,A
04FE 8D82              MOV     DPL,R5
0500 8C83              MOV     DPH,R4
0502 7403              MOV     A,#03H
0504 120000      E     LCALL   ?C?OFFX256
0507 120000      E     LCALL   ?C?PLDOPTR
050A C002              PUSH    AR2
050C 900000      R     MOV     DPTR,#_cJSON_free
050F A3                INC     DPTR
0510 E0                MOVX    A,@DPTR
0511 FA                MOV     R2,A
0512 A3                INC     DPTR
0513 E0                MOVX    A,@DPTR
0514 F582              MOV     DPL,A
0516 8A83              MOV     DPH,R2
0518 D002              POP     AR2
051A 120000      E     LCALL   ?C?ICALL2
051D         ?C0262:
051D 900000      R     MOV     DPTR,#i+01H
0520 E0                MOVX    A,@DPTR
0521 04                INC     A
0522 F0                MOVX    @DPTR,A
0523 7098              JNZ     ?C0260
0525 900000      R     MOV     DPTR,#i
0528 E0                MOVX    A,@DPTR
0529 04                INC     A
052A F0                MOVX    @DPTR,A
052B         ?C0523:
052B 8090              SJMP    ?C0260
052D         ?C0261:
                                           ; SOURCE LINE # 494
052D 900000      R     MOV     DPTR,#entries
0530 E0                MOVX    A,@DPTR
0531 FB                MOV     R3,A
0532 A3                INC     DPTR
0533 E0                MOVX    A,@DPTR
0534 FA                MOV     R2,A
0535 A3                INC     DPTR
0536 E0                MOVX    A,@DPTR
0537 F9                MOV     R1,A
0538 C002              PUSH    AR2
053A 900000      R     MOV     DPTR,#_cJSON_free
053D A3                INC     DPTR
053E E0                MOVX    A,@DPTR
053F FA                MOV     R2,A
0540 A3                INC     DPTR
0541 E0                MOVX    A,@DPTR
0542 F582              MOV     DPL,A
0544 8A83              MOV     DPH,R2
0546 D002              POP     AR2
0548 120000      E     LCALL   ?C?ICALL2
                                           ; SOURCE LINE # 495
054B 7B00              MOV     R3,#00H
054D 7A00              MOV     R2,#00H
054F 7900              MOV     R1,#00H
C51 COMPILER V9.01   CJSON                                                                 06/17/2019 10:07:01 PAGE 136 

0551 22                RET     
                                           ; SOURCE LINE # 496
0552         ?C0259:
                                           ; SOURCE LINE # 499
0552 900000      R     MOV     DPTR,#out
0555 E0                MOVX    A,@DPTR
0556 FB                MOV     R3,A
0557 A3                INC     DPTR
0558 E0                MOVX    A,@DPTR
0559 FA                MOV     R2,A
055A A3                INC     DPTR
055B E0                MOVX    A,@DPTR
055C F9                MOV     R1,A
055D 745B              MOV     A,#05BH
055F 120000      E     LCALL   ?C?CSTPTR
                                           ; SOURCE LINE # 500
0562 900000      R     MOV     DPTR,#out
0565 E0                MOVX    A,@DPTR
0566 FB                MOV     R3,A
0567 A3                INC     DPTR
0568 E0                MOVX    A,@DPTR
0569 FA                MOV     R2,A
056A A3                INC     DPTR
056B E0                MOVX    A,@DPTR
056C 2401              ADD     A,#01H
056E F9                MOV     R1,A
056F E4                CLR     A
0570 3A                ADDC    A,R2
0571 FA                MOV     R2,A
0572 A3                INC     DPTR
0573 EB                MOV     A,R3
0574 F0                MOVX    @DPTR,A
0575 A3                INC     DPTR
0576 EA                MOV     A,R2
0577 F0                MOVX    @DPTR,A
0578 A3                INC     DPTR
0579 E9                MOV     A,R1
057A F0                MOVX    @DPTR,A
057B E4                CLR     A
057C 120000      E     LCALL   ?C?CSTPTR
                                           ; SOURCE LINE # 501
057F 900000      R     MOV     DPTR,#i
0582 F0                MOVX    @DPTR,A
0583 A3                INC     DPTR
0584 F0                MOVX    @DPTR,A
0585         ?C0264:
0585 900000      R     MOV     DPTR,#numentries
0588 E0                MOVX    A,@DPTR
0589 FE                MOV     R6,A
058A A3                INC     DPTR
058B E0                MOVX    A,@DPTR
058C FF                MOV     R7,A
058D A3                INC     DPTR
058E E0                MOVX    A,@DPTR
058F FC                MOV     R4,A
0590 A3                INC     DPTR
0591 E0                MOVX    A,@DPTR
0592 FD                MOV     R5,A
0593 C3                CLR     C
0594 9F                SUBB    A,R7
0595 EE                MOV     A,R6
0596 6480              XRL     A,#080H
C51 COMPILER V9.01   CJSON                                                                 06/17/2019 10:07:01 PAGE 137 

0598 F8                MOV     R0,A
0599 EC                MOV     A,R4
059A 6480              XRL     A,#080H
059C 98                SUBB    A,R0
059D 4003              JC      $ + 5H
059F 020000      R     LJMP    ?C0265
                                           ; SOURCE LINE # 502
                                           ; SOURCE LINE # 503
05A2 900000      R     MOV     DPTR,#entries
05A5 E0                MOVX    A,@DPTR
05A6 FB                MOV     R3,A
05A7 A3                INC     DPTR
05A8 E0                MOVX    A,@DPTR
05A9 FA                MOV     R2,A
05AA A3                INC     DPTR
05AB E0                MOVX    A,@DPTR
05AC F9                MOV     R1,A
05AD 8D82              MOV     DPL,R5
05AF 8C83              MOV     DPH,R4
05B1 7403              MOV     A,#03H
05B3 120000      E     LCALL   ?C?OFFX256
05B6 120000      E     LCALL   ?C?PLDOPTR
05B9 120000      E     LCALL   _strlen
05BC 900000      R     MOV     DPTR,#tmplen
05BF EE                MOV     A,R6
05C0 F0                MOVX    @DPTR,A
05C1 A3                INC     DPTR
05C2 EF                MOV     A,R7
05C3 F0                MOVX    @DPTR,A
05C4 900000      R     MOV     DPTR,#tmplen
05C7 E0                MOVX    A,@DPTR
05C8 FE                MOV     R6,A
05C9 A3                INC     DPTR
05CA E0                MOVX    A,@DPTR
05CB FF                MOV     R7,A
05CC 900000      R     MOV     DPTR,#entries
05CF E0                MOVX    A,@DPTR
05D0 FB                MOV     R3,A
05D1 A3                INC     DPTR
05D2 E0                MOVX    A,@DPTR
05D3 FA                MOV     R2,A
05D4 A3                INC     DPTR
05D5 E0                MOVX    A,@DPTR
05D6 F9                MOV     R1,A
05D7 900000      R     MOV     DPTR,#i
05DA E0                MOVX    A,@DPTR
05DB FC                MOV     R4,A
05DC A3                INC     DPTR
05DD E0                MOVX    A,@DPTR
05DE F582              MOV     DPL,A
05E0 8C83              MOV     DPH,R4
05E2 7403              MOV     A,#03H
05E4 120000      E     LCALL   ?C?OFFX256
05E7 120000      E     LCALL   ?C?PLDOPTR
05EA C003              PUSH    AR3
05EC C002              PUSH    AR2
05EE 900000      R     MOV     DPTR,#ptr
05F1 E0                MOVX    A,@DPTR
05F2 FB                MOV     R3,A
05F3 A3                INC     DPTR
05F4 E0                MOVX    A,@DPTR
05F5 FA                MOV     R2,A
C51 COMPILER V9.01   CJSON                                                                 06/17/2019 10:07:01 PAGE 138 

05F6 A3                INC     DPTR
05F7 E0                MOVX    A,@DPTR
05F8 F8                MOV     R0,A
05F9 AC02              MOV     R4,AR2
05FB AD03              MOV     R5,AR3
05FD D002              POP     AR2
05FF D003              POP     AR3
0601 120000      E     LCALL   ?C?COPY
0604 900000      R     MOV     DPTR,#tmplen
0607 E0                MOVX    A,@DPTR
0608 FE                MOV     R6,A
0609 A3                INC     DPTR
060A E0                MOVX    A,@DPTR
060B FF                MOV     R7,A
060C 900000      R     MOV     DPTR,#ptr+01H
060F EE                MOV     A,R6
0610 8FF0              MOV     B,R7
0612 120000      E     LCALL   ?C?IILDX
                                           ; SOURCE LINE # 504
0615 900000      R     MOV     DPTR,#numentries+01H
0618 E0                MOVX    A,@DPTR
0619 24FF              ADD     A,#0FFH
061B FF                MOV     R7,A
061C 900000      R     MOV     DPTR,#numentries
061F E0                MOVX    A,@DPTR
0620 34FF              ADDC    A,#0FFH
0622 FE                MOV     R6,A
0623 900000      R     MOV     DPTR,#i
0626 E0                MOVX    A,@DPTR
0627 6E                XRL     A,R6
0628 7003              JNZ     ?C0524
062A A3                INC     DPTR
062B E0                MOVX    A,@DPTR
062C 6F                XRL     A,R7
062D         ?C0524:
062D 6043              JZ      ?C0267
062F 900000      R     MOV     DPTR,#ptr
0632 E0                MOVX    A,@DPTR
0633 FB                MOV     R3,A
0634 A3                INC     DPTR
0635 E4                CLR     A
0636 75F001            MOV     B,#01H
0639 120000      E     LCALL   ?C?ILDIX
063C A9F0              MOV     R1,B
063E FA                MOV     R2,A
063F 742C              MOV     A,#02CH
0641 120000      E     LCALL   ?C?CSTPTR
0644 900000      R     MOV     DPTR,#fmt
0647 E0                MOVX    A,@DPTR
0648 7002              JNZ     ?C0525
064A A3                INC     DPTR
064B E0                MOVX    A,@DPTR
064C         ?C0525:
064C 6015              JZ      ?C0268
064E 900000      R     MOV     DPTR,#ptr
0651 E0                MOVX    A,@DPTR
0652 FB                MOV     R3,A
0653 A3                INC     DPTR
0654 E4                CLR     A
0655 75F001            MOV     B,#01H
0658 120000      E     LCALL   ?C?ILDIX
065B A9F0              MOV     R1,B
C51 COMPILER V9.01   CJSON                                                                 06/17/2019 10:07:01 PAGE 139 

065D FA                MOV     R2,A
065E 7420              MOV     A,#020H
0660 120000      E     LCALL   ?C?CSTPTR
0663         ?C0268:
0663 900000      R     MOV     DPTR,#ptr
0666 E0                MOVX    A,@DPTR
0667 FB                MOV     R3,A
0668 A3                INC     DPTR
0669 E0                MOVX    A,@DPTR
066A FA                MOV     R2,A
066B A3                INC     DPTR
066C E0                MOVX    A,@DPTR
066D F9                MOV     R1,A
066E E4                CLR     A
066F 120000      E     LCALL   ?C?CSTPTR
0672         ?C0267:
                                           ; SOURCE LINE # 505
0672 900000      R     MOV     DPTR,#entries
0675 E0                MOVX    A,@DPTR
0676 FB                MOV     R3,A
0677 A3                INC     DPTR
0678 E0                MOVX    A,@DPTR
0679 FA                MOV     R2,A
067A A3                INC     DPTR
067B E0                MOVX    A,@DPTR
067C F9                MOV     R1,A
067D 900000      R     MOV     DPTR,#i
0680 E0                MOVX    A,@DPTR
0681 FE                MOV     R6,A
0682 A3                INC     DPTR
0683 E0                MOVX    A,@DPTR
0684 F582              MOV     DPL,A
0686 8E83              MOV     DPH,R6
0688 7403              MOV     A,#03H
068A 120000      E     LCALL   ?C?OFFX256
068D 120000      E     LCALL   ?C?PLDOPTR
0690 C002              PUSH    AR2
0692 900000      R     MOV     DPTR,#_cJSON_free
0695 A3                INC     DPTR
0696 E0                MOVX    A,@DPTR
0697 FA                MOV     R2,A
0698 A3                INC     DPTR
0699 E0                MOVX    A,@DPTR
069A F582              MOV     DPL,A
069C 8A83              MOV     DPH,R2
069E D002              POP     AR2
06A0 120000      E     LCALL   ?C?ICALL2
                                           ; SOURCE LINE # 506
06A3 900000      R     MOV     DPTR,#i+01H
06A6 E0                MOVX    A,@DPTR
06A7 04                INC     A
06A8 F0                MOVX    @DPTR,A
06A9 7006              JNZ     ?C0526
06AB 900000      R     MOV     DPTR,#i
06AE E0                MOVX    A,@DPTR
06AF 04                INC     A
06B0 F0                MOVX    @DPTR,A
06B1         ?C0526:
06B1 020000      R     LJMP    ?C0264
06B4         ?C0265:
                                           ; SOURCE LINE # 507
06B4 900000      R     MOV     DPTR,#entries
C51 COMPILER V9.01   CJSON                                                                 06/17/2019 10:07:01 PAGE 140 

06B7 E0                MOVX    A,@DPTR
06B8 FB                MOV     R3,A
06B9 A3                INC     DPTR
06BA E0                MOVX    A,@DPTR
06BB FA                MOV     R2,A
06BC A3                INC     DPTR
06BD E0                MOVX    A,@DPTR
06BE F9                MOV     R1,A
06BF C002              PUSH    AR2
06C1 900000      R     MOV     DPTR,#_cJSON_free
06C4 A3                INC     DPTR
06C5 E0                MOVX    A,@DPTR
06C6 FA                MOV     R2,A
06C7 A3                INC     DPTR
06C8 E0                MOVX    A,@DPTR
06C9 F582              MOV     DPL,A
06CB 8A83              MOV     DPH,R2
06CD D002              POP     AR2
06CF 120000      E     LCALL   ?C?ICALL2
                                           ; SOURCE LINE # 508
06D2 900000      R     MOV     DPTR,#ptr
06D5 E0                MOVX    A,@DPTR
06D6 FB                MOV     R3,A
06D7 A3                INC     DPTR
06D8 E4                CLR     A
06D9 75F001            MOV     B,#01H
06DC 120000      E     LCALL   ?C?ILDIX
06DF A9F0              MOV     R1,B
06E1 FA                MOV     R2,A
06E2 745D              MOV     A,#05DH
06E4 120000      E     LCALL   ?C?CSTPTR
06E7 900000      R     MOV     DPTR,#ptr
06EA E0                MOVX    A,@DPTR
06EB FB                MOV     R3,A
06EC A3                INC     DPTR
06ED E4                CLR     A
06EE 75F001            MOV     B,#01H
06F1 120000      E     LCALL   ?C?ILDIX
06F4 A9F0              MOV     R1,B
06F6 FA                MOV     R2,A
06F7 E4                CLR     A
06F8 120000      E     LCALL   ?C?CSTPTR
                                           ; SOURCE LINE # 509
06FB         ?C0249:
                                           ; SOURCE LINE # 510
06FB         ?C0642:
06FB 900000      R     MOV     DPTR,#out
06FE E0                MOVX    A,@DPTR
06FF FB                MOV     R3,A
0700 A3                INC     DPTR
0701 E0                MOVX    A,@DPTR
0702 FA                MOV     R2,A
0703 A3                INC     DPTR
0704 E0                MOVX    A,@DPTR
0705 F9                MOV     R1,A
                                           ; SOURCE LINE # 511
0706         ?C0238:
0706 22                RET     
             ; FUNCTION _print_array (END)

             ; FUNCTION _parse_object (BEGIN)
                                           ; SOURCE LINE # 514
C51 COMPILER V9.01   CJSON                                                                 06/17/2019 10:07:01 PAGE 141 

0000 900000      R     MOV     DPTR,#item
0003 EB                MOV     A,R3
0004 F0                MOVX    @DPTR,A
0005 A3                INC     DPTR
0006 EA                MOV     A,R2
0007 F0                MOVX    @DPTR,A
0008 A3                INC     DPTR
0009 E9                MOV     A,R1
000A F0                MOVX    @DPTR,A
                                           ; SOURCE LINE # 515
                                           ; SOURCE LINE # 517
000B A3                INC     DPTR
000C E0                MOVX    A,@DPTR
000D FB                MOV     R3,A
000E A3                INC     DPTR
000F E0                MOVX    A,@DPTR
0010 FA                MOV     R2,A
0011 A3                INC     DPTR
0012 E0                MOVX    A,@DPTR
0013 F9                MOV     R1,A
0014 120000      E     LCALL   ?C?CLDPTR
0017 647B              XRL     A,#07BH
0019 6003              JZ      ?C0269
001B 020000      R     LJMP    ?C0652
001E         ?C0269:
                                           ; SOURCE LINE # 519
001E 900000      R     MOV     DPTR,#item
0021 E0                MOVX    A,@DPTR
0022 FB                MOV     R3,A
0023 A3                INC     DPTR
0024 E0                MOVX    A,@DPTR
0025 FA                MOV     R2,A
0026 A3                INC     DPTR
0027 E0                MOVX    A,@DPTR
0028 F9                MOV     R1,A
0029 900009            MOV     DPTR,#09H
002C E4                CLR     A
002D 75F006            MOV     B,#06H
0030 120000      E     LCALL   ?C?ISTOPTR
                                           ; SOURCE LINE # 520
0033 120000      R     LCALL   L?0681
0036 900000      R     MOV     DPTR,#value
0039 EB                MOV     A,R3
003A F0                MOVX    @DPTR,A
003B A3                INC     DPTR
003C EA                MOV     A,R2
003D F0                MOVX    @DPTR,A
003E A3                INC     DPTR
003F E9                MOV     A,R1
0040 F0                MOVX    @DPTR,A
                                           ; SOURCE LINE # 521
0041 120000      E     LCALL   ?C?CLDPTR
0044 B47D0D            CJNE    A,#07DH,?C0271
0047 900000      R     MOV     DPTR,#value
004A E0                MOVX    A,@DPTR
004B FB                MOV     R3,A
004C A3                INC     DPTR
004D E0                MOVX    A,@DPTR
004E FA                MOV     R2,A
004F A3                INC     DPTR
0050 E0                MOVX    A,@DPTR
0051 020000      R     LJMP    ?C0649
C51 COMPILER V9.01   CJSON                                                                 06/17/2019 10:07:01 PAGE 142 

0054         ?C0271:
                                           ; SOURCE LINE # 523
0054 120000      R     LCALL   cJSON_New_Item
0057 900000      R     MOV     DPTR,#child
005A EB                MOV     A,R3
005B F0                MOVX    @DPTR,A
005C A3                INC     DPTR
005D EA                MOV     A,R2
005E F0                MOVX    @DPTR,A
005F A3                INC     DPTR
0060 E9                MOV     A,R1
0061 F0                MOVX    @DPTR,A
0062 C003              PUSH    AR3
0064 C002              PUSH    AR2
0066 C001              PUSH    AR1
0068 900000      R     MOV     DPTR,#item
006B E0                MOVX    A,@DPTR
006C FB                MOV     R3,A
006D A3                INC     DPTR
006E E0                MOVX    A,@DPTR
006F FA                MOV     R2,A
0070 A3                INC     DPTR
0071 E0                MOVX    A,@DPTR
0072 F9                MOV     R1,A
0073 900006            MOV     DPTR,#06H
0076 120000      E     LCALL   ?C?PSTOPTR
                                           ; SOURCE LINE # 524
0079 900000      R     MOV     DPTR,#item
007C E0                MOVX    A,@DPTR
007D FB                MOV     R3,A
007E A3                INC     DPTR
007F E0                MOVX    A,@DPTR
0080 FA                MOV     R2,A
0081 A3                INC     DPTR
0082 E0                MOVX    A,@DPTR
0083 F9                MOV     R1,A
0084 900006            MOV     DPTR,#06H
0087 120000      E     LCALL   ?C?PLDOPTR
008A EA                MOV     A,R2
008B 49                ORL     A,R1
008C 4B                ORL     A,R3
008D 7003              JNZ     ?C0272
008F 020000      R     LJMP    ?C0655
0092         ?C0272:
                                           ; SOURCE LINE # 525
0092 900000      R     MOV     DPTR,#value
0095 E0                MOVX    A,@DPTR
0096 FB                MOV     R3,A
0097 A3                INC     DPTR
0098 E0                MOVX    A,@DPTR
0099 FA                MOV     R2,A
009A A3                INC     DPTR
009B E0                MOVX    A,@DPTR
009C F9                MOV     R1,A
009D 120000      R     LCALL   _skip
00A0 120000      R     LCALL   L?0696
00A3 120000      R     LCALL   _skip
00A6 900000      R     MOV     DPTR,#value
00A9 EB                MOV     A,R3
00AA F0                MOVX    @DPTR,A
00AB A3                INC     DPTR
00AC EA                MOV     A,R2
C51 COMPILER V9.01   CJSON                                                                 06/17/2019 10:07:01 PAGE 143 

00AD F0                MOVX    @DPTR,A
00AE A3                INC     DPTR
00AF E9                MOV     A,R1
00B0 F0                MOVX    @DPTR,A
                                           ; SOURCE LINE # 526
00B1 4A                ORL     A,R2
00B2 4B                ORL     A,R3
00B3 7003              JNZ     ?C0273
00B5         ?C0650:
00B5 020000      R     LJMP    ?C0655
00B8         ?C0273:
                                           ; SOURCE LINE # 527
00B8 900000      R     MOV     DPTR,#child
00BB E0                MOVX    A,@DPTR
00BC FB                MOV     R3,A
00BD A3                INC     DPTR
00BE E0                MOVX    A,@DPTR
00BF FA                MOV     R2,A
00C0 A3                INC     DPTR
00C1 E0                MOVX    A,@DPTR
00C2 F9                MOV     R1,A
00C3 90000B            MOV     DPTR,#0BH
00C6 120000      E     LCALL   ?C?PLDOPTR
00C9 C003              PUSH    AR3
00CB C002              PUSH    AR2
00CD C001              PUSH    AR1
00CF 900000      R     MOV     DPTR,#child
00D2 E0                MOVX    A,@DPTR
00D3 FB                MOV     R3,A
00D4 A3                INC     DPTR
00D5 E0                MOVX    A,@DPTR
00D6 FA                MOV     R2,A
00D7 A3                INC     DPTR
00D8 E0                MOVX    A,@DPTR
00D9 F9                MOV     R1,A
00DA 900014            MOV     DPTR,#014H
00DD 120000      E     LCALL   ?C?PSTOPTR
00E0 7B00              MOV     R3,#00H
00E2 7A00              MOV     R2,#00H
00E4 7900              MOV     R1,#00H
00E6 C003              PUSH    AR3
00E8 C002              PUSH    AR2
00EA C001              PUSH    AR1
00EC 900000      R     MOV     DPTR,#child
00EF E0                MOVX    A,@DPTR
00F0 FB                MOV     R3,A
00F1 A3                INC     DPTR
00F2 E0                MOVX    A,@DPTR
00F3 FA                MOV     R2,A
00F4 A3                INC     DPTR
00F5 E0                MOVX    A,@DPTR
00F6 F9                MOV     R1,A
00F7 90000B            MOV     DPTR,#0BH
00FA 120000      E     LCALL   ?C?PSTOPTR
                                           ; SOURCE LINE # 528
00FD 900000      R     MOV     DPTR,#value
0100 E0                MOVX    A,@DPTR
0101 FB                MOV     R3,A
0102 A3                INC     DPTR
0103 E0                MOVX    A,@DPTR
0104 FA                MOV     R2,A
0105 A3                INC     DPTR
C51 COMPILER V9.01   CJSON                                                                 06/17/2019 10:07:01 PAGE 144 

0106 E0                MOVX    A,@DPTR
0107 F9                MOV     R1,A
0108 120000      E     LCALL   ?C?CLDPTR
010B 643A              XRL     A,#03AH
010D 6003              JZ      ?C0274
010F         ?C0648:
010F 020000      R     LJMP    ?C0652
0112         ?C0274:
                                           ; SOURCE LINE # 529
0112 120000      R     LCALL   L?0681
0115 900000      R     MOV     DPTR,#?_parse_value?BYTE+03H
0118 EB                MOV     A,R3
0119 F0                MOVX    @DPTR,A
011A A3                INC     DPTR
011B EA                MOV     A,R2
011C F0                MOVX    @DPTR,A
011D A3                INC     DPTR
011E E9                MOV     A,R1
011F F0                MOVX    @DPTR,A
0120 900000      R     MOV     DPTR,#child
0123 120000      R     LCALL   L?0685
0126 120000      R     LCALL   _skip
0129 900000      R     MOV     DPTR,#value
012C EB                MOV     A,R3
012D F0                MOVX    @DPTR,A
012E A3                INC     DPTR
012F EA                MOV     A,R2
0130 F0                MOVX    @DPTR,A
0131 A3                INC     DPTR
0132 E9                MOV     A,R1
0133 F0                MOVX    @DPTR,A
                                           ; SOURCE LINE # 530
0134 4A                ORL     A,R2
0135 4B                ORL     A,R3
0136 7003              JNZ     ?C0276
0138         ?C0651:
0138 020000      R     LJMP    ?C0655
013B         ?C0276:
                                           ; SOURCE LINE # 532
013B 900000      R     MOV     DPTR,#value
013E E0                MOVX    A,@DPTR
013F FB                MOV     R3,A
0140 A3                INC     DPTR
0141 E0                MOVX    A,@DPTR
0142 FA                MOV     R2,A
0143 A3                INC     DPTR
0144 E0                MOVX    A,@DPTR
0145 F9                MOV     R1,A
0146 120000      E     LCALL   ?C?CLDPTR
0149 642C              XRL     A,#02CH
014B 6003              JZ      $ + 5H
014D 020000      R     LJMP    ?C0277
                                           ; SOURCE LINE # 533
                                           ; SOURCE LINE # 535
0150 120000      R     LCALL   cJSON_New_Item
0153 900000      R     MOV     DPTR,#new_item
0156 EB                MOV     A,R3
0157 F0                MOVX    @DPTR,A
0158 A3                INC     DPTR
0159 EA                MOV     A,R2
015A F0                MOVX    @DPTR,A
015B A3                INC     DPTR
C51 COMPILER V9.01   CJSON                                                                 06/17/2019 10:07:01 PAGE 145 

015C E9                MOV     A,R1
015D F0                MOVX    @DPTR,A
015E 4A                ORL     A,R2
015F 4B                ORL     A,R3
0160 7003              JNZ     ?C0278
0162         ?C0653:
0162 020000      R     LJMP    ?C0655
0165         ?C0278:
                                           ; SOURCE LINE # 536
0165 900000      R     MOV     DPTR,#new_item
0168 E0                MOVX    A,@DPTR
0169 FB                MOV     R3,A
016A A3                INC     DPTR
016B E0                MOVX    A,@DPTR
016C FA                MOV     R2,A
016D A3                INC     DPTR
016E E0                MOVX    A,@DPTR
016F F9                MOV     R1,A
0170 C003              PUSH    AR3
0172 C002              PUSH    AR2
0174 C001              PUSH    AR1
0176 900000      R     MOV     DPTR,#child
0179 E0                MOVX    A,@DPTR
017A FB                MOV     R3,A
017B A3                INC     DPTR
017C E0                MOVX    A,@DPTR
017D FA                MOV     R2,A
017E A3                INC     DPTR
017F E0                MOVX    A,@DPTR
0180 F9                MOV     R1,A
0181 120000      E     LCALL   ?C?PSTPTR
0184 900000      R     MOV     DPTR,#child
0187 E0                MOVX    A,@DPTR
0188 FB                MOV     R3,A
0189 A3                INC     DPTR
018A E0                MOVX    A,@DPTR
018B FA                MOV     R2,A
018C A3                INC     DPTR
018D E0                MOVX    A,@DPTR
018E F9                MOV     R1,A
018F C003              PUSH    AR3
0191 C002              PUSH    AR2
0193 C001              PUSH    AR1
0195 A3                INC     DPTR
0196 E0                MOVX    A,@DPTR
0197 FB                MOV     R3,A
0198 A3                INC     DPTR
0199 E0                MOVX    A,@DPTR
019A FA                MOV     R2,A
019B A3                INC     DPTR
019C E0                MOVX    A,@DPTR
019D F9                MOV     R1,A
019E 900003            MOV     DPTR,#03H
01A1 120000      E     LCALL   ?C?PSTOPTR
01A4 900000      R     MOV     DPTR,#new_item
01A7 E0                MOVX    A,@DPTR
01A8 F9                MOV     R1,A
01A9 A3                INC     DPTR
01AA E0                MOVX    A,@DPTR
01AB FA                MOV     R2,A
01AC A3                INC     DPTR
01AD E0                MOVX    A,@DPTR
C51 COMPILER V9.01   CJSON                                                                 06/17/2019 10:07:01 PAGE 146 

01AE 900000      R     MOV     DPTR,#child
01B1 C9                XCH     A,R1
01B2 F0                MOVX    @DPTR,A
01B3 A3                INC     DPTR
01B4 EA                MOV     A,R2
01B5 F0                MOVX    @DPTR,A
01B6 A3                INC     DPTR
01B7 E9                MOV     A,R1
01B8 F0                MOVX    @DPTR,A
                                           ; SOURCE LINE # 537
01B9 120000      R     LCALL   L?0682
01BC 120000      R     LCALL   L?0696
01BF 120000      R     LCALL   _skip
01C2 900000      R     MOV     DPTR,#value
01C5 EB                MOV     A,R3
01C6 F0                MOVX    @DPTR,A
01C7 A3                INC     DPTR
01C8 EA                MOV     A,R2
01C9 F0                MOVX    @DPTR,A
01CA A3                INC     DPTR
01CB E9                MOV     A,R1
01CC F0                MOVX    @DPTR,A
                                           ; SOURCE LINE # 538
01CD 4A                ORL     A,R2
01CE 4B                ORL     A,R3
01CF 7003              JNZ     ?C0279
01D1         ?C0654:
01D1 020000      R     LJMP    ?C0655
01D4         ?C0279:
                                           ; SOURCE LINE # 539
01D4 900000      R     MOV     DPTR,#child
01D7 E0                MOVX    A,@DPTR
01D8 FB                MOV     R3,A
01D9 A3                INC     DPTR
01DA E0                MOVX    A,@DPTR
01DB FA                MOV     R2,A
01DC A3                INC     DPTR
01DD E0                MOVX    A,@DPTR
01DE F9                MOV     R1,A
01DF 90000B            MOV     DPTR,#0BH
01E2 120000      E     LCALL   ?C?PLDOPTR
01E5 C003              PUSH    AR3
01E7 C002              PUSH    AR2
01E9 C001              PUSH    AR1
01EB 900000      R     MOV     DPTR,#child
01EE E0                MOVX    A,@DPTR
01EF FB                MOV     R3,A
01F0 A3                INC     DPTR
01F1 E0                MOVX    A,@DPTR
01F2 FA                MOV     R2,A
01F3 A3                INC     DPTR
01F4 E0                MOVX    A,@DPTR
01F5 F9                MOV     R1,A
01F6 900014            MOV     DPTR,#014H
01F9 120000      E     LCALL   ?C?PSTOPTR
01FC 7B00              MOV     R3,#00H
01FE 7A00              MOV     R2,#00H
0200 7900              MOV     R1,#00H
0202 C003              PUSH    AR3
0204 C002              PUSH    AR2
0206 C001              PUSH    AR1
0208 900000      R     MOV     DPTR,#child
C51 COMPILER V9.01   CJSON                                                                 06/17/2019 10:07:01 PAGE 147 

020B E0                MOVX    A,@DPTR
020C FB                MOV     R3,A
020D A3                INC     DPTR
020E E0                MOVX    A,@DPTR
020F FA                MOV     R2,A
0210 A3                INC     DPTR
0211 E0                MOVX    A,@DPTR
0212 F9                MOV     R1,A
0213 90000B            MOV     DPTR,#0BH
0216 120000      E     LCALL   ?C?PSTOPTR
                                           ; SOURCE LINE # 540
0219 900000      R     MOV     DPTR,#value
021C E0                MOVX    A,@DPTR
021D FB                MOV     R3,A
021E A3                INC     DPTR
021F E0                MOVX    A,@DPTR
0220 FA                MOV     R2,A
0221 A3                INC     DPTR
0222 E0                MOVX    A,@DPTR
0223 F9                MOV     R1,A
0224 120000      E     LCALL   ?C?CLDPTR
0227 643A              XRL     A,#03AH
0229 6006              JZ      ?C0280
022B         ?C0652:
022B 900000      R     MOV     DPTR,#ep
022E EB                MOV     A,R3
022F 8054              SJMP    ?C0656
0231         ?C0280:
                                           ; SOURCE LINE # 541
0231 120000      R     LCALL   L?0682
0234 900000      R     MOV     DPTR,#?_parse_value?BYTE+03H
0237 EB                MOV     A,R3
0238 F0                MOVX    @DPTR,A
0239 A3                INC     DPTR
023A EA                MOV     A,R2
023B F0                MOVX    @DPTR,A
023C A3                INC     DPTR
023D E9                MOV     A,R1
023E F0                MOVX    @DPTR,A
023F 900000      R     MOV     DPTR,#child
0242 120000      R     LCALL   L?0685
0245 120000      R     LCALL   _skip
0248 900000      R     MOV     DPTR,#value
024B EB                MOV     A,R3
024C F0                MOVX    @DPTR,A
024D A3                INC     DPTR
024E EA                MOV     A,R2
024F F0                MOVX    @DPTR,A
0250 A3                INC     DPTR
0251 E9                MOV     A,R1
0252 F0                MOVX    @DPTR,A
                                           ; SOURCE LINE # 542
0253 4A                ORL     A,R2
0254 4B                ORL     A,R3
0255 6003              JZ      $ + 5H
0257 020000      R     LJMP    ?C0276
025A         ?C0655:
025A FB                MOV     R3,A
025B FA                MOV     R2,A
025C F9                MOV     R1,A
025D 22                RET     
                                           ; SOURCE LINE # 543
C51 COMPILER V9.01   CJSON                                                                 06/17/2019 10:07:01 PAGE 148 

025E         ?C0277:
                                           ; SOURCE LINE # 545
025E 900000      R     MOV     DPTR,#value
0261 E0                MOVX    A,@DPTR
0262 FB                MOV     R3,A
0263 A3                INC     DPTR
0264 E0                MOVX    A,@DPTR
0265 FA                MOV     R2,A
0266 A3                INC     DPTR
0267 E0                MOVX    A,@DPTR
0268 F9                MOV     R1,A
0269 120000      E     LCALL   ?C?CLDPTR
026C B47D08            CJNE    A,#07DH,?C0282
026F E9                MOV     A,R1
0270         ?C0649:
0270 2401              ADD     A,#01H
0272 F9                MOV     R1,A
0273 E4                CLR     A
0274 3A                ADDC    A,R2
0275 FA                MOV     R2,A
0276 22                RET     
0277         ?C0282:
                                           ; SOURCE LINE # 546
0277 900000      R     MOV     DPTR,#value
027A E0                MOVX    A,@DPTR
027B F9                MOV     R1,A
027C A3                INC     DPTR
027D E0                MOVX    A,@DPTR
027E FA                MOV     R2,A
027F A3                INC     DPTR
0280 E0                MOVX    A,@DPTR
0281 900000      R     MOV     DPTR,#ep
0284 C9                XCH     A,R1
0285         ?C0656:
0285 F0                MOVX    @DPTR,A
0286 A3                INC     DPTR
0287 EA                MOV     A,R2
0288 F0                MOVX    @DPTR,A
0289 A3                INC     DPTR
028A E9                MOV     A,R1
028B F0                MOVX    @DPTR,A
028C 7B00              MOV     R3,#00H
028E 7A00              MOV     R2,#00H
0290 7900              MOV     R1,#00H
                                           ; SOURCE LINE # 547
0292         ?C0270:
0292 22                RET     
             ; FUNCTION _parse_object (END)

             ; FUNCTION _print_object (BEGIN)
                                           ; SOURCE LINE # 550
0000 900000      R     MOV     DPTR,#item
0003 EB                MOV     A,R3
0004 F0                MOVX    @DPTR,A
0005 A3                INC     DPTR
0006 EA                MOV     A,R2
0007 F0                MOVX    @DPTR,A
0008 A3                INC     DPTR
0009 E9                MOV     A,R1
000A F0                MOVX    @DPTR,A
000B A3                INC     DPTR
000C EC                MOV     A,R4
C51 COMPILER V9.01   CJSON                                                                 06/17/2019 10:07:01 PAGE 149 

000D F0                MOVX    @DPTR,A
000E A3                INC     DPTR
000F ED                MOV     A,R5
0010 F0                MOVX    @DPTR,A
                                           ; SOURCE LINE # 551
                                           ; SOURCE LINE # 552
0011 900000      R     MOV     DPTR,#entries
0014 E4                CLR     A
0015 F0                MOVX    @DPTR,A
0016 A3                INC     DPTR
0017 F0                MOVX    @DPTR,A
0018 A3                INC     DPTR
0019 F0                MOVX    @DPTR,A
001A F9                MOV     R1,A
001B A3                INC     DPTR
001C C9                XCH     A,R1
001D F0                MOVX    @DPTR,A
001E A3                INC     DPTR
001F F0                MOVX    @DPTR,A
0020 A3                INC     DPTR
0021 E9                MOV     A,R1
0022 F0                MOVX    @DPTR,A
                                           ; SOURCE LINE # 553
0023 A3                INC     DPTR
0024 E4                CLR     A
0025 F0                MOVX    @DPTR,A
0026 A3                INC     DPTR
0027 F0                MOVX    @DPTR,A
0028 A3                INC     DPTR
0029 F0                MOVX    @DPTR,A
002A 900000      R     MOV     DPTR,#len
002D F0                MOVX    @DPTR,A
002E A3                INC     DPTR
002F 7407              MOV     A,#07H
0031 F0                MOVX    @DPTR,A
0032 E4                CLR     A
0033 A3                INC     DPTR
0034 F0                MOVX    @DPTR,A
0035 A3                INC     DPTR
0036 F0                MOVX    @DPTR,A
                                           ; SOURCE LINE # 554
0037 900000      R     MOV     DPTR,#item
003A E0                MOVX    A,@DPTR
003B FB                MOV     R3,A
003C A3                INC     DPTR
003D E0                MOVX    A,@DPTR
003E FA                MOV     R2,A
003F A3                INC     DPTR
0040 E0                MOVX    A,@DPTR
0041 F9                MOV     R1,A
0042 900006            MOV     DPTR,#06H
0045 120000      E     LCALL   ?C?PLDOPTR
0048 900000      R     MOV     DPTR,#child
004B EB                MOV     A,R3
004C F0                MOVX    @DPTR,A
004D A3                INC     DPTR
004E EA                MOV     A,R2
004F F0                MOVX    @DPTR,A
0050 A3                INC     DPTR
0051 E9                MOV     A,R1
0052 F0                MOVX    @DPTR,A
                                           ; SOURCE LINE # 555
C51 COMPILER V9.01   CJSON                                                                 06/17/2019 10:07:01 PAGE 150 

0053 E4                CLR     A
0054 A3                INC     DPTR
0055 F0                MOVX    @DPTR,A
0056 A3                INC     DPTR
0057 F0                MOVX    @DPTR,A
0058 A3                INC     DPTR
0059 F0                MOVX    @DPTR,A
005A A3                INC     DPTR
005B F0                MOVX    @DPTR,A
                                           ; SOURCE LINE # 556
005C A3                INC     DPTR
005D F0                MOVX    @DPTR,A
005E A3                INC     DPTR
005F F0                MOVX    @DPTR,A
0060         ?C0283:
                                           ; SOURCE LINE # 558
0060 900000      R     MOV     DPTR,#child
0063 E0                MOVX    A,@DPTR
0064 FB                MOV     R3,A
0065 A3                INC     DPTR
0066 E0                MOVX    A,@DPTR
0067 FA                MOV     R2,A
0068 A3                INC     DPTR
0069 E0                MOVX    A,@DPTR
006A F9                MOV     R1,A
006B EA                MOV     A,R2
006C 49                ORL     A,R1
006D 4B                ORL     A,R3
006E 6029              JZ      ?C0284
0070 900000      R     MOV     DPTR,#numentries+01H
0073 E0                MOVX    A,@DPTR
0074 04                INC     A
0075 F0                MOVX    @DPTR,A
0076 7006              JNZ     ?C0527
0078 900000      R     MOV     DPTR,#numentries
007B E0                MOVX    A,@DPTR
007C 04                INC     A
007D F0                MOVX    @DPTR,A
007E         ?C0527:
007E 900000      R     MOV     DPTR,#child
0081 E0                MOVX    A,@DPTR
0082 FB                MOV     R3,A
0083 A3                INC     DPTR
0084 E0                MOVX    A,@DPTR
0085 FA                MOV     R2,A
0086 A3                INC     DPTR
0087 E0                MOVX    A,@DPTR
0088 F9                MOV     R1,A
0089 120000      E     LCALL   ?C?PLDPTR
008C 900000      R     MOV     DPTR,#child
008F EB                MOV     A,R3
0090 F0                MOVX    @DPTR,A
0091 A3                INC     DPTR
0092 EA                MOV     A,R2
0093 F0                MOVX    @DPTR,A
0094 A3                INC     DPTR
0095 E9                MOV     A,R1
0096 F0                MOVX    @DPTR,A
0097 80C7              SJMP    ?C0283
0099         ?C0284:
                                           ; SOURCE LINE # 560
0099 900000      R     MOV     DPTR,#numentries
C51 COMPILER V9.01   CJSON                                                                 06/17/2019 10:07:01 PAGE 151 

009C E0                MOVX    A,@DPTR
009D 7002              JNZ     ?C0528
009F A3                INC     DPTR
00A0 E0                MOVX    A,@DPTR
00A1         ?C0528:
00A1 6003              JZ      $ + 5H
00A3 020000      R     LJMP    ?C0285
                                           ; SOURCE LINE # 561
                                           ; SOURCE LINE # 562
00A6 900000      R     MOV     DPTR,#p
00A9 E0                MOVX    A,@DPTR
00AA FB                MOV     R3,A
00AB A3                INC     DPTR
00AC E0                MOVX    A,@DPTR
00AD FA                MOV     R2,A
00AE A3                INC     DPTR
00AF E0                MOVX    A,@DPTR
00B0 F9                MOV     R1,A
00B1 EA                MOV     A,R2
00B2 49                ORL     A,R1
00B3 4B                ORL     A,R3
00B4 6026              JZ      ?C0286
00B6 900000      R     MOV     DPTR,#fmt
00B9 E0                MOVX    A,@DPTR
00BA 7002              JNZ     ?C0529
00BC A3                INC     DPTR
00BD E0                MOVX    A,@DPTR
00BE         ?C0529:
00BE 6013              JZ      ?C0287
00C0 900000      R     MOV     DPTR,#depth+01H
00C3 E0                MOVX    A,@DPTR
00C4 2404              ADD     A,#04H
00C6 FF                MOV     R7,A
00C7 900000      R     MOV     DPTR,#depth
00CA E0                MOVX    A,@DPTR
00CB 3400              ADDC    A,#00H
00CD FE                MOV     R6,A
00CE FC                MOV     R4,A
00CF AD07              MOV     R5,AR7
00D1 8004              SJMP    ?C0288
00D3         ?C0287:
00D3 7C00              MOV     R4,#00H
00D5 7D03              MOV     R5,#03H
00D7         ?C0288:
00D7 120000      R     LCALL   _ensure
00DA 802D              SJMP    ?C0657
00DC         ?C0286:
                                           ; SOURCE LINE # 563
00DC 900000      R     MOV     DPTR,#fmt
00DF E0                MOVX    A,@DPTR
00E0 7002              JNZ     ?C0530
00E2 A3                INC     DPTR
00E3 E0                MOVX    A,@DPTR
00E4         ?C0530:
00E4 6010              JZ      ?C0290
00E6 900000      R     MOV     DPTR,#depth+01H
00E9 E0                MOVX    A,@DPTR
00EA 2404              ADD     A,#04H
00EC FF                MOV     R7,A
00ED 900000      R     MOV     DPTR,#depth
00F0 E0                MOVX    A,@DPTR
00F1 3400              ADDC    A,#00H
C51 COMPILER V9.01   CJSON                                                                 06/17/2019 10:07:01 PAGE 152 

00F3 FE                MOV     R6,A
00F4 8004              SJMP    ?C0291
00F6         ?C0290:
00F6 7E00              MOV     R6,#00H
00F8 7F03              MOV     R7,#03H
00FA         ?C0291:
00FA 900000      R     MOV     DPTR,#_cJSON_malloc
00FD A3                INC     DPTR
00FE E0                MOVX    A,@DPTR
00FF FA                MOV     R2,A
0100 A3                INC     DPTR
0101 E0                MOVX    A,@DPTR
0102 F582              MOV     DPL,A
0104 8A83              MOV     DPH,R2
0106 120000      E     LCALL   ?C?ICALL2
0109         ?C0657:
0109 900000      R     MOV     DPTR,#out
010C EB                MOV     A,R3
010D F0                MOVX    @DPTR,A
010E A3                INC     DPTR
010F EA                MOV     A,R2
0110 F0                MOVX    @DPTR,A
0111 A3                INC     DPTR
0112 E9                MOV     A,R1
0113 F0                MOVX    @DPTR,A
0114         ?C0289:
                                           ; SOURCE LINE # 564
0114 900000      R     MOV     DPTR,#out
0117 E0                MOVX    A,@DPTR
0118 FB                MOV     R3,A
0119 A3                INC     DPTR
011A E0                MOVX    A,@DPTR
011B FA                MOV     R2,A
011C A3                INC     DPTR
011D E0                MOVX    A,@DPTR
011E F9                MOV     R1,A
011F EA                MOV     A,R2
0120 49                ORL     A,R1
0121 4B                ORL     A,R3
0122 7003              JNZ     ?C0292
0124 020000      R     LJMP    ?C0664
0127         ?C0292:
                                           ; SOURCE LINE # 565
0127 900000      R     MOV     DPTR,#out
012A E0                MOVX    A,@DPTR
012B F9                MOV     R1,A
012C A3                INC     DPTR
012D E0                MOVX    A,@DPTR
012E FA                MOV     R2,A
012F A3                INC     DPTR
0130 E0                MOVX    A,@DPTR
0131 A3                INC     DPTR
0132 C9                XCH     A,R1
0133 F0                MOVX    @DPTR,A
0134 A3                INC     DPTR
0135 EA                MOV     A,R2
0136 F0                MOVX    @DPTR,A
0137 A3                INC     DPTR
0138 E9                MOV     A,R1
0139 F0                MOVX    @DPTR,A
013A 900000      R     MOV     DPTR,#ptr
013D E0                MOVX    A,@DPTR
C51 COMPILER V9.01   CJSON                                                                 06/17/2019 10:07:01 PAGE 153 

013E FB                MOV     R3,A
013F A3                INC     DPTR
0140 E4                CLR     A
0141 75F001            MOV     B,#01H
0144 120000      E     LCALL   ?C?ILDIX
0147 A9F0              MOV     R1,B
0149 FA                MOV     R2,A
014A 747B              MOV     A,#07BH
014C 120000      E     LCALL   ?C?CSTPTR
                                           ; SOURCE LINE # 566
014F 900000      R     MOV     DPTR,#fmt
0152 E0                MOVX    A,@DPTR
0153 7002              JNZ     ?C0531
0155 A3                INC     DPTR
0156 E0                MOVX    A,@DPTR
0157         ?C0531:
0157 6062              JZ      ?C0294
0159 900000      R     MOV     DPTR,#ptr
015C E0                MOVX    A,@DPTR
015D FB                MOV     R3,A
015E A3                INC     DPTR
015F E4                CLR     A
0160 75F001            MOV     B,#01H
0163 120000      E     LCALL   ?C?ILDIX
0166 A9F0              MOV     R1,B
0168 FA                MOV     R2,A
0169 740A              MOV     A,#0AH
016B 120000      E     LCALL   ?C?CSTPTR
016E E4                CLR     A
016F 900000      R     MOV     DPTR,#i
0172 F0                MOVX    @DPTR,A
0173 A3                INC     DPTR
0174 F0                MOVX    @DPTR,A
0175         ?C0295:
0175 900000      R     MOV     DPTR,#depth+01H
0178 E0                MOVX    A,@DPTR
0179 24FF              ADD     A,#0FFH
017B FF                MOV     R7,A
017C 900000      R     MOV     DPTR,#depth
017F E0                MOVX    A,@DPTR
0180 34FF              ADDC    A,#0FFH
0182 FE                MOV     R6,A
0183 C3                CLR     C
0184 900000      R     MOV     DPTR,#i+01H
0187 E0                MOVX    A,@DPTR
0188 9F                SUBB    A,R7
0189 EE                MOV     A,R6
018A 6480              XRL     A,#080H
018C F8                MOV     R0,A
018D 900000      R     MOV     DPTR,#i
0190 E0                MOVX    A,@DPTR
0191 6480              XRL     A,#080H
0193 98                SUBB    A,R0
0194 5025              JNC     ?C0294
0196 900000      R     MOV     DPTR,#ptr
0199 E0                MOVX    A,@DPTR
019A FB                MOV     R3,A
019B A3                INC     DPTR
019C E4                CLR     A
019D 75F001            MOV     B,#01H
01A0 120000      E     LCALL   ?C?ILDIX
01A3 A9F0              MOV     R1,B
C51 COMPILER V9.01   CJSON                                                                 06/17/2019 10:07:01 PAGE 154 

01A5 FA                MOV     R2,A
01A6 7409              MOV     A,#09H
01A8 120000      E     LCALL   ?C?CSTPTR
01AB 900000      R     MOV     DPTR,#i+01H
01AE E0                MOVX    A,@DPTR
01AF 04                INC     A
01B0 F0                MOVX    @DPTR,A
01B1 70C2              JNZ     ?C0295
01B3 900000      R     MOV     DPTR,#i
01B6 E0                MOVX    A,@DPTR
01B7 04                INC     A
01B8 F0                MOVX    @DPTR,A
01B9         ?C0532:
01B9 80BA              SJMP    ?C0295
01BB         ?C0294:
                                           ; SOURCE LINE # 567
01BB 900000      R     MOV     DPTR,#ptr
01BE E0                MOVX    A,@DPTR
01BF FB                MOV     R3,A
01C0 A3                INC     DPTR
01C1 E4                CLR     A
01C2 75F001            MOV     B,#01H
01C5 120000      E     LCALL   ?C?ILDIX
01C8 A9F0              MOV     R1,B
01CA FA                MOV     R2,A
01CB 747D              MOV     A,#07DH
01CD 120000      E     LCALL   ?C?CSTPTR
01D0 900000      R     MOV     DPTR,#ptr
01D3 E0                MOVX    A,@DPTR
01D4 FB                MOV     R3,A
01D5 A3                INC     DPTR
01D6 E4                CLR     A
01D7 75F001            MOV     B,#01H
01DA 120000      E     LCALL   ?C?ILDIX
01DD A9F0              MOV     R1,B
01DF FA                MOV     R2,A
01E0 E4                CLR     A
01E1 120000      E     LCALL   ?C?CSTPTR
                                           ; SOURCE LINE # 568
01E4 020000      R     LJMP    ?C0659
                                           ; SOURCE LINE # 569
01E7         ?C0285:
                                           ; SOURCE LINE # 570
01E7 900000      R     MOV     DPTR,#p
01EA E0                MOVX    A,@DPTR
01EB FB                MOV     R3,A
01EC A3                INC     DPTR
01ED E0                MOVX    A,@DPTR
01EE FA                MOV     R2,A
01EF A3                INC     DPTR
01F0 E0                MOVX    A,@DPTR
01F1 F9                MOV     R1,A
01F2 EA                MOV     A,R2
01F3 49                ORL     A,R1
01F4 4B                ORL     A,R3
01F5 7003              JNZ     $ + 5H
01F7 020000      R     LJMP    ?C0298
                                           ; SOURCE LINE # 571
                                           ; SOURCE LINE # 573
01FA 900005            MOV     DPTR,#05H
01FD 120000      E     LCALL   ?C?ILDOPTR
0200 FF                MOV     R7,A
C51 COMPILER V9.01   CJSON                                                                 06/17/2019 10:07:01 PAGE 155 

0201 900000      R     MOV     DPTR,#i
0204 E5F0              MOV     A,B
0206 F0                MOVX    @DPTR,A
0207 A3                INC     DPTR
0208 EF                MOV     A,R7
0209 F0                MOVX    @DPTR,A
                                           ; SOURCE LINE # 574
020A 900000      R     MOV     DPTR,#fmt
020D E0                MOVX    A,@DPTR
020E 7002              JNZ     ?C0533
0210 A3                INC     DPTR
0211 E0                MOVX    A,@DPTR
0212         ?C0533:
0212 7E00              MOV     R6,#00H
0214 6004              JZ      ?C0299
0216 7F02              MOV     R7,#02H
0218 8002              SJMP    ?C0300
021A         ?C0299:
021A 7F01              MOV     R7,#01H
021C         ?C0300:
021C 900000      R     MOV     DPTR,#len
021F EE                MOV     A,R6
0220 F0                MOVX    @DPTR,A
0221 A3                INC     DPTR
0222 EF                MOV     A,R7
0223 F0                MOVX    @DPTR,A
0224 900000      R     MOV     DPTR,#p
0227 E0                MOVX    A,@DPTR
0228 FB                MOV     R3,A
0229 A3                INC     DPTR
022A E0                MOVX    A,@DPTR
022B FA                MOV     R2,A
022C A3                INC     DPTR
022D E0                MOVX    A,@DPTR
022E F9                MOV     R1,A
022F EF                MOV     A,R7
0230 2401              ADD     A,#01H
0232 FD                MOV     R5,A
0233 E4                CLR     A
0234 3E                ADDC    A,R6
0235 FC                MOV     R4,A
0236 120000      R     LCALL   _ensure
0239 900000      R     MOV     DPTR,#ptr
023C EB                MOV     A,R3
023D F0                MOVX    @DPTR,A
023E A3                INC     DPTR
023F EA                MOV     A,R2
0240 F0                MOVX    @DPTR,A
0241 A3                INC     DPTR
0242 E9                MOV     A,R1
0243 F0                MOVX    @DPTR,A
0244 4A                ORL     A,R2
0245 4B                ORL     A,R3
0246 7003              JNZ     ?C0301
0248         ?C0658:
0248 020000      R     LJMP    ?C0664
024B         ?C0301:
                                           ; SOURCE LINE # 575
024B 900000      R     MOV     DPTR,#ptr
024E E0                MOVX    A,@DPTR
024F FB                MOV     R3,A
0250 A3                INC     DPTR
C51 COMPILER V9.01   CJSON                                                                 06/17/2019 10:07:01 PAGE 156 

0251 E4                CLR     A
0252 75F001            MOV     B,#01H
0255 120000      E     LCALL   ?C?ILDIX
0258 A9F0              MOV     R1,B
025A FA                MOV     R2,A
025B 747B              MOV     A,#07BH
025D 120000      E     LCALL   ?C?CSTPTR
0260 900000      R     MOV     DPTR,#fmt
0263 E0                MOVX    A,@DPTR
0264 7002              JNZ     ?C0534
0266 A3                INC     DPTR
0267 E0                MOVX    A,@DPTR
0268         ?C0534:
0268 6015              JZ      ?C0302
026A 900000      R     MOV     DPTR,#ptr
026D E0                MOVX    A,@DPTR
026E FB                MOV     R3,A
026F A3                INC     DPTR
0270 E4                CLR     A
0271 75F001            MOV     B,#01H
0274 120000      E     LCALL   ?C?ILDIX
0277 A9F0              MOV     R1,B
0279 FA                MOV     R2,A
027A 740A              MOV     A,#0AH
027C 120000      E     LCALL   ?C?CSTPTR
027F         ?C0302:
027F 900000      R     MOV     DPTR,#ptr
0282 E0                MOVX    A,@DPTR
0283 FB                MOV     R3,A
0284 A3                INC     DPTR
0285 E0                MOVX    A,@DPTR
0286 FA                MOV     R2,A
0287 A3                INC     DPTR
0288 E0                MOVX    A,@DPTR
0289 F9                MOV     R1,A
028A E4                CLR     A
028B 120000      E     LCALL   ?C?CSTPTR
028E 900000      R     MOV     DPTR,#len
0291 E0                MOVX    A,@DPTR
0292 FE                MOV     R6,A
0293 A3                INC     DPTR
0294 E0                MOVX    A,@DPTR
0295 FF                MOV     R7,A
0296 900000      R     MOV     DPTR,#p
0299 E0                MOVX    A,@DPTR
029A FB                MOV     R3,A
029B A3                INC     DPTR
029C E0                MOVX    A,@DPTR
029D FA                MOV     R2,A
029E A3                INC     DPTR
029F E0                MOVX    A,@DPTR
02A0 F9                MOV     R1,A
02A1 900005            MOV     DPTR,#05H
02A4 EE                MOV     A,R6
02A5 8FF0              MOV     B,R7
02A7 120000      E     LCALL   ?C?IILDOPTR
                                           ; SOURCE LINE # 576
02AA 900000      R     MOV     DPTR,#item
02AD E0                MOVX    A,@DPTR
02AE FB                MOV     R3,A
02AF A3                INC     DPTR
02B0 E0                MOVX    A,@DPTR
C51 COMPILER V9.01   CJSON                                                                 06/17/2019 10:07:01 PAGE 157 

02B1 FA                MOV     R2,A
02B2 A3                INC     DPTR
02B3 E0                MOVX    A,@DPTR
02B4 F9                MOV     R1,A
02B5 900006            MOV     DPTR,#06H
02B8 120000      E     LCALL   ?C?PLDOPTR
02BB 900000      R     MOV     DPTR,#child
02BE EB                MOV     A,R3
02BF F0                MOVX    @DPTR,A
02C0 A3                INC     DPTR
02C1 EA                MOV     A,R2
02C2 F0                MOVX    @DPTR,A
02C3 A3                INC     DPTR
02C4 E9                MOV     A,R1
02C5 F0                MOVX    @DPTR,A
02C6 900000      R     MOV     DPTR,#depth+01H
02C9 E0                MOVX    A,@DPTR
02CA 04                INC     A
02CB F0                MOVX    @DPTR,A
02CC 7006              JNZ     ?C0535
02CE 900000      R     MOV     DPTR,#depth
02D1 E0                MOVX    A,@DPTR
02D2 04                INC     A
02D3 F0                MOVX    @DPTR,A
02D4         ?C0535:
02D4         ?C0303:
                                           ; SOURCE LINE # 577
02D4 900000      R     MOV     DPTR,#child
02D7 E0                MOVX    A,@DPTR
02D8 FB                MOV     R3,A
02D9 A3                INC     DPTR
02DA E0                MOVX    A,@DPTR
02DB FA                MOV     R2,A
02DC A3                INC     DPTR
02DD E0                MOVX    A,@DPTR
02DE F9                MOV     R1,A
02DF EA                MOV     A,R2
02E0 49                ORL     A,R1
02E1 4B                ORL     A,R3
02E2 7003              JNZ     $ + 5H
02E4 020000      R     LJMP    ?C0304
                                           ; SOURCE LINE # 578
                                           ; SOURCE LINE # 579
02E7 900000      R     MOV     DPTR,#fmt
02EA E0                MOVX    A,@DPTR
02EB 7002              JNZ     ?C0536
02ED A3                INC     DPTR
02EE E0                MOVX    A,@DPTR
02EF         ?C0536:
02EF 7003              JNZ     $ + 5H
02F1 020000      R     LJMP    ?C0305
                                           ; SOURCE LINE # 580
                                           ; SOURCE LINE # 581
02F4 900000      R     MOV     DPTR,#p
02F7 E0                MOVX    A,@DPTR
02F8 FB                MOV     R3,A
02F9 A3                INC     DPTR
02FA E0                MOVX    A,@DPTR
02FB FA                MOV     R2,A
02FC A3                INC     DPTR
02FD E0                MOVX    A,@DPTR
02FE F9                MOV     R1,A
C51 COMPILER V9.01   CJSON                                                                 06/17/2019 10:07:01 PAGE 158 

02FF 900000      R     MOV     DPTR,#depth
0302 E0                MOVX    A,@DPTR
0303 FC                MOV     R4,A
0304 A3                INC     DPTR
0305 E0                MOVX    A,@DPTR
0306 FD                MOV     R5,A
0307 120000      R     LCALL   _ensure
030A 900000      R     MOV     DPTR,#ptr
030D EB                MOV     A,R3
030E F0                MOVX    @DPTR,A
030F A3                INC     DPTR
0310 EA                MOV     A,R2
0311 F0                MOVX    @DPTR,A
0312 A3                INC     DPTR
0313 E9                MOV     A,R1
0314 F0                MOVX    @DPTR,A
0315 4A                ORL     A,R2
0316 4B                ORL     A,R3
0317 7003              JNZ     ?C0306
0319         ?C0660:
0319 020000      R     LJMP    ?C0664
031C         ?C0306:
                                           ; SOURCE LINE # 582
031C E4                CLR     A
031D 900000      R     MOV     DPTR,#j
0320 F0                MOVX    @DPTR,A
0321 A3                INC     DPTR
0322 F0                MOVX    @DPTR,A
0323         ?C0307:
0323 900000      R     MOV     DPTR,#depth
0326 E0                MOVX    A,@DPTR
0327 FE                MOV     R6,A
0328 A3                INC     DPTR
0329 E0                MOVX    A,@DPTR
032A FF                MOV     R7,A
032B C3                CLR     C
032C 900000      R     MOV     DPTR,#j+01H
032F E0                MOVX    A,@DPTR
0330 9F                SUBB    A,R7
0331 EE                MOV     A,R6
0332 6480              XRL     A,#080H
0334 F8                MOV     R0,A
0335 900000      R     MOV     DPTR,#j
0338 E0                MOVX    A,@DPTR
0339 6480              XRL     A,#080H
033B 98                SUBB    A,R0
033C 5025              JNC     ?C0308
033E 900000      R     MOV     DPTR,#ptr
0341 E0                MOVX    A,@DPTR
0342 FB                MOV     R3,A
0343 A3                INC     DPTR
0344 E4                CLR     A
0345 75F001            MOV     B,#01H
0348 120000      E     LCALL   ?C?ILDIX
034B A9F0              MOV     R1,B
034D FA                MOV     R2,A
034E 7409              MOV     A,#09H
0350 120000      E     LCALL   ?C?CSTPTR
0353 900000      R     MOV     DPTR,#j+01H
0356 E0                MOVX    A,@DPTR
0357 04                INC     A
0358 F0                MOVX    @DPTR,A
C51 COMPILER V9.01   CJSON                                                                 06/17/2019 10:07:01 PAGE 159 

0359 70C8              JNZ     ?C0307
035B 900000      R     MOV     DPTR,#j
035E E0                MOVX    A,@DPTR
035F 04                INC     A
0360 F0                MOVX    @DPTR,A
0361         ?C0537:
0361 80C0              SJMP    ?C0307
0363         ?C0308:
                                           ; SOURCE LINE # 583
0363 900000      R     MOV     DPTR,#p
0366 E0                MOVX    A,@DPTR
0367 FB                MOV     R3,A
0368 A3                INC     DPTR
0369 E0                MOVX    A,@DPTR
036A FA                MOV     R2,A
036B A3                INC     DPTR
036C E0                MOVX    A,@DPTR
036D F9                MOV     R1,A
036E 900005            MOV     DPTR,#05H
0371 EE                MOV     A,R6
0372 8FF0              MOV     B,R7
0374 120000      E     LCALL   ?C?IILDOPTR
                                           ; SOURCE LINE # 584
0377         ?C0305:
                                           ; SOURCE LINE # 585
0377 900000      R     MOV     DPTR,#child
037A E0                MOVX    A,@DPTR
037B FB                MOV     R3,A
037C A3                INC     DPTR
037D E0                MOVX    A,@DPTR
037E FA                MOV     R2,A
037F A3                INC     DPTR
0380 E0                MOVX    A,@DPTR
0381 F9                MOV     R1,A
0382 900014            MOV     DPTR,#014H
0385 120000      E     LCALL   ?C?PLDOPTR
0388 C002              PUSH    AR2
038A C001              PUSH    AR1
038C 900000      R     MOV     DPTR,#p
038F E0                MOVX    A,@DPTR
0390 F9                MOV     R1,A
0391 A3                INC     DPTR
0392 E0                MOVX    A,@DPTR
0393 FA                MOV     R2,A
0394 A3                INC     DPTR
0395 E0                MOVX    A,@DPTR
0396 900000      R     MOV     DPTR,#?_print_string_ptr?BYTE+03H
0399 C9                XCH     A,R1
039A F0                MOVX    @DPTR,A
039B A3                INC     DPTR
039C EA                MOV     A,R2
039D F0                MOVX    @DPTR,A
039E A3                INC     DPTR
039F E9                MOV     A,R1
03A0 F0                MOVX    @DPTR,A
03A1 D001              POP     AR1
03A3 D002              POP     AR2
03A5 120000      R     LCALL   _print_string_ptr
                                           ; SOURCE LINE # 586
03A8 120000      R     LCALL   L?0697
03AB 900000      R     MOV     DPTR,#p
03AE E0                MOVX    A,@DPTR
C51 COMPILER V9.01   CJSON                                                                 06/17/2019 10:07:01 PAGE 160 

03AF FB                MOV     R3,A
03B0 A3                INC     DPTR
03B1 E0                MOVX    A,@DPTR
03B2 FA                MOV     R2,A
03B3 A3                INC     DPTR
03B4 E0                MOVX    A,@DPTR
03B5 F9                MOV     R1,A
03B6 900005            MOV     DPTR,#05H
03B9 EE                MOV     A,R6
03BA 8FF0              MOV     B,R7
03BC 120000      E     LCALL   ?C?ISTOPTR
                                           ; SOURCE LINE # 588
03BF 900000      R     MOV     DPTR,#fmt
03C2 E0                MOVX    A,@DPTR
03C3 7002              JNZ     ?C0538
03C5 A3                INC     DPTR
03C6 E0                MOVX    A,@DPTR
03C7         ?C0538:
03C7 7E00              MOV     R6,#00H
03C9 6004              JZ      ?C0310
03CB 7F02              MOV     R7,#02H
03CD 8002              SJMP    ?C0311
03CF         ?C0310:
03CF 7F01              MOV     R7,#01H
03D1         ?C0311:
03D1 900000      R     MOV     DPTR,#len
03D4 EE                MOV     A,R6
03D5 F0                MOVX    @DPTR,A
03D6 FC                MOV     R4,A
03D7 A3                INC     DPTR
03D8 EF                MOV     A,R7
03D9 F0                MOVX    @DPTR,A
03DA FD                MOV     R5,A
                                           ; SOURCE LINE # 589
03DB 900000      R     MOV     DPTR,#p
03DE E0                MOVX    A,@DPTR
03DF FB                MOV     R3,A
03E0 A3                INC     DPTR
03E1 E0                MOVX    A,@DPTR
03E2 FA                MOV     R2,A
03E3 A3                INC     DPTR
03E4 E0                MOVX    A,@DPTR
03E5 F9                MOV     R1,A
03E6 120000      R     LCALL   _ensure
03E9 900000      R     MOV     DPTR,#ptr
03EC EB                MOV     A,R3
03ED F0                MOVX    @DPTR,A
03EE A3                INC     DPTR
03EF EA                MOV     A,R2
03F0 F0                MOVX    @DPTR,A
03F1 A3                INC     DPTR
03F2 E9                MOV     A,R1
03F3 F0                MOVX    @DPTR,A
03F4 4A                ORL     A,R2
03F5 4B                ORL     A,R3
03F6 7003              JNZ     ?C0312
03F8         ?C0661:
03F8 020000      R     LJMP    ?C0664
03FB         ?C0312:
                                           ; SOURCE LINE # 590
03FB 900000      R     MOV     DPTR,#ptr
03FE E0                MOVX    A,@DPTR
C51 COMPILER V9.01   CJSON                                                                 06/17/2019 10:07:01 PAGE 161 

03FF FB                MOV     R3,A
0400 A3                INC     DPTR
0401 E4                CLR     A
0402 75F001            MOV     B,#01H
0405 120000      E     LCALL   ?C?ILDIX
0408 A9F0              MOV     R1,B
040A FA                MOV     R2,A
040B 743A              MOV     A,#03AH
040D 120000      E     LCALL   ?C?CSTPTR
0410 900000      R     MOV     DPTR,#fmt
0413 E0                MOVX    A,@DPTR
0414 7002              JNZ     ?C0539
0416 A3                INC     DPTR
0417 E0                MOVX    A,@DPTR
0418         ?C0539:
0418 6015              JZ      ?C0313
041A 900000      R     MOV     DPTR,#ptr
041D E0                MOVX    A,@DPTR
041E FB                MOV     R3,A
041F A3                INC     DPTR
0420 E4                CLR     A
0421 75F001            MOV     B,#01H
0424 120000      E     LCALL   ?C?ILDIX
0427 A9F0              MOV     R1,B
0429 FA                MOV     R2,A
042A 7409              MOV     A,#09H
042C 120000      E     LCALL   ?C?CSTPTR
042F         ?C0313:
                                           ; SOURCE LINE # 591
042F 900000      R     MOV     DPTR,#len
0432 E0                MOVX    A,@DPTR
0433 FE                MOV     R6,A
0434 A3                INC     DPTR
0435 E0                MOVX    A,@DPTR
0436 FF                MOV     R7,A
0437 900000      R     MOV     DPTR,#p
043A E0                MOVX    A,@DPTR
043B FB                MOV     R3,A
043C A3                INC     DPTR
043D E0                MOVX    A,@DPTR
043E FA                MOV     R2,A
043F A3                INC     DPTR
0440 E0                MOVX    A,@DPTR
0441 F9                MOV     R1,A
0442 900005            MOV     DPTR,#05H
0445 EE                MOV     A,R6
0446 8FF0              MOV     B,R7
0448 120000      E     LCALL   ?C?IILDOPTR
                                           ; SOURCE LINE # 593
044B 900000      R     MOV     DPTR,#depth
044E E0                MOVX    A,@DPTR
044F FC                MOV     R4,A
0450 A3                INC     DPTR
0451 E0                MOVX    A,@DPTR
0452 FD                MOV     R5,A
0453 A3                INC     DPTR
0454 E0                MOVX    A,@DPTR
0455 FF                MOV     R7,A
0456 A3                INC     DPTR
0457 E0                MOVX    A,@DPTR
0458 900000      R     MOV     DPTR,#?_print_value?BYTE+05H
045B CF                XCH     A,R7
C51 COMPILER V9.01   CJSON                                                                 06/17/2019 10:07:01 PAGE 162 

045C F0                MOVX    @DPTR,A
045D A3                INC     DPTR
045E EF                MOV     A,R7
045F F0                MOVX    @DPTR,A
0460 900000      R     MOV     DPTR,#p
0463 E0                MOVX    A,@DPTR
0464 F9                MOV     R1,A
0465 A3                INC     DPTR
0466 E0                MOVX    A,@DPTR
0467 FA                MOV     R2,A
0468 A3                INC     DPTR
0469 E0                MOVX    A,@DPTR
046A 900000      R     MOV     DPTR,#?_print_value?BYTE+07H
046D C9                XCH     A,R1
046E F0                MOVX    @DPTR,A
046F A3                INC     DPTR
0470 EA                MOV     A,R2
0471 F0                MOVX    @DPTR,A
0472 A3                INC     DPTR
0473 E9                MOV     A,R1
0474 F0                MOVX    @DPTR,A
0475 900000      R     MOV     DPTR,#child
0478 120000      R     LCALL   L?0693
                                           ; SOURCE LINE # 594
047B 120000      R     LCALL   L?0697
047E 900000      R     MOV     DPTR,#p
0481 E0                MOVX    A,@DPTR
0482 FB                MOV     R3,A
0483 A3                INC     DPTR
0484 E0                MOVX    A,@DPTR
0485 FA                MOV     R2,A
0486 A3                INC     DPTR
0487 E0                MOVX    A,@DPTR
0488 F9                MOV     R1,A
0489 900005            MOV     DPTR,#05H
048C EE                MOV     A,R6
048D 8FF0              MOV     B,R7
048F 120000      E     LCALL   ?C?ISTOPTR
                                           ; SOURCE LINE # 596
0492 900000      R     MOV     DPTR,#child
0495 E0                MOVX    A,@DPTR
0496 FB                MOV     R3,A
0497 A3                INC     DPTR
0498 E0                MOVX    A,@DPTR
0499 FA                MOV     R2,A
049A A3                INC     DPTR
049B E0                MOVX    A,@DPTR
049C F9                MOV     R1,A
049D 120000      E     LCALL   ?C?PLDPTR
04A0 EA                MOV     A,R2
04A1 49                ORL     A,R1
04A2 4B                ORL     A,R3
04A3 7E00              MOV     R6,#00H
04A5 6004              JZ      ?C0314
04A7 7F01              MOV     R7,#01H
04A9 8002              SJMP    ?C0315
04AB         ?C0314:
04AB 7F00              MOV     R7,#00H
04AD         ?C0315:
04AD 900000      R     MOV     DPTR,#fmt
04B0 E0                MOVX    A,@DPTR
04B1 7002              JNZ     ?C0540
C51 COMPILER V9.01   CJSON                                                                 06/17/2019 10:07:01 PAGE 163 

04B3 A3                INC     DPTR
04B4 E0                MOVX    A,@DPTR
04B5         ?C0540:
04B5 7C00              MOV     R4,#00H
04B7 6004              JZ      ?C0316
04B9 7D01              MOV     R5,#01H
04BB 8002              SJMP    ?C0317
04BD         ?C0316:
04BD 7D00              MOV     R5,#00H
04BF         ?C0317:
04BF ED                MOV     A,R5
04C0 2F                ADD     A,R7
04C1 FF                MOV     R7,A
04C2 EC                MOV     A,R4
04C3 3E                ADDC    A,R6
04C4 FE                MOV     R6,A
04C5 900000      R     MOV     DPTR,#len
04C8 F0                MOVX    @DPTR,A
04C9 A3                INC     DPTR
04CA EF                MOV     A,R7
04CB F0                MOVX    @DPTR,A
                                           ; SOURCE LINE # 597
04CC 900000      R     MOV     DPTR,#p
04CF E0                MOVX    A,@DPTR
04D0 FB                MOV     R3,A
04D1 A3                INC     DPTR
04D2 E0                MOVX    A,@DPTR
04D3 FA                MOV     R2,A
04D4 A3                INC     DPTR
04D5 E0                MOVX    A,@DPTR
04D6 F9                MOV     R1,A
04D7 EF                MOV     A,R7
04D8 2401              ADD     A,#01H
04DA FD                MOV     R5,A
04DB E4                CLR     A
04DC 3E                ADDC    A,R6
04DD FC                MOV     R4,A
04DE 120000      R     LCALL   _ensure
04E1 900000      R     MOV     DPTR,#ptr
04E4 EB                MOV     A,R3
04E5 F0                MOVX    @DPTR,A
04E6 A3                INC     DPTR
04E7 EA                MOV     A,R2
04E8 F0                MOVX    @DPTR,A
04E9 A3                INC     DPTR
04EA E9                MOV     A,R1
04EB F0                MOVX    @DPTR,A
04EC 4A                ORL     A,R2
04ED 4B                ORL     A,R3
04EE 7003              JNZ     ?C0318
04F0         ?C0662:
04F0 020000      R     LJMP    ?C0664
04F3         ?C0318:
                                           ; SOURCE LINE # 598
04F3 900000      R     MOV     DPTR,#child
04F6 E0                MOVX    A,@DPTR
04F7 FB                MOV     R3,A
04F8 A3                INC     DPTR
04F9 E0                MOVX    A,@DPTR
04FA FA                MOV     R2,A
04FB A3                INC     DPTR
04FC E0                MOVX    A,@DPTR
C51 COMPILER V9.01   CJSON                                                                 06/17/2019 10:07:01 PAGE 164 

04FD F9                MOV     R1,A
04FE 120000      E     LCALL   ?C?PLDPTR
0501 EA                MOV     A,R2
0502 49                ORL     A,R1
0503 4B                ORL     A,R3
0504 6015              JZ      ?C0319
0506 900000      R     MOV     DPTR,#ptr
0509 E0                MOVX    A,@DPTR
050A FB                MOV     R3,A
050B A3                INC     DPTR
050C E4                CLR     A
050D 75F001            MOV     B,#01H
0510 120000      E     LCALL   ?C?ILDIX
0513 A9F0              MOV     R1,B
0515 FA                MOV     R2,A
0516 742C              MOV     A,#02CH
0518 120000      E     LCALL   ?C?CSTPTR
051B         ?C0319:
                                           ; SOURCE LINE # 599
051B 900000      R     MOV     DPTR,#fmt
051E E0                MOVX    A,@DPTR
051F 7002              JNZ     ?C0541
0521 A3                INC     DPTR
0522 E0                MOVX    A,@DPTR
0523         ?C0541:
0523 6015              JZ      ?C0320
0525 900000      R     MOV     DPTR,#ptr
0528 E0                MOVX    A,@DPTR
0529 FB                MOV     R3,A
052A A3                INC     DPTR
052B E4                CLR     A
052C 75F001            MOV     B,#01H
052F 120000      E     LCALL   ?C?ILDIX
0532 A9F0              MOV     R1,B
0534 FA                MOV     R2,A
0535 740A              MOV     A,#0AH
0537 120000      E     LCALL   ?C?CSTPTR
053A         ?C0320:
053A 900000      R     MOV     DPTR,#ptr
053D E0                MOVX    A,@DPTR
053E FB                MOV     R3,A
053F A3                INC     DPTR
0540 E0                MOVX    A,@DPTR
0541 FA                MOV     R2,A
0542 A3                INC     DPTR
0543 E0                MOVX    A,@DPTR
0544 F9                MOV     R1,A
0545 E4                CLR     A
0546 120000      E     LCALL   ?C?CSTPTR
                                           ; SOURCE LINE # 600
0549 900000      R     MOV     DPTR,#len
054C E0                MOVX    A,@DPTR
054D FE                MOV     R6,A
054E A3                INC     DPTR
054F E0                MOVX    A,@DPTR
0550 FF                MOV     R7,A
0551 900000      R     MOV     DPTR,#p
0554 E0                MOVX    A,@DPTR
0555 FB                MOV     R3,A
0556 A3                INC     DPTR
0557 E0                MOVX    A,@DPTR
0558 FA                MOV     R2,A
C51 COMPILER V9.01   CJSON                                                                 06/17/2019 10:07:01 PAGE 165 

0559 A3                INC     DPTR
055A E0                MOVX    A,@DPTR
055B F9                MOV     R1,A
055C 900005            MOV     DPTR,#05H
055F EE                MOV     A,R6
0560 8FF0              MOV     B,R7
0562 120000      E     LCALL   ?C?IILDOPTR
                                           ; SOURCE LINE # 601
0565 900000      R     MOV     DPTR,#child
0568 E0                MOVX    A,@DPTR
0569 FB                MOV     R3,A
056A A3                INC     DPTR
056B E0                MOVX    A,@DPTR
056C FA                MOV     R2,A
056D A3                INC     DPTR
056E E0                MOVX    A,@DPTR
056F F9                MOV     R1,A
0570 120000      E     LCALL   ?C?PLDPTR
0573 900000      R     MOV     DPTR,#child
0576 EB                MOV     A,R3
0577 F0                MOVX    @DPTR,A
0578 A3                INC     DPTR
0579 EA                MOV     A,R2
057A F0                MOVX    @DPTR,A
057B A3                INC     DPTR
057C E9                MOV     A,R1
057D F0                MOVX    @DPTR,A
                                           ; SOURCE LINE # 602
057E 020000      R     LJMP    ?C0303
0581         ?C0304:
                                           ; SOURCE LINE # 603
0581 900000      R     MOV     DPTR,#p
0584 E0                MOVX    A,@DPTR
0585 FB                MOV     R3,A
0586 A3                INC     DPTR
0587 E0                MOVX    A,@DPTR
0588 FA                MOV     R2,A
0589 A3                INC     DPTR
058A E0                MOVX    A,@DPTR
058B F9                MOV     R1,A
058C 900000      R     MOV     DPTR,#fmt
058F E0                MOVX    A,@DPTR
0590 7002              JNZ     ?C0542
0592 A3                INC     DPTR
0593 E0                MOVX    A,@DPTR
0594         ?C0542:
0594 6013              JZ      ?C0321
0596 900000      R     MOV     DPTR,#depth+01H
0599 E0                MOVX    A,@DPTR
059A 2401              ADD     A,#01H
059C FF                MOV     R7,A
059D 900000      R     MOV     DPTR,#depth
05A0 E0                MOVX    A,@DPTR
05A1 3400              ADDC    A,#00H
05A3 FE                MOV     R6,A
05A4 FC                MOV     R4,A
05A5 AD07              MOV     R5,AR7
05A7 8004              SJMP    ?C0322
05A9         ?C0321:
05A9 7C00              MOV     R4,#00H
05AB 7D02              MOV     R5,#02H
05AD         ?C0322:
C51 COMPILER V9.01   CJSON                                                                 06/17/2019 10:07:01 PAGE 166 

05AD 120000      R     LCALL   _ensure
05B0 900000      R     MOV     DPTR,#ptr
05B3 EB                MOV     A,R3
05B4 F0                MOVX    @DPTR,A
05B5 A3                INC     DPTR
05B6 EA                MOV     A,R2
05B7 F0                MOVX    @DPTR,A
05B8 A3                INC     DPTR
05B9 E9                MOV     A,R1
05BA F0                MOVX    @DPTR,A
05BB 4A                ORL     A,R2
05BC 4B                ORL     A,R3
05BD 7003              JNZ     ?C0323
05BF         ?C0663:
05BF 020000      R     LJMP    ?C0664
05C2         ?C0323:
                                           ; SOURCE LINE # 604
05C2 900000      R     MOV     DPTR,#fmt
05C5 E0                MOVX    A,@DPTR
05C6 7002              JNZ     ?C0543
05C8 A3                INC     DPTR
05C9 E0                MOVX    A,@DPTR
05CA         ?C0543:
05CA 604D              JZ      ?C0324
05CC E4                CLR     A
05CD 900000      R     MOV     DPTR,#i
05D0 F0                MOVX    @DPTR,A
05D1 A3                INC     DPTR
05D2 F0                MOVX    @DPTR,A
05D3         ?C0325:
05D3 900000      R     MOV     DPTR,#depth+01H
05D6 E0                MOVX    A,@DPTR
05D7 24FF              ADD     A,#0FFH
05D9 FF                MOV     R7,A
05DA 900000      R     MOV     DPTR,#depth
05DD E0                MOVX    A,@DPTR
05DE 34FF              ADDC    A,#0FFH
05E0 FE                MOV     R6,A
05E1 C3                CLR     C
05E2 900000      R     MOV     DPTR,#i+01H
05E5 E0                MOVX    A,@DPTR
05E6 9F                SUBB    A,R7
05E7 EE                MOV     A,R6
05E8 6480              XRL     A,#080H
05EA F8                MOV     R0,A
05EB 900000      R     MOV     DPTR,#i
05EE E0                MOVX    A,@DPTR
05EF 6480              XRL     A,#080H
05F1 98                SUBB    A,R0
05F2 5025              JNC     ?C0324
05F4 900000      R     MOV     DPTR,#ptr
05F7 E0                MOVX    A,@DPTR
05F8 FB                MOV     R3,A
05F9 A3                INC     DPTR
05FA E4                CLR     A
05FB 75F001            MOV     B,#01H
05FE 120000      E     LCALL   ?C?ILDIX
0601 A9F0              MOV     R1,B
0603 FA                MOV     R2,A
0604 7409              MOV     A,#09H
0606 120000      E     LCALL   ?C?CSTPTR
0609 900000      R     MOV     DPTR,#i+01H
C51 COMPILER V9.01   CJSON                                                                 06/17/2019 10:07:01 PAGE 167 

060C E0                MOVX    A,@DPTR
060D 04                INC     A
060E F0                MOVX    @DPTR,A
060F 70C2              JNZ     ?C0325
0611 900000      R     MOV     DPTR,#i
0614 E0                MOVX    A,@DPTR
0615 04                INC     A
0616 F0                MOVX    @DPTR,A
0617         ?C0544:
0617 80BA              SJMP    ?C0325
0619         ?C0324:
                                           ; SOURCE LINE # 605
0619 900000      R     MOV     DPTR,#ptr
061C E0                MOVX    A,@DPTR
061D FB                MOV     R3,A
061E A3                INC     DPTR
061F E4                CLR     A
0620 75F001            MOV     B,#01H
0623 120000      E     LCALL   ?C?ILDIX
0626 A9F0              MOV     R1,B
0628 FA                MOV     R2,A
0629 747D              MOV     A,#07DH
062B 120000      E     LCALL   ?C?CSTPTR
062E 900000      R     MOV     DPTR,#ptr
0631 E0                MOVX    A,@DPTR
0632 FB                MOV     R3,A
0633 A3                INC     DPTR
0634 E0                MOVX    A,@DPTR
0635 FA                MOV     R2,A
0636 A3                INC     DPTR
0637 E0                MOVX    A,@DPTR
0638 F9                MOV     R1,A
0639 E4                CLR     A
063A 120000      E     LCALL   ?C?CSTPTR
                                           ; SOURCE LINE # 606
063D 900000      R     MOV     DPTR,#p
0640 E0                MOVX    A,@DPTR
0641 FB                MOV     R3,A
0642 A3                INC     DPTR
0643 E0                MOVX    A,@DPTR
0644 FA                MOV     R2,A
0645 A3                INC     DPTR
0646 E0                MOVX    A,@DPTR
0647 F9                MOV     R1,A
0648 120000      E     LCALL   ?C?PLDPTR
064B 900000      R     MOV     DPTR,#i
064E E0                MOVX    A,@DPTR
064F FE                MOV     R6,A
0650 A3                INC     DPTR
0651 E0                MOVX    A,@DPTR
0652 29                ADD     A,R1
0653 F9                MOV     R1,A
0654 EA                MOV     A,R2
0655 3E                ADDC    A,R6
0656 FA                MOV     R2,A
0657 900000      R     MOV     DPTR,#out
065A EB                MOV     A,R3
065B F0                MOVX    @DPTR,A
065C A3                INC     DPTR
065D EA                MOV     A,R2
065E F0                MOVX    @DPTR,A
065F A3                INC     DPTR
C51 COMPILER V9.01   CJSON                                                                 06/17/2019 10:07:01 PAGE 168 

0660 E9                MOV     A,R1
0661 F0                MOVX    @DPTR,A
                                           ; SOURCE LINE # 607
0662 020000      R     LJMP    ?C0328
0665         ?C0298:
                                           ; SOURCE LINE # 609
                                           ; SOURCE LINE # 611
0665 900000      R     MOV     DPTR,#numentries
0668 E0                MOVX    A,@DPTR
0669 FE                MOV     R6,A
066A A3                INC     DPTR
066B E0                MOVX    A,@DPTR
066C FF                MOV     R7,A
066D 7C00              MOV     R4,#00H
066F 7D03              MOV     R5,#03H
0671 120000      E     LCALL   ?C?IMUL
0674 900000      R     MOV     DPTR,#_cJSON_malloc
0677 A3                INC     DPTR
0678 E0                MOVX    A,@DPTR
0679 FA                MOV     R2,A
067A A3                INC     DPTR
067B E0                MOVX    A,@DPTR
067C F582              MOV     DPL,A
067E 8A83              MOV     DPH,R2
0680 120000      E     LCALL   ?C?ICALL2
0683 900000      R     MOV     DPTR,#entries
0686 EB                MOV     A,R3
0687 F0                MOVX    @DPTR,A
0688 A3                INC     DPTR
0689 EA                MOV     A,R2
068A F0                MOVX    @DPTR,A
068B A3                INC     DPTR
068C E9                MOV     A,R1
068D F0                MOVX    @DPTR,A
                                           ; SOURCE LINE # 612
068E 4A                ORL     A,R2
068F 4B                ORL     A,R3
0690 7004              JNZ     ?C0329
0692         ?C0664:
0692 FB                MOV     R3,A
0693 FA                MOV     R2,A
0694 F9                MOV     R1,A
0695 22                RET     
0696         ?C0329:
                                           ; SOURCE LINE # 613
0696 900000      R     MOV     DPTR,#numentries
0699 E0                MOVX    A,@DPTR
069A FE                MOV     R6,A
069B A3                INC     DPTR
069C E0                MOVX    A,@DPTR
069D FF                MOV     R7,A
069E 7C00              MOV     R4,#00H
06A0 7D03              MOV     R5,#03H
06A2 120000      E     LCALL   ?C?IMUL
06A5 900000      R     MOV     DPTR,#_cJSON_malloc
06A8 A3                INC     DPTR
06A9 E0                MOVX    A,@DPTR
06AA FA                MOV     R2,A
06AB A3                INC     DPTR
06AC E0                MOVX    A,@DPTR
06AD F582              MOV     DPL,A
06AF 8A83              MOV     DPH,R2
C51 COMPILER V9.01   CJSON                                                                 06/17/2019 10:07:01 PAGE 169 

06B1 120000      E     LCALL   ?C?ICALL2
06B4 900000      R     MOV     DPTR,#names
06B7 EB                MOV     A,R3
06B8 F0                MOVX    @DPTR,A
06B9 A3                INC     DPTR
06BA EA                MOV     A,R2
06BB F0                MOVX    @DPTR,A
06BC A3                INC     DPTR
06BD E9                MOV     A,R1
06BE F0                MOVX    @DPTR,A
                                           ; SOURCE LINE # 614
06BF 4A                ORL     A,R2
06C0 4B                ORL     A,R3
06C1 7003              JNZ     ?C0330
06C3 020000      R     LJMP    ?C0665
06C6         ?C0330:
                                           ; SOURCE LINE # 615
06C6 900000      R     MOV     DPTR,#numentries
06C9 E0                MOVX    A,@DPTR
06CA FE                MOV     R6,A
06CB A3                INC     DPTR
06CC E0                MOVX    A,@DPTR
06CD FF                MOV     R7,A
06CE 7C00              MOV     R4,#00H
06D0 7D03              MOV     R5,#03H
06D2 120000      E     LCALL   ?C?IMUL
06D5 7D00              MOV     R5,#00H
06D7 900000      R     MOV     DPTR,#entries
06DA E0                MOVX    A,@DPTR
06DB FB                MOV     R3,A
06DC A3                INC     DPTR
06DD E0                MOVX    A,@DPTR
06DE FA                MOV     R2,A
06DF A3                INC     DPTR
06E0 E0                MOVX    A,@DPTR
06E1 F9                MOV     R1,A
06E2 120000      E     LCALL   ?C?MEMSET
                                           ; SOURCE LINE # 616
06E5 900000      R     MOV     DPTR,#numentries
06E8 E0                MOVX    A,@DPTR
06E9 FE                MOV     R6,A
06EA A3                INC     DPTR
06EB E0                MOVX    A,@DPTR
06EC FF                MOV     R7,A
06ED 7C00              MOV     R4,#00H
06EF 7D03              MOV     R5,#03H
06F1 120000      E     LCALL   ?C?IMUL
06F4 7D00              MOV     R5,#00H
06F6 900000      R     MOV     DPTR,#names
06F9 E0                MOVX    A,@DPTR
06FA FB                MOV     R3,A
06FB A3                INC     DPTR
06FC E0                MOVX    A,@DPTR
06FD FA                MOV     R2,A
06FE A3                INC     DPTR
06FF E0                MOVX    A,@DPTR
0700 F9                MOV     R1,A
0701 120000      E     LCALL   ?C?MEMSET
                                           ; SOURCE LINE # 619
0704 900000      R     MOV     DPTR,#item
0707 E0                MOVX    A,@DPTR
0708 FB                MOV     R3,A
C51 COMPILER V9.01   CJSON                                                                 06/17/2019 10:07:01 PAGE 170 

0709 A3                INC     DPTR
070A E0                MOVX    A,@DPTR
070B FA                MOV     R2,A
070C A3                INC     DPTR
070D E0                MOVX    A,@DPTR
070E F9                MOV     R1,A
070F 900006            MOV     DPTR,#06H
0712 120000      E     LCALL   ?C?PLDOPTR
0715 900000      R     MOV     DPTR,#child
0718 EB                MOV     A,R3
0719 F0                MOVX    @DPTR,A
071A A3                INC     DPTR
071B EA                MOV     A,R2
071C F0                MOVX    @DPTR,A
071D A3                INC     DPTR
071E E9                MOV     A,R1
071F F0                MOVX    @DPTR,A
0720 900000      R     MOV     DPTR,#depth+01H
0723 E0                MOVX    A,@DPTR
0724 04                INC     A
0725 F0                MOVX    @DPTR,A
0726 7006              JNZ     ?C0545
0728 900000      R     MOV     DPTR,#depth
072B E0                MOVX    A,@DPTR
072C 04                INC     A
072D F0                MOVX    @DPTR,A
072E         ?C0545:
072E 900000      R     MOV     DPTR,#fmt
0731 E0                MOVX    A,@DPTR
0732 7002              JNZ     ?C0546
0734 A3                INC     DPTR
0735 E0                MOVX    A,@DPTR
0736         ?C0546:
0736 6014              JZ      ?C0332
0738 900000      R     MOV     DPTR,#depth
073B E0                MOVX    A,@DPTR
073C FE                MOV     R6,A
073D A3                INC     DPTR
073E E0                MOVX    A,@DPTR
073F FF                MOV     R7,A
0740 900000      R     MOV     DPTR,#len+01H
0743 E0                MOVX    A,@DPTR
0744 2F                ADD     A,R7
0745 F0                MOVX    @DPTR,A
0746 900000      R     MOV     DPTR,#len
0749 E0                MOVX    A,@DPTR
074A 3E                ADDC    A,R6
074B F0                MOVX    @DPTR,A
074C         ?C0332:
                                           ; SOURCE LINE # 620
074C 900000      R     MOV     DPTR,#child
074F E0                MOVX    A,@DPTR
0750 FB                MOV     R3,A
0751 A3                INC     DPTR
0752 E0                MOVX    A,@DPTR
0753 FA                MOV     R2,A
0754 A3                INC     DPTR
0755 E0                MOVX    A,@DPTR
0756 F9                MOV     R1,A
0757 EA                MOV     A,R2
0758 49                ORL     A,R1
0759 4B                ORL     A,R3
C51 COMPILER V9.01   CJSON                                                                 06/17/2019 10:07:01 PAGE 171 

075A 7003              JNZ     $ + 5H
075C 020000      R     LJMP    ?C0333
                                           ; SOURCE LINE # 621
                                           ; SOURCE LINE # 622
075F 900000      R     MOV     DPTR,#child
0762 A3                INC     DPTR
0763 A3                INC     DPTR
0764 E0                MOVX    A,@DPTR
0765 900014            MOV     DPTR,#014H
0768 120000      E     LCALL   ?C?PLDOPTR
076B 900000      R     MOV     DPTR,#?_print_string_ptr?BYTE+03H
076E E4                CLR     A
076F F0                MOVX    @DPTR,A
0770 A3                INC     DPTR
0771 F0                MOVX    @DPTR,A
0772 A3                INC     DPTR
0773 F0                MOVX    @DPTR,A
0774 120000      R     LCALL   _print_string_ptr
0777 900000      R     MOV     DPTR,#str
077A EB                MOV     A,R3
077B F0                MOVX    @DPTR,A
077C A3                INC     DPTR
077D EA                MOV     A,R2
077E F0                MOVX    @DPTR,A
077F A3                INC     DPTR
0780 E9                MOV     A,R1
0781 F0                MOVX    @DPTR,A
0782 C003              PUSH    AR3
0784 C002              PUSH    AR2
0786 C001              PUSH    AR1
0788 900000      R     MOV     DPTR,#names
078B E0                MOVX    A,@DPTR
078C FB                MOV     R3,A
078D A3                INC     DPTR
078E E0                MOVX    A,@DPTR
078F FA                MOV     R2,A
0790 A3                INC     DPTR
0791 E0                MOVX    A,@DPTR
0792 F9                MOV     R1,A
0793 900000      R     MOV     DPTR,#i
0796 E0                MOVX    A,@DPTR
0797 FE                MOV     R6,A
0798 A3                INC     DPTR
0799 E0                MOVX    A,@DPTR
079A F582              MOV     DPL,A
079C 8E83              MOV     DPH,R6
079E 7403              MOV     A,#03H
07A0 120000      E     LCALL   ?C?OFFX256
07A3 120000      E     LCALL   ?C?PSTOPTR
                                           ; SOURCE LINE # 623
07A6 900000      R     MOV     DPTR,#depth
07A9 E0                MOVX    A,@DPTR
07AA FC                MOV     R4,A
07AB A3                INC     DPTR
07AC E0                MOVX    A,@DPTR
07AD FD                MOV     R5,A
07AE A3                INC     DPTR
07AF E0                MOVX    A,@DPTR
07B0 FF                MOV     R7,A
07B1 A3                INC     DPTR
07B2 E0                MOVX    A,@DPTR
07B3 900000      R     MOV     DPTR,#?_print_value?BYTE+05H
C51 COMPILER V9.01   CJSON                                                                 06/17/2019 10:07:01 PAGE 172 

07B6 CF                XCH     A,R7
07B7 F0                MOVX    @DPTR,A
07B8 A3                INC     DPTR
07B9 EF                MOV     A,R7
07BA F0                MOVX    @DPTR,A
07BB A3                INC     DPTR
07BC E4                CLR     A
07BD F0                MOVX    @DPTR,A
07BE A3                INC     DPTR
07BF F0                MOVX    @DPTR,A
07C0 A3                INC     DPTR
07C1 F0                MOVX    @DPTR,A
07C2 900000      R     MOV     DPTR,#child
07C5 120000      R     LCALL   L?0693
07C8 900000      R     MOV     DPTR,#ret
07CB EB                MOV     A,R3
07CC F0                MOVX    @DPTR,A
07CD A3                INC     DPTR
07CE EA                MOV     A,R2
07CF F0                MOVX    @DPTR,A
07D0 A3                INC     DPTR
07D1 E9                MOV     A,R1
07D2 F0                MOVX    @DPTR,A
07D3 C003              PUSH    AR3
07D5 C002              PUSH    AR2
07D7 C001              PUSH    AR1
07D9 900000      R     MOV     DPTR,#entries
07DC E0                MOVX    A,@DPTR
07DD FB                MOV     R3,A
07DE A3                INC     DPTR
07DF E0                MOVX    A,@DPTR
07E0 FA                MOV     R2,A
07E1 A3                INC     DPTR
07E2 E0                MOVX    A,@DPTR
07E3 F9                MOV     R1,A
07E4 900000      R     MOV     DPTR,#i
07E7 E4                CLR     A
07E8 75F001            MOV     B,#01H
07EB 120000      E     LCALL   ?C?ILDIX
07EE 85F082            MOV     DPL,B
07F1 F583              MOV     DPH,A
07F3 7403              MOV     A,#03H
07F5 120000      E     LCALL   ?C?OFFX256
07F8 120000      E     LCALL   ?C?PSTOPTR
                                           ; SOURCE LINE # 624
07FB 900000      R     MOV     DPTR,#str
07FE E0                MOVX    A,@DPTR
07FF FB                MOV     R3,A
0800 A3                INC     DPTR
0801 E0                MOVX    A,@DPTR
0802 FA                MOV     R2,A
0803 A3                INC     DPTR
0804 E0                MOVX    A,@DPTR
0805 F9                MOV     R1,A
0806 EA                MOV     A,R2
0807 49                ORL     A,R1
0808 4B                ORL     A,R3
0809 606E              JZ      ?C0334
080B 900000      R     MOV     DPTR,#ret
080E E0                MOVX    A,@DPTR
080F FB                MOV     R3,A
0810 A3                INC     DPTR
C51 COMPILER V9.01   CJSON                                                                 06/17/2019 10:07:01 PAGE 173 

0811 E0                MOVX    A,@DPTR
0812 FA                MOV     R2,A
0813 A3                INC     DPTR
0814 E0                MOVX    A,@DPTR
0815 F9                MOV     R1,A
0816 EA                MOV     A,R2
0817 49                ORL     A,R1
0818 4B                ORL     A,R3
0819 605E              JZ      ?C0334
081B A3                INC     DPTR
081C E0                MOVX    A,@DPTR
081D FB                MOV     R3,A
081E A3                INC     DPTR
081F E0                MOVX    A,@DPTR
0820 FA                MOV     R2,A
0821 A3                INC     DPTR
0822 E0                MOVX    A,@DPTR
0823 F9                MOV     R1,A
0824 120000      E     LCALL   _strlen
0827 C006              PUSH    AR6
0829 C007              PUSH    AR7
082B 900000      R     MOV     DPTR,#ret
082E E0                MOVX    A,@DPTR
082F FB                MOV     R3,A
0830 A3                INC     DPTR
0831 E0                MOVX    A,@DPTR
0832 FA                MOV     R2,A
0833 A3                INC     DPTR
0834 E0                MOVX    A,@DPTR
0835 F9                MOV     R1,A
0836 120000      E     LCALL   _strlen
0839 D0E0              POP     ACC
083B 2F                ADD     A,R7
083C FF                MOV     R7,A
083D D0E0              POP     ACC
083F 3E                ADDC    A,R6
0840 CF                XCH     A,R7
0841 2402              ADD     A,#02H
0843 CF                XCH     A,R7
0844 3400              ADDC    A,#00H
0846 FE                MOV     R6,A
0847 900000      R     MOV     DPTR,#fmt
084A E0                MOVX    A,@DPTR
084B 7002              JNZ     ?C0547
084D A3                INC     DPTR
084E E0                MOVX    A,@DPTR
084F         ?C0547:
084F 6010              JZ      ?C0335
0851 900000      R     MOV     DPTR,#depth+01H
0854 E0                MOVX    A,@DPTR
0855 2402              ADD     A,#02H
0857 FD                MOV     R5,A
0858 900000      R     MOV     DPTR,#depth
085B E0                MOVX    A,@DPTR
085C 3400              ADDC    A,#00H
085E FC                MOV     R4,A
085F 8004              SJMP    ?C0336
0861         ?C0335:
0861 7C00              MOV     R4,#00H
0863 7D00              MOV     R5,#00H
0865         ?C0336:
0865 EF                MOV     A,R7
C51 COMPILER V9.01   CJSON                                                                 06/17/2019 10:07:01 PAGE 174 

0866 2D                ADD     A,R5
0867 FF                MOV     R7,A
0868 EE                MOV     A,R6
0869 3C                ADDC    A,R4
086A FE                MOV     R6,A
086B 900000      R     MOV     DPTR,#len+01H
086E E0                MOVX    A,@DPTR
086F 2F                ADD     A,R7
0870 F0                MOVX    @DPTR,A
0871 900000      R     MOV     DPTR,#len
0874 E0                MOVX    A,@DPTR
0875 3E                ADDC    A,R6
0876 F0                MOVX    @DPTR,A
0877 8008              SJMP    ?C0337
0879         ?C0334:
0879 900000      R     MOV     DPTR,#fail
087C E4                CLR     A
087D F0                MOVX    @DPTR,A
087E A3                INC     DPTR
087F 04                INC     A
0880 F0                MOVX    @DPTR,A
0881         ?C0337:
                                           ; SOURCE LINE # 625
0881 900000      R     MOV     DPTR,#child
0884 E0                MOVX    A,@DPTR
0885 FB                MOV     R3,A
0886 A3                INC     DPTR
0887 E0                MOVX    A,@DPTR
0888 FA                MOV     R2,A
0889 A3                INC     DPTR
088A E0                MOVX    A,@DPTR
088B F9                MOV     R1,A
088C 120000      E     LCALL   ?C?PLDPTR
088F 900000      R     MOV     DPTR,#child
0892 EB                MOV     A,R3
0893 F0                MOVX    @DPTR,A
0894 A3                INC     DPTR
0895 EA                MOV     A,R2
0896 F0                MOVX    @DPTR,A
0897 A3                INC     DPTR
0898 E9                MOV     A,R1
0899 F0                MOVX    @DPTR,A
                                           ; SOURCE LINE # 626
089A 020000      R     LJMP    ?C0332
089D         ?C0333:
                                           ; SOURCE LINE # 629
089D 900000      R     MOV     DPTR,#fail
08A0 E0                MOVX    A,@DPTR
08A1 7002              JNZ     ?C0548
08A3 A3                INC     DPTR
08A4 E0                MOVX    A,@DPTR
08A5         ?C0548:
08A5 7022              JNZ     ?C0338
08A7 900000      R     MOV     DPTR,#len
08AA E0                MOVX    A,@DPTR
08AB FE                MOV     R6,A
08AC A3                INC     DPTR
08AD E0                MOVX    A,@DPTR
08AE FF                MOV     R7,A
08AF 900000      R     MOV     DPTR,#_cJSON_malloc
08B2 A3                INC     DPTR
08B3 E0                MOVX    A,@DPTR
C51 COMPILER V9.01   CJSON                                                                 06/17/2019 10:07:01 PAGE 175 

08B4 FA                MOV     R2,A
08B5 A3                INC     DPTR
08B6 E0                MOVX    A,@DPTR
08B7 F582              MOV     DPL,A
08B9 8A83              MOV     DPH,R2
08BB 120000      E     LCALL   ?C?ICALL2
08BE 900000      R     MOV     DPTR,#out
08C1 EB                MOV     A,R3
08C2 F0                MOVX    @DPTR,A
08C3 A3                INC     DPTR
08C4 EA                MOV     A,R2
08C5 F0                MOVX    @DPTR,A
08C6 A3                INC     DPTR
08C7 E9                MOV     A,R1
08C8 F0                MOVX    @DPTR,A
08C9         ?C0338:
                                           ; SOURCE LINE # 630
08C9 900000      R     MOV     DPTR,#out
08CC E0                MOVX    A,@DPTR
08CD FB                MOV     R3,A
08CE A3                INC     DPTR
08CF E0                MOVX    A,@DPTR
08D0 FA                MOV     R2,A
08D1 A3                INC     DPTR
08D2 E0                MOVX    A,@DPTR
08D3 F9                MOV     R1,A
08D4 EA                MOV     A,R2
08D5 49                ORL     A,R1
08D6 4B                ORL     A,R3
08D7 7007              JNZ     ?C0339
08D9 900000      R     MOV     DPTR,#fail
08DC F0                MOVX    @DPTR,A
08DD A3                INC     DPTR
08DE 04                INC     A
08DF F0                MOVX    @DPTR,A
08E0         ?C0339:
                                           ; SOURCE LINE # 633
08E0 900000      R     MOV     DPTR,#fail
08E3 E0                MOVX    A,@DPTR
08E4 7002              JNZ     ?C0549
08E6 A3                INC     DPTR
08E7 E0                MOVX    A,@DPTR
08E8         ?C0549:
08E8 7003              JNZ     $ + 5H
08EA 020000      R     LJMP    ?C0340
                                           ; SOURCE LINE # 634
                                           ; SOURCE LINE # 635
08ED E4                CLR     A
08EE 900000      R     MOV     DPTR,#i
08F1 F0                MOVX    @DPTR,A
08F2 A3                INC     DPTR
08F3 F0                MOVX    @DPTR,A
08F4         ?C0341:
08F4 900000      R     MOV     DPTR,#numentries
08F7 E0                MOVX    A,@DPTR
08F8 FE                MOV     R6,A
08F9 A3                INC     DPTR
08FA E0                MOVX    A,@DPTR
08FB FF                MOV     R7,A
08FC 900000      R     MOV     DPTR,#i
08FF E0                MOVX    A,@DPTR
0900 FC                MOV     R4,A
C51 COMPILER V9.01   CJSON                                                                 06/17/2019 10:07:01 PAGE 176 

0901 A3                INC     DPTR
0902 E0                MOVX    A,@DPTR
0903 FD                MOV     R5,A
0904 C3                CLR     C
0905 9F                SUBB    A,R7
0906 EE                MOV     A,R6
0907 6480              XRL     A,#080H
0909 F8                MOV     R0,A
090A EC                MOV     A,R4
090B 6480              XRL     A,#080H
090D 98                SUBB    A,R0
090E 4003              JC      $ + 5H
0910 020000      R     LJMP    ?C0342
0913 900000      R     MOV     DPTR,#names
0916 E0                MOVX    A,@DPTR
0917 FB                MOV     R3,A
0918 A3                INC     DPTR
0919 E0                MOVX    A,@DPTR
091A FA                MOV     R2,A
091B A3                INC     DPTR
091C E0                MOVX    A,@DPTR
091D F9                MOV     R1,A
091E 8D82              MOV     DPL,R5
0920 8C83              MOV     DPH,R4
0922 7403              MOV     A,#03H
0924 120000      E     LCALL   ?C?OFFX256
0927 120000      E     LCALL   ?C?PLDOPTR
092A EA                MOV     A,R2
092B 49                ORL     A,R1
092C 4B                ORL     A,R3
092D 602A              JZ      ?C0344
092F 900000      R     MOV     DPTR,#names
0932 E0                MOVX    A,@DPTR
0933 FB                MOV     R3,A
0934 A3                INC     DPTR
0935 E0                MOVX    A,@DPTR
0936 FA                MOV     R2,A
0937 A3                INC     DPTR
0938 E0                MOVX    A,@DPTR
0939 F9                MOV     R1,A
093A 8D82              MOV     DPL,R5
093C 8C83              MOV     DPH,R4
093E 7403              MOV     A,#03H
0940 120000      E     LCALL   ?C?OFFX256
0943 120000      E     LCALL   ?C?PLDOPTR
0946 C002              PUSH    AR2
0948 900000      R     MOV     DPTR,#_cJSON_free
094B A3                INC     DPTR
094C E0                MOVX    A,@DPTR
094D FA                MOV     R2,A
094E A3                INC     DPTR
094F E0                MOVX    A,@DPTR
0950 F582              MOV     DPL,A
0952 8A83              MOV     DPH,R2
0954 D002              POP     AR2
0956 120000      E     LCALL   ?C?ICALL2
0959         ?C0344:
0959 900000      R     MOV     DPTR,#entries
095C E0                MOVX    A,@DPTR
095D FB                MOV     R3,A
095E A3                INC     DPTR
095F E0                MOVX    A,@DPTR
C51 COMPILER V9.01   CJSON                                                                 06/17/2019 10:07:01 PAGE 177 

0960 FA                MOV     R2,A
0961 A3                INC     DPTR
0962 E0                MOVX    A,@DPTR
0963 F9                MOV     R1,A
0964 900000      R     MOV     DPTR,#i
0967 E0                MOVX    A,@DPTR
0968 FE                MOV     R6,A
0969 A3                INC     DPTR
096A E0                MOVX    A,@DPTR
096B FF                MOV     R7,A
096C F582              MOV     DPL,A
096E 8E83              MOV     DPH,R6
0970 7403              MOV     A,#03H
0972 120000      E     LCALL   ?C?OFFX256
0975 120000      E     LCALL   ?C?PLDOPTR
0978 EA                MOV     A,R2
0979 49                ORL     A,R1
097A 4B                ORL     A,R3
097B 602A              JZ      ?C0343
097D 900000      R     MOV     DPTR,#entries
0980 E0                MOVX    A,@DPTR
0981 FB                MOV     R3,A
0982 A3                INC     DPTR
0983 E0                MOVX    A,@DPTR
0984 FA                MOV     R2,A
0985 A3                INC     DPTR
0986 E0                MOVX    A,@DPTR
0987 F9                MOV     R1,A
0988 8F82              MOV     DPL,R7
098A 8E83              MOV     DPH,R6
098C 7403              MOV     A,#03H
098E 120000      E     LCALL   ?C?OFFX256
0991 120000      E     LCALL   ?C?PLDOPTR
0994 C002              PUSH    AR2
0996 900000      R     MOV     DPTR,#_cJSON_free
0999 A3                INC     DPTR
099A E0                MOVX    A,@DPTR
099B FA                MOV     R2,A
099C A3                INC     DPTR
099D E0                MOVX    A,@DPTR
099E F582              MOV     DPL,A
09A0 8A83              MOV     DPH,R2
09A2 D002              POP     AR2
09A4 120000      E     LCALL   ?C?ICALL2
09A7         ?C0343:
09A7 900000      R     MOV     DPTR,#i+01H
09AA E0                MOVX    A,@DPTR
09AB 04                INC     A
09AC F0                MOVX    @DPTR,A
09AD 7006              JNZ     ?C0550
09AF 900000      R     MOV     DPTR,#i
09B2 E0                MOVX    A,@DPTR
09B3 04                INC     A
09B4 F0                MOVX    @DPTR,A
09B5         ?C0550:
09B5 020000      R     LJMP    ?C0341
09B8         ?C0342:
                                           ; SOURCE LINE # 636
09B8 900000      R     MOV     DPTR,#names
09BB E0                MOVX    A,@DPTR
09BC FB                MOV     R3,A
09BD A3                INC     DPTR
C51 COMPILER V9.01   CJSON                                                                 06/17/2019 10:07:01 PAGE 178 

09BE E0                MOVX    A,@DPTR
09BF FA                MOV     R2,A
09C0 A3                INC     DPTR
09C1 E0                MOVX    A,@DPTR
09C2 F9                MOV     R1,A
09C3 C002              PUSH    AR2
09C5 900000      R     MOV     DPTR,#_cJSON_free
09C8 A3                INC     DPTR
09C9 E0                MOVX    A,@DPTR
09CA FA                MOV     R2,A
09CB A3                INC     DPTR
09CC E0                MOVX    A,@DPTR
09CD F582              MOV     DPL,A
09CF 8A83              MOV     DPH,R2
09D1 D002              POP     AR2
09D3 120000      E     LCALL   ?C?ICALL2
09D6         ?C0665:
09D6 900000      R     MOV     DPTR,#entries
09D9 E0                MOVX    A,@DPTR
09DA FB                MOV     R3,A
09DB A3                INC     DPTR
09DC E0                MOVX    A,@DPTR
09DD FA                MOV     R2,A
09DE A3                INC     DPTR
09DF E0                MOVX    A,@DPTR
09E0 F9                MOV     R1,A
09E1 C002              PUSH    AR2
09E3 900000      R     MOV     DPTR,#_cJSON_free
09E6 A3                INC     DPTR
09E7 E0                MOVX    A,@DPTR
09E8 FA                MOV     R2,A
09E9 A3                INC     DPTR
09EA E0                MOVX    A,@DPTR
09EB F582              MOV     DPL,A
09ED 8A83              MOV     DPH,R2
09EF D002              POP     AR2
09F1 120000      E     LCALL   ?C?ICALL2
                                           ; SOURCE LINE # 637
09F4 7B00              MOV     R3,#00H
09F6 7A00              MOV     R2,#00H
09F8 7900              MOV     R1,#00H
09FA 22                RET     
                                           ; SOURCE LINE # 638
09FB         ?C0340:
                                           ; SOURCE LINE # 641
09FB 900000      R     MOV     DPTR,#out
09FE E0                MOVX    A,@DPTR
09FF FB                MOV     R3,A
0A00 A3                INC     DPTR
0A01 E0                MOVX    A,@DPTR
0A02 FA                MOV     R2,A
0A03 A3                INC     DPTR
0A04 E0                MOVX    A,@DPTR
0A05 F9                MOV     R1,A
0A06 747B              MOV     A,#07BH
0A08 120000      E     LCALL   ?C?CSTPTR
0A0B 900000      R     MOV     DPTR,#out
0A0E E0                MOVX    A,@DPTR
0A0F FB                MOV     R3,A
0A10 A3                INC     DPTR
0A11 E0                MOVX    A,@DPTR
0A12 FA                MOV     R2,A
C51 COMPILER V9.01   CJSON                                                                 06/17/2019 10:07:01 PAGE 179 

0A13 A3                INC     DPTR
0A14 E0                MOVX    A,@DPTR
0A15 2401              ADD     A,#01H
0A17 F9                MOV     R1,A
0A18 E4                CLR     A
0A19 3A                ADDC    A,R2
0A1A FA                MOV     R2,A
0A1B A3                INC     DPTR
0A1C EB                MOV     A,R3
0A1D F0                MOVX    @DPTR,A
0A1E A3                INC     DPTR
0A1F EA                MOV     A,R2
0A20 F0                MOVX    @DPTR,A
0A21 A3                INC     DPTR
0A22 E9                MOV     A,R1
0A23 F0                MOVX    @DPTR,A
0A24 900000      R     MOV     DPTR,#fmt
0A27 E0                MOVX    A,@DPTR
0A28 7002              JNZ     ?C0551
0A2A A3                INC     DPTR
0A2B E0                MOVX    A,@DPTR
0A2C         ?C0551:
0A2C 6015              JZ      ?C0346
0A2E 900000      R     MOV     DPTR,#ptr
0A31 E0                MOVX    A,@DPTR
0A32 FB                MOV     R3,A
0A33 A3                INC     DPTR
0A34 E4                CLR     A
0A35 75F001            MOV     B,#01H
0A38 120000      E     LCALL   ?C?ILDIX
0A3B A9F0              MOV     R1,B
0A3D FA                MOV     R2,A
0A3E 740A              MOV     A,#0AH
0A40 120000      E     LCALL   ?C?CSTPTR
0A43         ?C0346:
0A43 900000      R     MOV     DPTR,#ptr
0A46 E0                MOVX    A,@DPTR
0A47 FB                MOV     R3,A
0A48 A3                INC     DPTR
0A49 E0                MOVX    A,@DPTR
0A4A FA                MOV     R2,A
0A4B A3                INC     DPTR
0A4C E0                MOVX    A,@DPTR
0A4D F9                MOV     R1,A
0A4E E4                CLR     A
0A4F 120000      E     LCALL   ?C?CSTPTR
                                           ; SOURCE LINE # 642
0A52 900000      R     MOV     DPTR,#i
0A55 F0                MOVX    @DPTR,A
0A56 A3                INC     DPTR
0A57 F0                MOVX    @DPTR,A
0A58         ?C0347:
0A58 900000      R     MOV     DPTR,#numentries
0A5B E0                MOVX    A,@DPTR
0A5C FE                MOV     R6,A
0A5D A3                INC     DPTR
0A5E E0                MOVX    A,@DPTR
0A5F FF                MOV     R7,A
0A60 C3                CLR     C
0A61 900000      R     MOV     DPTR,#i+01H
0A64 E0                MOVX    A,@DPTR
0A65 9F                SUBB    A,R7
C51 COMPILER V9.01   CJSON                                                                 06/17/2019 10:07:01 PAGE 180 

0A66 EE                MOV     A,R6
0A67 6480              XRL     A,#080H
0A69 F8                MOV     R0,A
0A6A 900000      R     MOV     DPTR,#i
0A6D E0                MOVX    A,@DPTR
0A6E 6480              XRL     A,#080H
0A70 98                SUBB    A,R0
0A71 4003              JC      $ + 5H
0A73 020000      R     LJMP    ?C0348
                                           ; SOURCE LINE # 643
                                           ; SOURCE LINE # 644
0A76 900000      R     MOV     DPTR,#fmt
0A79 E0                MOVX    A,@DPTR
0A7A 7002              JNZ     ?C0552
0A7C A3                INC     DPTR
0A7D E0                MOVX    A,@DPTR
0A7E         ?C0552:
0A7E 6047              JZ      ?C0350
0A80 E4                CLR     A
0A81 900000      R     MOV     DPTR,#j
0A84 F0                MOVX    @DPTR,A
0A85 A3                INC     DPTR
0A86 F0                MOVX    @DPTR,A
0A87         ?C0351:
0A87 900000      R     MOV     DPTR,#depth
0A8A E0                MOVX    A,@DPTR
0A8B FE                MOV     R6,A
0A8C A3                INC     DPTR
0A8D E0                MOVX    A,@DPTR
0A8E FF                MOV     R7,A
0A8F C3                CLR     C
0A90 900000      R     MOV     DPTR,#j+01H
0A93 E0                MOVX    A,@DPTR
0A94 9F                SUBB    A,R7
0A95 EE                MOV     A,R6
0A96 6480              XRL     A,#080H
0A98 F8                MOV     R0,A
0A99 900000      R     MOV     DPTR,#j
0A9C E0                MOVX    A,@DPTR
0A9D 6480              XRL     A,#080H
0A9F 98                SUBB    A,R0
0AA0 5025              JNC     ?C0350
0AA2 900000      R     MOV     DPTR,#ptr
0AA5 E0                MOVX    A,@DPTR
0AA6 FB                MOV     R3,A
0AA7 A3                INC     DPTR
0AA8 E4                CLR     A
0AA9 75F001            MOV     B,#01H
0AAC 120000      E     LCALL   ?C?ILDIX
0AAF A9F0              MOV     R1,B
0AB1 FA                MOV     R2,A
0AB2 7409              MOV     A,#09H
0AB4 120000      E     LCALL   ?C?CSTPTR
0AB7 900000      R     MOV     DPTR,#j+01H
0ABA E0                MOVX    A,@DPTR
0ABB 04                INC     A
0ABC F0                MOVX    @DPTR,A
0ABD 70C8              JNZ     ?C0351
0ABF 900000      R     MOV     DPTR,#j
0AC2 E0                MOVX    A,@DPTR
0AC3 04                INC     A
0AC4 F0                MOVX    @DPTR,A
C51 COMPILER V9.01   CJSON                                                                 06/17/2019 10:07:01 PAGE 181 

0AC5         ?C0553:
0AC5 80C0              SJMP    ?C0351
0AC7         ?C0350:
                                           ; SOURCE LINE # 645
0AC7 900000      R     MOV     DPTR,#names
0ACA E0                MOVX    A,@DPTR
0ACB FB                MOV     R3,A
0ACC A3                INC     DPTR
0ACD E0                MOVX    A,@DPTR
0ACE FA                MOV     R2,A
0ACF A3                INC     DPTR
0AD0 E0                MOVX    A,@DPTR
0AD1 F9                MOV     R1,A
0AD2 900000      R     MOV     DPTR,#i
0AD5 E0                MOVX    A,@DPTR
0AD6 FE                MOV     R6,A
0AD7 A3                INC     DPTR
0AD8 E0                MOVX    A,@DPTR
0AD9 F582              MOV     DPL,A
0ADB 8E83              MOV     DPH,R6
0ADD 7403              MOV     A,#03H
0ADF 120000      E     LCALL   ?C?OFFX256
0AE2 120000      E     LCALL   ?C?PLDOPTR
0AE5 120000      E     LCALL   _strlen
0AE8 900000      R     MOV     DPTR,#tmplen
0AEB EE                MOV     A,R6
0AEC F0                MOVX    @DPTR,A
0AED A3                INC     DPTR
0AEE EF                MOV     A,R7
0AEF F0                MOVX    @DPTR,A
0AF0 900000      R     MOV     DPTR,#tmplen
0AF3 E0                MOVX    A,@DPTR
0AF4 FE                MOV     R6,A
0AF5 A3                INC     DPTR
0AF6 E0                MOVX    A,@DPTR
0AF7 FF                MOV     R7,A
0AF8 900000      R     MOV     DPTR,#names
0AFB E0                MOVX    A,@DPTR
0AFC FB                MOV     R3,A
0AFD A3                INC     DPTR
0AFE E0                MOVX    A,@DPTR
0AFF FA                MOV     R2,A
0B00 A3                INC     DPTR
0B01 E0                MOVX    A,@DPTR
0B02 F9                MOV     R1,A
0B03 900000      R     MOV     DPTR,#i
0B06 E0                MOVX    A,@DPTR
0B07 FC                MOV     R4,A
0B08 A3                INC     DPTR
0B09 E0                MOVX    A,@DPTR
0B0A F582              MOV     DPL,A
0B0C 8C83              MOV     DPH,R4
0B0E 7403              MOV     A,#03H
0B10 120000      E     LCALL   ?C?OFFX256
0B13 120000      E     LCALL   ?C?PLDOPTR
0B16 C003              PUSH    AR3
0B18 C002              PUSH    AR2
0B1A 900000      R     MOV     DPTR,#ptr
0B1D E0                MOVX    A,@DPTR
0B1E FB                MOV     R3,A
0B1F A3                INC     DPTR
0B20 E0                MOVX    A,@DPTR
C51 COMPILER V9.01   CJSON                                                                 06/17/2019 10:07:01 PAGE 182 

0B21 FA                MOV     R2,A
0B22 A3                INC     DPTR
0B23 E0                MOVX    A,@DPTR
0B24 F8                MOV     R0,A
0B25 AC02              MOV     R4,AR2
0B27 AD03              MOV     R5,AR3
0B29 D002              POP     AR2
0B2B D003              POP     AR3
0B2D 120000      E     LCALL   ?C?COPY
0B30 900000      R     MOV     DPTR,#tmplen
0B33 E0                MOVX    A,@DPTR
0B34 FE                MOV     R6,A
0B35 A3                INC     DPTR
0B36 E0                MOVX    A,@DPTR
0B37 FF                MOV     R7,A
0B38 900000      R     MOV     DPTR,#ptr+01H
0B3B EE                MOV     A,R6
0B3C 8FF0              MOV     B,R7
0B3E 120000      E     LCALL   ?C?IILDX
                                           ; SOURCE LINE # 646
0B41 900000      R     MOV     DPTR,#ptr
0B44 E0                MOVX    A,@DPTR
0B45 FB                MOV     R3,A
0B46 A3                INC     DPTR
0B47 E4                CLR     A
0B48 75F001            MOV     B,#01H
0B4B 120000      E     LCALL   ?C?ILDIX
0B4E A9F0              MOV     R1,B
0B50 FA                MOV     R2,A
0B51 743A              MOV     A,#03AH
0B53 120000      E     LCALL   ?C?CSTPTR
0B56 900000      R     MOV     DPTR,#fmt
0B59 E0                MOVX    A,@DPTR
0B5A 7002              JNZ     ?C0554
0B5C A3                INC     DPTR
0B5D E0                MOVX    A,@DPTR
0B5E         ?C0554:
0B5E 6015              JZ      ?C0354
0B60 900000      R     MOV     DPTR,#ptr
0B63 E0                MOVX    A,@DPTR
0B64 FB                MOV     R3,A
0B65 A3                INC     DPTR
0B66 E4                CLR     A
0B67 75F001            MOV     B,#01H
0B6A 120000      E     LCALL   ?C?ILDIX
0B6D A9F0              MOV     R1,B
0B6F FA                MOV     R2,A
0B70 7409              MOV     A,#09H
0B72 120000      E     LCALL   ?C?CSTPTR
0B75         ?C0354:
                                           ; SOURCE LINE # 647
0B75 900000      R     MOV     DPTR,#entries
0B78 E0                MOVX    A,@DPTR
0B79 FB                MOV     R3,A
0B7A A3                INC     DPTR
0B7B E0                MOVX    A,@DPTR
0B7C FA                MOV     R2,A
0B7D A3                INC     DPTR
0B7E E0                MOVX    A,@DPTR
0B7F F9                MOV     R1,A
0B80 900000      R     MOV     DPTR,#i
0B83 E0                MOVX    A,@DPTR
C51 COMPILER V9.01   CJSON                                                                 06/17/2019 10:07:01 PAGE 183 

0B84 FE                MOV     R6,A
0B85 A3                INC     DPTR
0B86 E0                MOVX    A,@DPTR
0B87 F582              MOV     DPL,A
0B89 8E83              MOV     DPH,R6
0B8B 7403              MOV     A,#03H
0B8D 120000      E     LCALL   ?C?OFFX256
0B90 120000      E     LCALL   ?C?PLDOPTR
0B93 C003              PUSH    AR3
0B95 C002              PUSH    AR2
0B97 900000      R     MOV     DPTR,#ptr
0B9A E0                MOVX    A,@DPTR
0B9B FB                MOV     R3,A
0B9C A3                INC     DPTR
0B9D E0                MOVX    A,@DPTR
0B9E FA                MOV     R2,A
0B9F A3                INC     DPTR
0BA0 E0                MOVX    A,@DPTR
0BA1 F8                MOV     R0,A
0BA2 AC02              MOV     R4,AR2
0BA4 AD03              MOV     R5,AR3
0BA6 D002              POP     AR2
0BA8 D003              POP     AR3
0BAA 120000      E     LCALL   ?C?STRCPY
0BAD 900000      R     MOV     DPTR,#entries
0BB0 E0                MOVX    A,@DPTR
0BB1 FB                MOV     R3,A
0BB2 A3                INC     DPTR
0BB3 E0                MOVX    A,@DPTR
0BB4 FA                MOV     R2,A
0BB5 A3                INC     DPTR
0BB6 E0                MOVX    A,@DPTR
0BB7 F9                MOV     R1,A
0BB8 900000      R     MOV     DPTR,#i
0BBB E0                MOVX    A,@DPTR
0BBC FE                MOV     R6,A
0BBD A3                INC     DPTR
0BBE E0                MOVX    A,@DPTR
0BBF F582              MOV     DPL,A
0BC1 8E83              MOV     DPH,R6
0BC3 7403              MOV     A,#03H
0BC5 120000      E     LCALL   ?C?OFFX256
0BC8 120000      E     LCALL   ?C?PLDOPTR
0BCB 120000      E     LCALL   _strlen
0BCE 900000      R     MOV     DPTR,#ptr+01H
0BD1 EE                MOV     A,R6
0BD2 8FF0              MOV     B,R7
0BD4 120000      E     LCALL   ?C?IILDX
                                           ; SOURCE LINE # 648
0BD7 900000      R     MOV     DPTR,#numentries+01H
0BDA E0                MOVX    A,@DPTR
0BDB 24FF              ADD     A,#0FFH
0BDD FF                MOV     R7,A
0BDE 900000      R     MOV     DPTR,#numentries
0BE1 E0                MOVX    A,@DPTR
0BE2 34FF              ADDC    A,#0FFH
0BE4 FE                MOV     R6,A
0BE5 900000      R     MOV     DPTR,#i
0BE8 E0                MOVX    A,@DPTR
0BE9 6E                XRL     A,R6
0BEA 7003              JNZ     ?C0555
0BEC A3                INC     DPTR
C51 COMPILER V9.01   CJSON                                                                 06/17/2019 10:07:01 PAGE 184 

0BED E0                MOVX    A,@DPTR
0BEE 6F                XRL     A,R7
0BEF         ?C0555:
0BEF 6015              JZ      ?C0355
0BF1 900000      R     MOV     DPTR,#ptr
0BF4 E0                MOVX    A,@DPTR
0BF5 FB                MOV     R3,A
0BF6 A3                INC     DPTR
0BF7 E4                CLR     A
0BF8 75F001            MOV     B,#01H
0BFB 120000      E     LCALL   ?C?ILDIX
0BFE A9F0              MOV     R1,B
0C00 FA                MOV     R2,A
0C01 742C              MOV     A,#02CH
0C03 120000      E     LCALL   ?C?CSTPTR
0C06         ?C0355:
                                           ; SOURCE LINE # 649
0C06 900000      R     MOV     DPTR,#fmt
0C09 E0                MOVX    A,@DPTR
0C0A 7002              JNZ     ?C0556
0C0C A3                INC     DPTR
0C0D E0                MOVX    A,@DPTR
0C0E         ?C0556:
0C0E 6015              JZ      ?C0356
0C10 900000      R     MOV     DPTR,#ptr
0C13 E0                MOVX    A,@DPTR
0C14 FB                MOV     R3,A
0C15 A3                INC     DPTR
0C16 E4                CLR     A
0C17 75F001            MOV     B,#01H
0C1A 120000      E     LCALL   ?C?ILDIX
0C1D A9F0              MOV     R1,B
0C1F FA                MOV     R2,A
0C20 740A              MOV     A,#0AH
0C22 120000      E     LCALL   ?C?CSTPTR
0C25         ?C0356:
0C25 900000      R     MOV     DPTR,#ptr
0C28 E0                MOVX    A,@DPTR
0C29 FB                MOV     R3,A
0C2A A3                INC     DPTR
0C2B E0                MOVX    A,@DPTR
0C2C FA                MOV     R2,A
0C2D A3                INC     DPTR
0C2E E0                MOVX    A,@DPTR
0C2F F9                MOV     R1,A
0C30 E4                CLR     A
0C31 120000      E     LCALL   ?C?CSTPTR
                                           ; SOURCE LINE # 650
0C34 900000      R     MOV     DPTR,#names
0C37 E0                MOVX    A,@DPTR
0C38 FB                MOV     R3,A
0C39 A3                INC     DPTR
0C3A E0                MOVX    A,@DPTR
0C3B FA                MOV     R2,A
0C3C A3                INC     DPTR
0C3D E0                MOVX    A,@DPTR
0C3E F9                MOV     R1,A
0C3F 900000      R     MOV     DPTR,#i
0C42 E0                MOVX    A,@DPTR
0C43 FE                MOV     R6,A
0C44 A3                INC     DPTR
0C45 E0                MOVX    A,@DPTR
C51 COMPILER V9.01   CJSON                                                                 06/17/2019 10:07:01 PAGE 185 

0C46 F582              MOV     DPL,A
0C48 8E83              MOV     DPH,R6
0C4A 7403              MOV     A,#03H
0C4C 120000      E     LCALL   ?C?OFFX256
0C4F 120000      E     LCALL   ?C?PLDOPTR
0C52 C002              PUSH    AR2
0C54 900000      R     MOV     DPTR,#_cJSON_free
0C57 A3                INC     DPTR
0C58 E0                MOVX    A,@DPTR
0C59 FA                MOV     R2,A
0C5A A3                INC     DPTR
0C5B E0                MOVX    A,@DPTR
0C5C F582              MOV     DPL,A
0C5E 8A83              MOV     DPH,R2
0C60 D002              POP     AR2
0C62 120000      E     LCALL   ?C?ICALL2
0C65 900000      R     MOV     DPTR,#entries
0C68 E0                MOVX    A,@DPTR
0C69 FB                MOV     R3,A
0C6A A3                INC     DPTR
0C6B E0                MOVX    A,@DPTR
0C6C FA                MOV     R2,A
0C6D A3                INC     DPTR
0C6E E0                MOVX    A,@DPTR
0C6F F9                MOV     R1,A
0C70 900000      R     MOV     DPTR,#i
0C73 E0                MOVX    A,@DPTR
0C74 FE                MOV     R6,A
0C75 A3                INC     DPTR
0C76 E0                MOVX    A,@DPTR
0C77 F582              MOV     DPL,A
0C79 8E83              MOV     DPH,R6
0C7B 7403              MOV     A,#03H
0C7D 120000      E     LCALL   ?C?OFFX256
0C80 120000      E     LCALL   ?C?PLDOPTR
0C83 C002              PUSH    AR2
0C85 900000      R     MOV     DPTR,#_cJSON_free
0C88 A3                INC     DPTR
0C89 E0                MOVX    A,@DPTR
0C8A FA                MOV     R2,A
0C8B A3                INC     DPTR
0C8C E0                MOVX    A,@DPTR
0C8D F582              MOV     DPL,A
0C8F 8A83              MOV     DPH,R2
0C91 D002              POP     AR2
0C93 120000      E     LCALL   ?C?ICALL2
                                           ; SOURCE LINE # 651
0C96 900000      R     MOV     DPTR,#i+01H
0C99 E0                MOVX    A,@DPTR
0C9A 04                INC     A
0C9B F0                MOVX    @DPTR,A
0C9C 7006              JNZ     ?C0557
0C9E 900000      R     MOV     DPTR,#i
0CA1 E0                MOVX    A,@DPTR
0CA2 04                INC     A
0CA3 F0                MOVX    @DPTR,A
0CA4         ?C0557:
0CA4 020000      R     LJMP    ?C0347
0CA7         ?C0348:
                                           ; SOURCE LINE # 653
0CA7 900000      R     MOV     DPTR,#names
0CAA E0                MOVX    A,@DPTR
C51 COMPILER V9.01   CJSON                                                                 06/17/2019 10:07:01 PAGE 186 

0CAB FB                MOV     R3,A
0CAC A3                INC     DPTR
0CAD E0                MOVX    A,@DPTR
0CAE FA                MOV     R2,A
0CAF A3                INC     DPTR
0CB0 E0                MOVX    A,@DPTR
0CB1 F9                MOV     R1,A
0CB2 C002              PUSH    AR2
0CB4 900000      R     MOV     DPTR,#_cJSON_free
0CB7 A3                INC     DPTR
0CB8 E0                MOVX    A,@DPTR
0CB9 FA                MOV     R2,A
0CBA A3                INC     DPTR
0CBB E0                MOVX    A,@DPTR
0CBC F582              MOV     DPL,A
0CBE 8A83              MOV     DPH,R2
0CC0 D002              POP     AR2
0CC2 120000      E     LCALL   ?C?ICALL2
0CC5 900000      R     MOV     DPTR,#entries
0CC8 E0                MOVX    A,@DPTR
0CC9 FB                MOV     R3,A
0CCA A3                INC     DPTR
0CCB E0                MOVX    A,@DPTR
0CCC FA                MOV     R2,A
0CCD A3                INC     DPTR
0CCE E0                MOVX    A,@DPTR
0CCF F9                MOV     R1,A
0CD0 C002              PUSH    AR2
0CD2 900000      R     MOV     DPTR,#_cJSON_free
0CD5 A3                INC     DPTR
0CD6 E0                MOVX    A,@DPTR
0CD7 FA                MOV     R2,A
0CD8 A3                INC     DPTR
0CD9 E0                MOVX    A,@DPTR
0CDA F582              MOV     DPL,A
0CDC 8A83              MOV     DPH,R2
0CDE D002              POP     AR2
0CE0 120000      E     LCALL   ?C?ICALL2
                                           ; SOURCE LINE # 654
0CE3 900000      R     MOV     DPTR,#fmt
0CE6 E0                MOVX    A,@DPTR
0CE7 7002              JNZ     ?C0558
0CE9 A3                INC     DPTR
0CEA E0                MOVX    A,@DPTR
0CEB         ?C0558:
0CEB 604D              JZ      ?C0357
0CED E4                CLR     A
0CEE 900000      R     MOV     DPTR,#i
0CF1 F0                MOVX    @DPTR,A
0CF2 A3                INC     DPTR
0CF3 F0                MOVX    @DPTR,A
0CF4         ?C0358:
0CF4 900000      R     MOV     DPTR,#depth+01H
0CF7 E0                MOVX    A,@DPTR
0CF8 24FF              ADD     A,#0FFH
0CFA FF                MOV     R7,A
0CFB 900000      R     MOV     DPTR,#depth
0CFE E0                MOVX    A,@DPTR
0CFF 34FF              ADDC    A,#0FFH
0D01 FE                MOV     R6,A
0D02 C3                CLR     C
0D03 900000      R     MOV     DPTR,#i+01H
C51 COMPILER V9.01   CJSON                                                                 06/17/2019 10:07:01 PAGE 187 

0D06 E0                MOVX    A,@DPTR
0D07 9F                SUBB    A,R7
0D08 EE                MOV     A,R6
0D09 6480              XRL     A,#080H
0D0B F8                MOV     R0,A
0D0C 900000      R     MOV     DPTR,#i
0D0F E0                MOVX    A,@DPTR
0D10 6480              XRL     A,#080H
0D12 98                SUBB    A,R0
0D13 5025              JNC     ?C0357
0D15 900000      R     MOV     DPTR,#ptr
0D18 E0                MOVX    A,@DPTR
0D19 FB                MOV     R3,A
0D1A A3                INC     DPTR
0D1B E4                CLR     A
0D1C 75F001            MOV     B,#01H
0D1F 120000      E     LCALL   ?C?ILDIX
0D22 A9F0              MOV     R1,B
0D24 FA                MOV     R2,A
0D25 7409              MOV     A,#09H
0D27 120000      E     LCALL   ?C?CSTPTR
0D2A 900000      R     MOV     DPTR,#i+01H
0D2D E0                MOVX    A,@DPTR
0D2E 04                INC     A
0D2F F0                MOVX    @DPTR,A
0D30 70C2              JNZ     ?C0358
0D32 900000      R     MOV     DPTR,#i
0D35 E0                MOVX    A,@DPTR
0D36 04                INC     A
0D37 F0                MOVX    @DPTR,A
0D38         ?C0559:
0D38 80BA              SJMP    ?C0358
0D3A         ?C0357:
                                           ; SOURCE LINE # 655
0D3A 900000      R     MOV     DPTR,#ptr
0D3D E0                MOVX    A,@DPTR
0D3E FB                MOV     R3,A
0D3F A3                INC     DPTR
0D40 E4                CLR     A
0D41 75F001            MOV     B,#01H
0D44 120000      E     LCALL   ?C?ILDIX
0D47 A9F0              MOV     R1,B
0D49 FA                MOV     R2,A
0D4A 747D              MOV     A,#07DH
0D4C 120000      E     LCALL   ?C?CSTPTR
0D4F 900000      R     MOV     DPTR,#ptr
0D52 E0                MOVX    A,@DPTR
0D53 FB                MOV     R3,A
0D54 A3                INC     DPTR
0D55 E4                CLR     A
0D56 75F001            MOV     B,#01H
0D59 120000      E     LCALL   ?C?ILDIX
0D5C A9F0              MOV     R1,B
0D5E FA                MOV     R2,A
0D5F E4                CLR     A
0D60 120000      E     LCALL   ?C?CSTPTR
                                           ; SOURCE LINE # 656
0D63         ?C0328:
                                           ; SOURCE LINE # 657
0D63         ?C0659:
0D63 900000      R     MOV     DPTR,#out
0D66 E0                MOVX    A,@DPTR
C51 COMPILER V9.01   CJSON                                                                 06/17/2019 10:07:01 PAGE 188 

0D67 FB                MOV     R3,A
0D68 A3                INC     DPTR
0D69 E0                MOVX    A,@DPTR
0D6A FA                MOV     R2,A
0D6B A3                INC     DPTR
0D6C E0                MOVX    A,@DPTR
0D6D F9                MOV     R1,A
                                           ; SOURCE LINE # 658
0D6E         ?C0293:
0D6E 22                RET     
             ; FUNCTION _print_object (END)

             ; FUNCTION _cJSON_GetArraySize (BEGIN)
                                           ; SOURCE LINE # 661
;---- Variable 'array' assigned to Register 'R1/R2/R3' ----
0000 900006            MOV     DPTR,#06H
0003 120000      E     LCALL   ?C?PLDOPTR
;---- Variable 'c' assigned to Register 'R1/R2/R3' ----
;---- Variable 'i' assigned to Register 'R6/R7' ----
0006 E4                CLR     A
0007 FF                MOV     R7,A
0008 FE                MOV     R6,A
0009         ?C0361:
0009 EA                MOV     A,R2
000A 49                ORL     A,R1
000B 4B                ORL     A,R3
000C 600A              JZ      ?C0362
000E 0F                INC     R7
000F BF0001            CJNE    R7,#00H,?C0560
0012 0E                INC     R6
0013         ?C0560:
0013 120000      E     LCALL   ?C?PLDPTR
0016 80F1              SJMP    ?C0361
0018         ?C0362:
0018         ?C0363:
0018 22                RET     
             ; FUNCTION _cJSON_GetArraySize (END)

             ; FUNCTION _cJSON_GetArrayItem (BEGIN)
                                           ; SOURCE LINE # 662
;---- Variable 'item' assigned to Register 'R4/R5' ----
;---- Variable 'array' assigned to Register 'R1/R2/R3' ----
0000 900006            MOV     DPTR,#06H
0003 120000      E     LCALL   ?C?PLDOPTR
;---- Variable 'c' assigned to Register 'R1/R2/R3' ----
0006         ?C0364:
0006 EA                MOV     A,R2
0007 49                ORL     A,R1
0008 4B                ORL     A,R3
0009 6015              JZ      ?C0365
000B D3                SETB    C
000C ED                MOV     A,R5
000D 9400              SUBB    A,#00H
000F EC                MOV     A,R4
0010 6480              XRL     A,#080H
0012 9480              SUBB    A,#080H
0014 400A              JC      ?C0365
0016 ED                MOV     A,R5
0017 1D                DEC     R5
0018 7001              JNZ     ?C0561
001A 1C                DEC     R4
001B         ?C0561:
C51 COMPILER V9.01   CJSON                                                                 06/17/2019 10:07:01 PAGE 189 

001B 120000      E     LCALL   ?C?PLDPTR
001E 80E6              SJMP    ?C0364
0020         ?C0365:
0020         ?C0366:
0020 22                RET     
             ; FUNCTION _cJSON_GetArrayItem (END)

             ; FUNCTION _cJSON_GetObjectItem (BEGIN)
                                           ; SOURCE LINE # 663
;---- Variable 'object' assigned to Register 'R1/R2/R3' ----
0000 900006            MOV     DPTR,#06H
0003 120000      E     LCALL   ?C?PLDOPTR
0006 804E              SJMP    ?C0666
0008         ?C0367:
0008 900000      R     MOV     DPTR,#c
000B E0                MOVX    A,@DPTR
000C FB                MOV     R3,A
000D A3                INC     DPTR
000E E0                MOVX    A,@DPTR
000F FA                MOV     R2,A
0010 A3                INC     DPTR
0011 E0                MOVX    A,@DPTR
0012 F9                MOV     R1,A
0013 EA                MOV     A,R2
0014 49                ORL     A,R1
0015 4B                ORL     A,R3
0016 604B              JZ      ?C0368
0018 900000      R     MOV     DPTR,#c
001B A3                INC     DPTR
001C A3                INC     DPTR
001D E0                MOVX    A,@DPTR
001E 900014            MOV     DPTR,#014H
0021 120000      E     LCALL   ?C?PLDOPTR
0024 C002              PUSH    AR2
0026 C001              PUSH    AR1
0028 900000      R     MOV     DPTR,#string
002B E0                MOVX    A,@DPTR
002C F9                MOV     R1,A
002D A3                INC     DPTR
002E E0                MOVX    A,@DPTR
002F FA                MOV     R2,A
0030 A3                INC     DPTR
0031 E0                MOVX    A,@DPTR
0032 900000      R     MOV     DPTR,#?_cJSON_strcasecmp?BYTE+03H
0035 C9                XCH     A,R1
0036 F0                MOVX    @DPTR,A
0037 A3                INC     DPTR
0038 EA                MOV     A,R2
0039 F0                MOVX    @DPTR,A
003A A3                INC     DPTR
003B E9                MOV     A,R1
003C F0                MOVX    @DPTR,A
003D D001              POP     AR1
003F D002              POP     AR2
0041 120000      R     LCALL   _cJSON_strcasecmp
0044 EF                MOV     A,R7
0045 4E                ORL     A,R6
0046 601B              JZ      ?C0368
0048 900000      R     MOV     DPTR,#c
004B E0                MOVX    A,@DPTR
004C FB                MOV     R3,A
004D A3                INC     DPTR
C51 COMPILER V9.01   CJSON                                                                 06/17/2019 10:07:01 PAGE 190 

004E E0                MOVX    A,@DPTR
004F FA                MOV     R2,A
0050 A3                INC     DPTR
0051 E0                MOVX    A,@DPTR
0052 F9                MOV     R1,A
0053 120000      E     LCALL   ?C?PLDPTR
0056         ?C0666:
0056 900000      R     MOV     DPTR,#c
0059 EB                MOV     A,R3
005A F0                MOVX    @DPTR,A
005B A3                INC     DPTR
005C EA                MOV     A,R2
005D F0                MOVX    @DPTR,A
005E A3                INC     DPTR
005F E9                MOV     A,R1
0060 F0                MOVX    @DPTR,A
0061 80A5              SJMP    ?C0367
0063         ?C0368:
0063 900000      R     MOV     DPTR,#c
0066 E0                MOVX    A,@DPTR
0067 FB                MOV     R3,A
0068 A3                INC     DPTR
0069 E0                MOVX    A,@DPTR
006A FA                MOV     R2,A
006B A3                INC     DPTR
006C E0                MOVX    A,@DPTR
006D F9                MOV     R1,A
006E         ?C0369:
006E 22                RET     
             ; FUNCTION _cJSON_GetObjectItem (END)

             ; FUNCTION L?0690 (BEGIN)
0000         L?0691:
0000 E0                MOVX    A,@DPTR
0001 FB                MOV     R3,A
0002 A3                INC     DPTR
0003 E0                MOVX    A,@DPTR
0004 FA                MOV     R2,A
0005 A3                INC     DPTR
0006 E0                MOVX    A,@DPTR
0007 F9                MOV     R1,A
             ; FUNCTION _suffix_object (BEGIN)
                                           ; SOURCE LINE # 666
0008 900000      R     MOV     DPTR,#prev
000B EB                MOV     A,R3
000C F0                MOVX    @DPTR,A
000D A3                INC     DPTR
000E EA                MOV     A,R2
000F F0                MOVX    @DPTR,A
0010 A3                INC     DPTR
0011 E9                MOV     A,R1
0012 F0                MOVX    @DPTR,A
0013 A3                INC     DPTR
0014 E0                MOVX    A,@DPTR
0015 FB                MOV     R3,A
0016 A3                INC     DPTR
0017 E0                MOVX    A,@DPTR
0018 FA                MOV     R2,A
0019 A3                INC     DPTR
001A E0                MOVX    A,@DPTR
001B F9                MOV     R1,A
001C C003              PUSH    AR3
C51 COMPILER V9.01   CJSON                                                                 06/17/2019 10:07:01 PAGE 191 

001E C002              PUSH    AR2
0020 C001              PUSH    AR1
0022 900000      R     MOV     DPTR,#prev
0025 E0                MOVX    A,@DPTR
0026 FB                MOV     R3,A
0027 A3                INC     DPTR
0028 E0                MOVX    A,@DPTR
0029 FA                MOV     R2,A
002A A3                INC     DPTR
002B E0                MOVX    A,@DPTR
002C F9                MOV     R1,A
002D 120000      E     LCALL   ?C?PSTPTR
0030 900000      R     MOV     DPTR,#prev
0033 E0                MOVX    A,@DPTR
0034 FB                MOV     R3,A
0035 A3                INC     DPTR
0036 E0                MOVX    A,@DPTR
0037 FA                MOV     R2,A
0038 A3                INC     DPTR
0039 E0                MOVX    A,@DPTR
003A F9                MOV     R1,A
003B C003              PUSH    AR3
003D C002              PUSH    AR2
003F C001              PUSH    AR1
0041 A3                INC     DPTR
0042 E0                MOVX    A,@DPTR
0043 FB                MOV     R3,A
0044 A3                INC     DPTR
0045 E0                MOVX    A,@DPTR
0046 FA                MOV     R2,A
0047 A3                INC     DPTR
0048 E0                MOVX    A,@DPTR
0049 F9                MOV     R1,A
004A 900003            MOV     DPTR,#03H
004D 120000      E     LCALL   ?C?PSTOPTR
0050 22                RET     
             ; FUNCTION _suffix_object (END)

             ; FUNCTION L?0704 (BEGIN)
0000 E0                MOVX    A,@DPTR
0001 FB                MOV     R3,A
0002 A3                INC     DPTR
0003 E0                MOVX    A,@DPTR
0004 FA                MOV     R2,A
0005 A3                INC     DPTR
0006 E0                MOVX    A,@DPTR
0007 F9                MOV     R1,A
             ; FUNCTION _create_reference (BEGIN)
                                           ; SOURCE LINE # 668
0008 900000      R     MOV     DPTR,#item
000B 120000      R     LCALL   L?0702
000E 900000      R     MOV     DPTR,#ref
0011 EB                MOV     A,R3
0012 F0                MOVX    @DPTR,A
0013 A3                INC     DPTR
0014 EA                MOV     A,R2
0015 F0                MOVX    @DPTR,A
0016 A3                INC     DPTR
0017 E9                MOV     A,R1
0018 F0                MOVX    @DPTR,A
0019 4A                ORL     A,R2
001A 4B                ORL     A,R3
C51 COMPILER V9.01   CJSON                                                                 06/17/2019 10:07:01 PAGE 192 

001B 7004              JNZ     ?C0371
001D FB                MOV     R3,A
001E FA                MOV     R2,A
001F F9                MOV     R1,A
0020 22                RET     
0021         ?C0371:
0021 900000      R     MOV     DPTR,#ref
0024 E0                MOVX    A,@DPTR
0025 FB                MOV     R3,A
0026 A3                INC     DPTR
0027 E0                MOVX    A,@DPTR
0028 FA                MOV     R2,A
0029 A3                INC     DPTR
002A E0                MOVX    A,@DPTR
002B F8                MOV     R0,A
002C AC02              MOV     R4,AR2
002E AD03              MOV     R5,AR3
0030 900000      R     MOV     DPTR,#item
0033 E0                MOVX    A,@DPTR
0034 FB                MOV     R3,A
0035 A3                INC     DPTR
0036 E0                MOVX    A,@DPTR
0037 FA                MOV     R2,A
0038 A3                INC     DPTR
0039 E0                MOVX    A,@DPTR
003A F9                MOV     R1,A
003B 7E00              MOV     R6,#00H
003D 7F17              MOV     R7,#017H
003F 120000      E     LCALL   ?C?COPY
0042 7B00              MOV     R3,#00H
0044 7A00              MOV     R2,#00H
0046 7900              MOV     R1,#00H
0048 C003              PUSH    AR3
004A C002              PUSH    AR2
004C C001              PUSH    AR1
004E 900000      R     MOV     DPTR,#ref
0051 E0                MOVX    A,@DPTR
0052 FB                MOV     R3,A
0053 A3                INC     DPTR
0054 E0                MOVX    A,@DPTR
0055 FA                MOV     R2,A
0056 A3                INC     DPTR
0057 E0                MOVX    A,@DPTR
0058 F9                MOV     R1,A
0059 900014            MOV     DPTR,#014H
005C 120000      E     LCALL   ?C?PSTOPTR
005F 900000      R     MOV     DPTR,#ref
0062 E0                MOVX    A,@DPTR
0063 FB                MOV     R3,A
0064 A3                INC     DPTR
0065 E0                MOVX    A,@DPTR
0066 FA                MOV     R2,A
0067 A3                INC     DPTR
0068 E0                MOVX    A,@DPTR
0069 2409              ADD     A,#09H
006B F9                MOV     R1,A
006C E4                CLR     A
006D 3A                ADDC    A,R2
006E FA                MOV     R2,A
006F 120000      E     LCALL   ?C?ILDPTR
0072 4440              ORL     A,#040H
0074 FF                MOV     R7,A
C51 COMPILER V9.01   CJSON                                                                 06/17/2019 10:07:01 PAGE 193 

0075 E5F0              MOV     A,B
0077 8FF0              MOV     B,R7
0079 120000      E     LCALL   ?C?ISTPTR
007C 7B00              MOV     R3,#00H
007E 7A00              MOV     R2,#00H
0080 7900              MOV     R1,#00H
0082 C003              PUSH    AR3
0084 C002              PUSH    AR2
0086 C001              PUSH    AR1
0088 900000      R     MOV     DPTR,#ref
008B E0                MOVX    A,@DPTR
008C FB                MOV     R3,A
008D A3                INC     DPTR
008E E0                MOVX    A,@DPTR
008F FA                MOV     R2,A
0090 A3                INC     DPTR
0091 E0                MOVX    A,@DPTR
0092 F9                MOV     R1,A
0093 900003            MOV     DPTR,#03H
0096 120000      E     LCALL   ?C?PSTOPTR
0099 7B00              MOV     R3,#00H
009B 7A00              MOV     R2,#00H
009D 7900              MOV     R1,#00H
009F C003              PUSH    AR3
00A1 C002              PUSH    AR2
00A3 C001              PUSH    AR1
00A5 900000      R     MOV     DPTR,#ref
00A8 E0                MOVX    A,@DPTR
00A9 FB                MOV     R3,A
00AA A3                INC     DPTR
00AB E0                MOVX    A,@DPTR
00AC FA                MOV     R2,A
00AD A3                INC     DPTR
00AE E0                MOVX    A,@DPTR
00AF F9                MOV     R1,A
00B0 120000      E     LCALL   ?C?PSTPTR
00B3 900000      R     MOV     DPTR,#ref
00B6 E0                MOVX    A,@DPTR
00B7 FB                MOV     R3,A
00B8 A3                INC     DPTR
00B9 E0                MOVX    A,@DPTR
00BA FA                MOV     R2,A
00BB A3                INC     DPTR
00BC E0                MOVX    A,@DPTR
00BD F9                MOV     R1,A
00BE         ?C0372:
00BE 22                RET     
             ; FUNCTION _create_reference (END)

             ; FUNCTION L?0703 (BEGIN)
0000 E0                MOVX    A,@DPTR
0001 FB                MOV     R3,A
0002 A3                INC     DPTR
0003 E0                MOVX    A,@DPTR
0004 FA                MOV     R2,A
0005 A3                INC     DPTR
0006 E0                MOVX    A,@DPTR
0007 F9                MOV     R1,A
             ; FUNCTION _cJSON_AddItemToArray (BEGIN)
                                           ; SOURCE LINE # 671
0008 900000      R     MOV     DPTR,#array
000B EB                MOV     A,R3
C51 COMPILER V9.01   CJSON                                                                 06/17/2019 10:07:01 PAGE 194 

000C F0                MOVX    @DPTR,A
000D A3                INC     DPTR
000E EA                MOV     A,R2
000F F0                MOVX    @DPTR,A
0010 A3                INC     DPTR
0011 E9                MOV     A,R1
0012 F0                MOVX    @DPTR,A
0013 900006            MOV     DPTR,#06H
0016 120000      E     LCALL   ?C?PLDOPTR
0019 900000      R     MOV     DPTR,#c
001C EB                MOV     A,R3
001D F0                MOVX    @DPTR,A
001E A3                INC     DPTR
001F EA                MOV     A,R2
0020 F0                MOVX    @DPTR,A
0021 A3                INC     DPTR
0022 E9                MOV     A,R1
0023 F0                MOVX    @DPTR,A
0024 900000      R     MOV     DPTR,#item
0027 E0                MOVX    A,@DPTR
0028 FB                MOV     R3,A
0029 A3                INC     DPTR
002A E0                MOVX    A,@DPTR
002B FA                MOV     R2,A
002C A3                INC     DPTR
002D E0                MOVX    A,@DPTR
002E F9                MOV     R1,A
002F EA                MOV     A,R2
0030 49                ORL     A,R1
0031 4B                ORL     A,R3
0032 7003              JNZ     $ + 5H
0034 020000      R     LJMP    ?C0374
0037         ?C0373:
0037 900000      R     MOV     DPTR,#c
003A E0                MOVX    A,@DPTR
003B FB                MOV     R3,A
003C A3                INC     DPTR
003D E0                MOVX    A,@DPTR
003E FA                MOV     R2,A
003F A3                INC     DPTR
0040 E0                MOVX    A,@DPTR
0041 F9                MOV     R1,A
0042 EA                MOV     A,R2
0043 49                ORL     A,R1
0044 4B                ORL     A,R3
0045 7023              JNZ     ?C0377
0047 900000      R     MOV     DPTR,#item
004A E0                MOVX    A,@DPTR
004B FB                MOV     R3,A
004C A3                INC     DPTR
004D E0                MOVX    A,@DPTR
004E FA                MOV     R2,A
004F A3                INC     DPTR
0050 E0                MOVX    A,@DPTR
0051 F9                MOV     R1,A
0052 C003              PUSH    AR3
0054 C002              PUSH    AR2
0056 C001              PUSH    AR1
0058 900000      R     MOV     DPTR,#array
005B E0                MOVX    A,@DPTR
005C FB                MOV     R3,A
005D A3                INC     DPTR
C51 COMPILER V9.01   CJSON                                                                 06/17/2019 10:07:01 PAGE 195 

005E E0                MOVX    A,@DPTR
005F FA                MOV     R2,A
0060 A3                INC     DPTR
0061 E0                MOVX    A,@DPTR
0062 F9                MOV     R1,A
0063 900006            MOV     DPTR,#06H
0066 120000      E     LCALL   ?C?PSTOPTR
0069 22                RET     
006A         ?C0377:
006A 900000      R     MOV     DPTR,#c
006D E0                MOVX    A,@DPTR
006E FB                MOV     R3,A
006F A3                INC     DPTR
0070 E0                MOVX    A,@DPTR
0071 FA                MOV     R2,A
0072 A3                INC     DPTR
0073 E0                MOVX    A,@DPTR
0074 F9                MOV     R1,A
0075 EA                MOV     A,R2
0076 49                ORL     A,R1
0077 4B                ORL     A,R3
0078 6029              JZ      ?C0378
007A 900000      R     MOV     DPTR,#c
007D A3                INC     DPTR
007E A3                INC     DPTR
007F E0                MOVX    A,@DPTR
0080 120000      E     LCALL   ?C?PLDPTR
0083 EA                MOV     A,R2
0084 49                ORL     A,R1
0085 4B                ORL     A,R3
0086 601B              JZ      ?C0378
0088 900000      R     MOV     DPTR,#c
008B E0                MOVX    A,@DPTR
008C FB                MOV     R3,A
008D A3                INC     DPTR
008E E0                MOVX    A,@DPTR
008F FA                MOV     R2,A
0090 A3                INC     DPTR
0091 E0                MOVX    A,@DPTR
0092 F9                MOV     R1,A
0093 120000      E     LCALL   ?C?PLDPTR
0096 900000      R     MOV     DPTR,#c
0099 EB                MOV     A,R3
009A F0                MOVX    @DPTR,A
009B A3                INC     DPTR
009C EA                MOV     A,R2
009D F0                MOVX    @DPTR,A
009E A3                INC     DPTR
009F E9                MOV     A,R1
00A0 F0                MOVX    @DPTR,A
00A1 80C7              SJMP    ?C0377
00A3         ?C0378:
00A3 900000      R     MOV     DPTR,#item
00A6 E0                MOVX    A,@DPTR
00A7 F9                MOV     R1,A
00A8 A3                INC     DPTR
00A9 E0                MOVX    A,@DPTR
00AA FA                MOV     R2,A
00AB A3                INC     DPTR
00AC E0                MOVX    A,@DPTR
00AD 900000      R     MOV     DPTR,#?_suffix_object?BYTE+03H
00B0 C9                XCH     A,R1
C51 COMPILER V9.01   CJSON                                                                 06/17/2019 10:07:01 PAGE 196 

00B1 F0                MOVX    @DPTR,A
00B2 A3                INC     DPTR
00B3 EA                MOV     A,R2
00B4 F0                MOVX    @DPTR,A
00B5 A3                INC     DPTR
00B6 E9                MOV     A,R1
00B7 F0                MOVX    @DPTR,A
00B8 900000      R     MOV     DPTR,#c
00BB 120000      R     LCALL   L?0690
00BE         ?C0374:
00BE 22                RET     
             ; FUNCTION _cJSON_AddItemToArray (END)

             ; FUNCTION _cJSON_AddItemToObject (BEGIN)
                                           ; SOURCE LINE # 672
0000 900000      R     MOV     DPTR,#object
0003 EB                MOV     A,R3
0004 F0                MOVX    @DPTR,A
0005 A3                INC     DPTR
0006 EA                MOV     A,R2
0007 F0                MOVX    @DPTR,A
0008 A3                INC     DPTR
0009 E9                MOV     A,R1
000A F0                MOVX    @DPTR,A
000B 900000      R     MOV     DPTR,#item
000E E0                MOVX    A,@DPTR
000F FB                MOV     R3,A
0010 A3                INC     DPTR
0011 E0                MOVX    A,@DPTR
0012 FA                MOV     R2,A
0013 A3                INC     DPTR
0014 E0                MOVX    A,@DPTR
0015 F9                MOV     R1,A
0016 EA                MOV     A,R2
0017 49                ORL     A,R1
0018 4B                ORL     A,R3
0019 6072              JZ      ?C0380
001B         ?C0379:
001B 900000      R     MOV     DPTR,#item
001E E0                MOVX    A,@DPTR
001F FB                MOV     R3,A
0020 A3                INC     DPTR
0021 E0                MOVX    A,@DPTR
0022 FA                MOV     R2,A
0023 A3                INC     DPTR
0024 E0                MOVX    A,@DPTR
0025 F9                MOV     R1,A
0026 900014            MOV     DPTR,#014H
0029 120000      E     LCALL   ?C?PLDOPTR
002C EA                MOV     A,R2
002D 49                ORL     A,R1
002E 4B                ORL     A,R3
002F 6024              JZ      ?C0381
0031 900000      R     MOV     DPTR,#item
0034 E0                MOVX    A,@DPTR
0035 FB                MOV     R3,A
0036 A3                INC     DPTR
0037 E0                MOVX    A,@DPTR
0038 FA                MOV     R2,A
0039 A3                INC     DPTR
003A E0                MOVX    A,@DPTR
003B F9                MOV     R1,A
C51 COMPILER V9.01   CJSON                                                                 06/17/2019 10:07:01 PAGE 197 

003C 900014            MOV     DPTR,#014H
003F 120000      E     LCALL   ?C?PLDOPTR
0042 C002              PUSH    AR2
0044 900000      R     MOV     DPTR,#_cJSON_free
0047 A3                INC     DPTR
0048 E0                MOVX    A,@DPTR
0049 FA                MOV     R2,A
004A A3                INC     DPTR
004B E0                MOVX    A,@DPTR
004C F582              MOV     DPL,A
004E 8A83              MOV     DPH,R2
0050 D002              POP     AR2
0052 120000      E     LCALL   ?C?ICALL2
0055         ?C0381:
0055 900000      R     MOV     DPTR,#string
0058 120000      R     LCALL   L?0699
005B C003              PUSH    AR3
005D C002              PUSH    AR2
005F C001              PUSH    AR1
0061 900000      R     MOV     DPTR,#item
0064 E0                MOVX    A,@DPTR
0065 FB                MOV     R3,A
0066 A3                INC     DPTR
0067 E0                MOVX    A,@DPTR
0068 FA                MOV     R2,A
0069 A3                INC     DPTR
006A E0                MOVX    A,@DPTR
006B F9                MOV     R1,A
006C 900014            MOV     DPTR,#014H
006F 120000      E     LCALL   ?C?PSTOPTR
0072 900000      R     MOV     DPTR,#item
0075 E0                MOVX    A,@DPTR
0076 F9                MOV     R1,A
0077 A3                INC     DPTR
0078 E0                MOVX    A,@DPTR
0079 FA                MOV     R2,A
007A A3                INC     DPTR
007B E0                MOVX    A,@DPTR
007C 900000      R     MOV     DPTR,#?_cJSON_AddItemToArray?BYTE+03H
007F C9                XCH     A,R1
0080 F0                MOVX    @DPTR,A
0081 A3                INC     DPTR
0082 EA                MOV     A,R2
0083 F0                MOVX    @DPTR,A
0084 A3                INC     DPTR
0085 E9                MOV     A,R1
0086 F0                MOVX    @DPTR,A
0087 900000      R     MOV     DPTR,#object
008A 120000      R     LCALL   L?0703
008D         ?C0380:
008D 22                RET     
             ; FUNCTION _cJSON_AddItemToObject (END)

             ; FUNCTION _cJSON_AddItemToObjectCS (BEGIN)
                                           ; SOURCE LINE # 673
0000 900000      R     MOV     DPTR,#object
0003 EB                MOV     A,R3
0004 F0                MOVX    @DPTR,A
0005 A3                INC     DPTR
0006 EA                MOV     A,R2
0007 F0                MOVX    @DPTR,A
0008 A3                INC     DPTR
C51 COMPILER V9.01   CJSON                                                                 06/17/2019 10:07:01 PAGE 198 

0009 E9                MOV     A,R1
000A F0                MOVX    @DPTR,A
000B 900000      R     MOV     DPTR,#item
000E E0                MOVX    A,@DPTR
000F FB                MOV     R3,A
0010 A3                INC     DPTR
0011 E0                MOVX    A,@DPTR
0012 FA                MOV     R2,A
0013 A3                INC     DPTR
0014 E0                MOVX    A,@DPTR
0015 F9                MOV     R1,A
0016 EA                MOV     A,R2
0017 49                ORL     A,R1
0018 4B                ORL     A,R3
0019 7003              JNZ     $ + 5H
001B 020000      R     LJMP    ?C0383
001E         ?C0382:
001E 900000      R     MOV     DPTR,#item
0021 E0                MOVX    A,@DPTR
0022 FB                MOV     R3,A
0023 A3                INC     DPTR
0024 E0                MOVX    A,@DPTR
0025 FA                MOV     R2,A
0026 A3                INC     DPTR
0027 E0                MOVX    A,@DPTR
0028 F9                MOV     R1,A
0029 900009            MOV     DPTR,#09H
002C 120000      E     LCALL   ?C?ILDOPTR
002F 20E72F            JB      ACC.7,?C0384
0032 900014            MOV     DPTR,#014H
0035 120000      E     LCALL   ?C?PLDOPTR
0038 EA                MOV     A,R2
0039 49                ORL     A,R1
003A 4B                ORL     A,R3
003B 6024              JZ      ?C0384
003D 900000      R     MOV     DPTR,#item
0040 E0                MOVX    A,@DPTR
0041 FB                MOV     R3,A
0042 A3                INC     DPTR
0043 E0                MOVX    A,@DPTR
0044 FA                MOV     R2,A
0045 A3                INC     DPTR
0046 E0                MOVX    A,@DPTR
0047 F9                MOV     R1,A
0048 900014            MOV     DPTR,#014H
004B 120000      E     LCALL   ?C?PLDOPTR
004E C002              PUSH    AR2
0050 900000      R     MOV     DPTR,#_cJSON_free
0053 A3                INC     DPTR
0054 E0                MOVX    A,@DPTR
0055 FA                MOV     R2,A
0056 A3                INC     DPTR
0057 E0                MOVX    A,@DPTR
0058 F582              MOV     DPL,A
005A 8A83              MOV     DPH,R2
005C D002              POP     AR2
005E 120000      E     LCALL   ?C?ICALL2
0061         ?C0384:
0061 900000      R     MOV     DPTR,#string
0064 E0                MOVX    A,@DPTR
0065 FB                MOV     R3,A
0066 A3                INC     DPTR
C51 COMPILER V9.01   CJSON                                                                 06/17/2019 10:07:01 PAGE 199 

0067 E0                MOVX    A,@DPTR
0068 FA                MOV     R2,A
0069 A3                INC     DPTR
006A E0                MOVX    A,@DPTR
006B F9                MOV     R1,A
006C C003              PUSH    AR3
006E C002              PUSH    AR2
0070 C001              PUSH    AR1
0072 A3                INC     DPTR
0073 E0                MOVX    A,@DPTR
0074 FB                MOV     R3,A
0075 A3                INC     DPTR
0076 E0                MOVX    A,@DPTR
0077 FA                MOV     R2,A
0078 A3                INC     DPTR
0079 E0                MOVX    A,@DPTR
007A F9                MOV     R1,A
007B 900014            MOV     DPTR,#014H
007E 120000      E     LCALL   ?C?PSTOPTR
0081 900000      R     MOV     DPTR,#item
0084 E0                MOVX    A,@DPTR
0085 FB                MOV     R3,A
0086 A3                INC     DPTR
0087 E0                MOVX    A,@DPTR
0088 FA                MOV     R2,A
0089 A3                INC     DPTR
008A E0                MOVX    A,@DPTR
008B 2409              ADD     A,#09H
008D F9                MOV     R1,A
008E E4                CLR     A
008F 3A                ADDC    A,R2
0090 FA                MOV     R2,A
0091 120000      E     LCALL   ?C?ILDPTR
0094 4480              ORL     A,#080H
0096 FF                MOV     R7,A
0097 E5F0              MOV     A,B
0099 8FF0              MOV     B,R7
009B 120000      E     LCALL   ?C?ISTPTR
009E 900000      R     MOV     DPTR,#item
00A1 E0                MOVX    A,@DPTR
00A2 F9                MOV     R1,A
00A3 A3                INC     DPTR
00A4 E0                MOVX    A,@DPTR
00A5 FA                MOV     R2,A
00A6 A3                INC     DPTR
00A7 E0                MOVX    A,@DPTR
00A8 900000      R     MOV     DPTR,#?_cJSON_AddItemToArray?BYTE+03H
00AB C9                XCH     A,R1
00AC F0                MOVX    @DPTR,A
00AD A3                INC     DPTR
00AE EA                MOV     A,R2
00AF F0                MOVX    @DPTR,A
00B0 A3                INC     DPTR
00B1 E9                MOV     A,R1
00B2 F0                MOVX    @DPTR,A
00B3 900000      R     MOV     DPTR,#object
00B6 120000      R     LCALL   L?0703
00B9         ?C0383:
00B9 22                RET     
             ; FUNCTION _cJSON_AddItemToObjectCS (END)

             ; FUNCTION _cJSON_AddItemReferenceToArray (BEGIN)
C51 COMPILER V9.01   CJSON                                                                 06/17/2019 10:07:01 PAGE 200 

                                           ; SOURCE LINE # 674
0000 900000      R     MOV     DPTR,#array
0003 EB                MOV     A,R3
0004 F0                MOVX    @DPTR,A
0005 A3                INC     DPTR
0006 EA                MOV     A,R2
0007 F0                MOVX    @DPTR,A
0008 A3                INC     DPTR
0009 E9                MOV     A,R1
000A F0                MOVX    @DPTR,A
000B A3                INC     DPTR
000C 120000      R     LCALL   L?0704
000F 900000      R     MOV     DPTR,#?_cJSON_AddItemToArray?BYTE+03H
0012 EB                MOV     A,R3
0013 F0                MOVX    @DPTR,A
0014 A3                INC     DPTR
0015 EA                MOV     A,R2
0016 F0                MOVX    @DPTR,A
0017 A3                INC     DPTR
0018 E9                MOV     A,R1
0019 F0                MOVX    @DPTR,A
001A 900000      R     MOV     DPTR,#array
001D E0                MOVX    A,@DPTR
001E FB                MOV     R3,A
001F A3                INC     DPTR
0020 E0                MOVX    A,@DPTR
0021 FA                MOV     R2,A
0022 A3                INC     DPTR
0023 E0                MOVX    A,@DPTR
0024 F9                MOV     R1,A
0025 020000      R     LJMP    _cJSON_AddItemToArray
             ; FUNCTION _cJSON_AddItemReferenceToArray (END)

             ; FUNCTION _cJSON_AddItemReferenceToObject (BEGIN)
                                           ; SOURCE LINE # 675
0000 900000      R     MOV     DPTR,#object
0003 EB                MOV     A,R3
0004 F0                MOVX    @DPTR,A
0005 A3                INC     DPTR
0006 EA                MOV     A,R2
0007 F0                MOVX    @DPTR,A
0008 A3                INC     DPTR
0009 E9                MOV     A,R1
000A F0                MOVX    @DPTR,A
000B 900000      R     MOV     DPTR,#item
000E 120000      R     LCALL   L?0704
0011 900000      R     MOV     DPTR,#?_cJSON_AddItemToObject?BYTE+06H
0014 EB                MOV     A,R3
0015 F0                MOVX    @DPTR,A
0016 A3                INC     DPTR
0017 EA                MOV     A,R2
0018 F0                MOVX    @DPTR,A
0019 A3                INC     DPTR
001A E9                MOV     A,R1
001B F0                MOVX    @DPTR,A
001C 900000      R     MOV     DPTR,#string
001F E0                MOVX    A,@DPTR
0020 F9                MOV     R1,A
0021 A3                INC     DPTR
0022 E0                MOVX    A,@DPTR
0023 FA                MOV     R2,A
0024 A3                INC     DPTR
C51 COMPILER V9.01   CJSON                                                                 06/17/2019 10:07:01 PAGE 201 

0025 E0                MOVX    A,@DPTR
0026 900000      R     MOV     DPTR,#?_cJSON_AddItemToObject?BYTE+03H
0029 C9                XCH     A,R1
002A F0                MOVX    @DPTR,A
002B A3                INC     DPTR
002C EA                MOV     A,R2
002D F0                MOVX    @DPTR,A
002E A3                INC     DPTR
002F E9                MOV     A,R1
0030 F0                MOVX    @DPTR,A
0031 900000      R     MOV     DPTR,#object
0034 E0                MOVX    A,@DPTR
0035 FB                MOV     R3,A
0036 A3                INC     DPTR
0037 E0                MOVX    A,@DPTR
0038 FA                MOV     R2,A
0039 A3                INC     DPTR
003A E0                MOVX    A,@DPTR
003B F9                MOV     R1,A
003C 020000      R     LJMP    _cJSON_AddItemToObject
             ; FUNCTION _cJSON_AddItemReferenceToObject (END)

             ; FUNCTION _cJSON_DetachItemFromArray (BEGIN)
                                           ; SOURCE LINE # 677
;---- Variable 'which' assigned to Register 'R4/R5' ----
0000 900000      R     MOV     DPTR,#array
0003 EB                MOV     A,R3
0004 F0                MOVX    @DPTR,A
0005 A3                INC     DPTR
0006 EA                MOV     A,R2
0007 F0                MOVX    @DPTR,A
0008 A3                INC     DPTR
0009 E9                MOV     A,R1
000A F0                MOVX    @DPTR,A
000B 900006            MOV     DPTR,#06H
000E 120000      E     LCALL   ?C?PLDOPTR
0011 900000      R     MOV     DPTR,#c
0014 EB                MOV     A,R3
0015 F0                MOVX    @DPTR,A
0016 A3                INC     DPTR
0017 EA                MOV     A,R2
0018 F0                MOVX    @DPTR,A
0019 A3                INC     DPTR
001A E9                MOV     A,R1
001B F0                MOVX    @DPTR,A
001C         ?C0387:
001C 900000      R     MOV     DPTR,#c
001F E0                MOVX    A,@DPTR
0020 FB                MOV     R3,A
0021 A3                INC     DPTR
0022 E0                MOVX    A,@DPTR
0023 FA                MOV     R2,A
0024 A3                INC     DPTR
0025 E0                MOVX    A,@DPTR
0026 F9                MOV     R1,A
0027 EA                MOV     A,R2
0028 49                ORL     A,R1
0029 4B                ORL     A,R3
002A 6026              JZ      ?C0388
002C D3                SETB    C
002D ED                MOV     A,R5
002E 9400              SUBB    A,#00H
C51 COMPILER V9.01   CJSON                                                                 06/17/2019 10:07:01 PAGE 202 

0030 EC                MOV     A,R4
0031 6480              XRL     A,#080H
0033 9480              SUBB    A,#080H
0035 401B              JC      ?C0388
0037 900000      R     MOV     DPTR,#c
003A A3                INC     DPTR
003B A3                INC     DPTR
003C E0                MOVX    A,@DPTR
003D 120000      E     LCALL   ?C?PLDPTR
0040 900000      R     MOV     DPTR,#c
0043 EB                MOV     A,R3
0044 F0                MOVX    @DPTR,A
0045 A3                INC     DPTR
0046 EA                MOV     A,R2
0047 F0                MOVX    @DPTR,A
0048 A3                INC     DPTR
0049 E9                MOV     A,R1
004A F0                MOVX    @DPTR,A
004B ED                MOV     A,R5
004C 1D                DEC     R5
004D 70CD              JNZ     ?C0387
004F 1C                DEC     R4
0050         ?C0562:
0050 80CA              SJMP    ?C0387
0052         ?C0388:
0052 900000      R     MOV     DPTR,#c
0055 E0                MOVX    A,@DPTR
0056 FB                MOV     R3,A
0057 A3                INC     DPTR
0058 E0                MOVX    A,@DPTR
0059 FA                MOV     R2,A
005A A3                INC     DPTR
005B E0                MOVX    A,@DPTR
005C F9                MOV     R1,A
005D EA                MOV     A,R2
005E 49                ORL     A,R1
005F 4B                ORL     A,R3
0060 7004              JNZ     ?C0389
0062 FB                MOV     R3,A
0063 FA                MOV     R2,A
0064 F9                MOV     R1,A
0065 22                RET     
0066         ?C0389:
                                           ; SOURCE LINE # 678
0066 900000      R     MOV     DPTR,#c
0069 E0                MOVX    A,@DPTR
006A FB                MOV     R3,A
006B A3                INC     DPTR
006C E0                MOVX    A,@DPTR
006D FA                MOV     R2,A
006E A3                INC     DPTR
006F E0                MOVX    A,@DPTR
0070 F9                MOV     R1,A
0071 900003            MOV     DPTR,#03H
0074 120000      E     LCALL   ?C?PLDOPTR
0077 EA                MOV     A,R2
0078 49                ORL     A,R1
0079 4B                ORL     A,R3
007A 6028              JZ      ?C0391
007C 900000      R     MOV     DPTR,#c
007F E0                MOVX    A,@DPTR
0080 FB                MOV     R3,A
C51 COMPILER V9.01   CJSON                                                                 06/17/2019 10:07:01 PAGE 203 

0081 A3                INC     DPTR
0082 E0                MOVX    A,@DPTR
0083 FA                MOV     R2,A
0084 A3                INC     DPTR
0085 E0                MOVX    A,@DPTR
0086 F9                MOV     R1,A
0087 120000      E     LCALL   ?C?PLDPTR
008A C003              PUSH    AR3
008C C002              PUSH    AR2
008E C001              PUSH    AR1
0090 900000      R     MOV     DPTR,#c
0093 E0                MOVX    A,@DPTR
0094 FB                MOV     R3,A
0095 A3                INC     DPTR
0096 E0                MOVX    A,@DPTR
0097 FA                MOV     R2,A
0098 A3                INC     DPTR
0099 E0                MOVX    A,@DPTR
009A F9                MOV     R1,A
009B 900003            MOV     DPTR,#03H
009E 120000      E     LCALL   ?C?PLDOPTR
00A1 120000      E     LCALL   ?C?PSTPTR
00A4         ?C0391:
00A4 900000      R     MOV     DPTR,#c
00A7 E0                MOVX    A,@DPTR
00A8 FB                MOV     R3,A
00A9 A3                INC     DPTR
00AA E0                MOVX    A,@DPTR
00AB FA                MOV     R2,A
00AC A3                INC     DPTR
00AD E0                MOVX    A,@DPTR
00AE F9                MOV     R1,A
00AF 120000      E     LCALL   ?C?PLDPTR
00B2 EA                MOV     A,R2
00B3 49                ORL     A,R1
00B4 4B                ORL     A,R3
00B5 602B              JZ      ?C0392
00B7 900000      R     MOV     DPTR,#c
00BA E0                MOVX    A,@DPTR
00BB FB                MOV     R3,A
00BC A3                INC     DPTR
00BD E0                MOVX    A,@DPTR
00BE FA                MOV     R2,A
00BF A3                INC     DPTR
00C0 E0                MOVX    A,@DPTR
00C1 F9                MOV     R1,A
00C2 900003            MOV     DPTR,#03H
00C5 120000      E     LCALL   ?C?PLDOPTR
00C8 C003              PUSH    AR3
00CA C002              PUSH    AR2
00CC C001              PUSH    AR1
00CE 900000      R     MOV     DPTR,#c
00D1 E0                MOVX    A,@DPTR
00D2 FB                MOV     R3,A
00D3 A3                INC     DPTR
00D4 E0                MOVX    A,@DPTR
00D5 FA                MOV     R2,A
00D6 A3                INC     DPTR
00D7 E0                MOVX    A,@DPTR
00D8 F9                MOV     R1,A
00D9 120000      E     LCALL   ?C?PLDPTR
00DC 900003            MOV     DPTR,#03H
C51 COMPILER V9.01   CJSON                                                                 06/17/2019 10:07:01 PAGE 204 

00DF 120000      E     LCALL   ?C?PSTOPTR
00E2         ?C0392:
00E2 900000      R     MOV     DPTR,#array
00E5 E0                MOVX    A,@DPTR
00E6 FB                MOV     R3,A
00E7 A3                INC     DPTR
00E8 E0                MOVX    A,@DPTR
00E9 FA                MOV     R2,A
00EA A3                INC     DPTR
00EB E0                MOVX    A,@DPTR
00EC F9                MOV     R1,A
00ED 900006            MOV     DPTR,#06H
00F0 120000      E     LCALL   ?C?PLDOPTR
00F3 C003              PUSH    AR3
00F5 C002              PUSH    AR2
00F7 C001              PUSH    AR1
00F9 900000      R     MOV     DPTR,#c
00FC E0                MOVX    A,@DPTR
00FD FB                MOV     R3,A
00FE A3                INC     DPTR
00FF E0                MOVX    A,@DPTR
0100 FA                MOV     R2,A
0101 A3                INC     DPTR
0102 E0                MOVX    A,@DPTR
0103 F9                MOV     R1,A
0104 D082              POP     DPL
0106 D083              POP     DPH
0108 D0E0              POP     ACC
010A 6B                XRL     A,R3
010B 7008              JNZ     ?C0563
010D E9                MOV     A,R1
010E 6582              XRL     A,DPL
0110 7003              JNZ     ?C0563
0112 EA                MOV     A,R2
0113 6583              XRL     A,DPH
0115         ?C0563:
0115 7025              JNZ     ?C0393
0117 900000      R     MOV     DPTR,#c
011A E0                MOVX    A,@DPTR
011B FB                MOV     R3,A
011C A3                INC     DPTR
011D E0                MOVX    A,@DPTR
011E FA                MOV     R2,A
011F A3                INC     DPTR
0120 E0                MOVX    A,@DPTR
0121 F9                MOV     R1,A
0122 120000      E     LCALL   ?C?PLDPTR
0125 C003              PUSH    AR3
0127 C002              PUSH    AR2
0129 C001              PUSH    AR1
012B 900000      R     MOV     DPTR,#array
012E E0                MOVX    A,@DPTR
012F FB                MOV     R3,A
0130 A3                INC     DPTR
0131 E0                MOVX    A,@DPTR
0132 FA                MOV     R2,A
0133 A3                INC     DPTR
0134 E0                MOVX    A,@DPTR
0135 F9                MOV     R1,A
0136 900006            MOV     DPTR,#06H
0139 120000      E     LCALL   ?C?PSTOPTR
013C         ?C0393:
C51 COMPILER V9.01   CJSON                                                                 06/17/2019 10:07:01 PAGE 205 

013C 7B00              MOV     R3,#00H
013E 7A00              MOV     R2,#00H
0140 7900              MOV     R1,#00H
0142 C003              PUSH    AR3
0144 C002              PUSH    AR2
0146 C001              PUSH    AR1
0148 900000      R     MOV     DPTR,#c
014B E0                MOVX    A,@DPTR
014C FB                MOV     R3,A
014D A3                INC     DPTR
014E E0                MOVX    A,@DPTR
014F FA                MOV     R2,A
0150 A3                INC     DPTR
0151 E0                MOVX    A,@DPTR
0152 F9                MOV     R1,A
0153 120000      E     LCALL   ?C?PSTPTR
0156 7B00              MOV     R3,#00H
0158 7A00              MOV     R2,#00H
015A 7900              MOV     R1,#00H
015C C003              PUSH    AR3
015E C002              PUSH    AR2
0160 C001              PUSH    AR1
0162 900000      R     MOV     DPTR,#c
0165 E0                MOVX    A,@DPTR
0166 FB                MOV     R3,A
0167 A3                INC     DPTR
0168 E0                MOVX    A,@DPTR
0169 FA                MOV     R2,A
016A A3                INC     DPTR
016B E0                MOVX    A,@DPTR
016C F9                MOV     R1,A
016D 900003            MOV     DPTR,#03H
0170 120000      E     LCALL   ?C?PSTOPTR
0173 900000      R     MOV     DPTR,#c
0176 E0                MOVX    A,@DPTR
0177 FB                MOV     R3,A
0178 A3                INC     DPTR
0179 E0                MOVX    A,@DPTR
017A FA                MOV     R2,A
017B A3                INC     DPTR
017C E0                MOVX    A,@DPTR
017D F9                MOV     R1,A
017E         ?C0390:
017E 22                RET     
             ; FUNCTION _cJSON_DetachItemFromArray (END)

             ; FUNCTION _cJSON_DeleteItemFromArray (BEGIN)
                                           ; SOURCE LINE # 679
;---- Variable 'which' assigned to Register 'R4/R5' ----
;---- Variable 'array' assigned to Register 'R1/R2/R3' ----
0000 120000      R     LCALL   _cJSON_DetachItemFromArray
0003 020000      R     LJMP    _cJSON_Delete
             ; FUNCTION _cJSON_DeleteItemFromArray (END)

             ; FUNCTION _cJSON_DetachItemFromObject (BEGIN)
                                           ; SOURCE LINE # 680
0000 900000      R     MOV     DPTR,#object
0003 EB                MOV     A,R3
0004 F0                MOVX    @DPTR,A
0005 A3                INC     DPTR
0006 EA                MOV     A,R2
0007 F0                MOVX    @DPTR,A
C51 COMPILER V9.01   CJSON                                                                 06/17/2019 10:07:01 PAGE 206 

0008 A3                INC     DPTR
0009 E9                MOV     A,R1
000A F0                MOVX    @DPTR,A
000B E4                CLR     A
000C 900000      R     MOV     DPTR,#i
000F F0                MOVX    @DPTR,A
0010 A3                INC     DPTR
0011 F0                MOVX    @DPTR,A
0012 900000      R     MOV     DPTR,#object
0015 E0                MOVX    A,@DPTR
0016 FB                MOV     R3,A
0017 A3                INC     DPTR
0018 E0                MOVX    A,@DPTR
0019 FA                MOV     R2,A
001A A3                INC     DPTR
001B E0                MOVX    A,@DPTR
001C F9                MOV     R1,A
001D 900006            MOV     DPTR,#06H
0020 120000      E     LCALL   ?C?PLDOPTR
0023 805C              SJMP    ?C0667
0025         ?C0395:
0025 900000      R     MOV     DPTR,#c
0028 E0                MOVX    A,@DPTR
0029 FB                MOV     R3,A
002A A3                INC     DPTR
002B E0                MOVX    A,@DPTR
002C FA                MOV     R2,A
002D A3                INC     DPTR
002E E0                MOVX    A,@DPTR
002F F9                MOV     R1,A
0030 EA                MOV     A,R2
0031 49                ORL     A,R1
0032 4B                ORL     A,R3
0033 6059              JZ      ?C0396
0035 900000      R     MOV     DPTR,#c
0038 A3                INC     DPTR
0039 A3                INC     DPTR
003A E0                MOVX    A,@DPTR
003B 900014            MOV     DPTR,#014H
003E 120000      E     LCALL   ?C?PLDOPTR
0041 C002              PUSH    AR2
0043 C001              PUSH    AR1
0045 900000      R     MOV     DPTR,#string
0048 E0                MOVX    A,@DPTR
0049 F9                MOV     R1,A
004A A3                INC     DPTR
004B E0                MOVX    A,@DPTR
004C FA                MOV     R2,A
004D A3                INC     DPTR
004E E0                MOVX    A,@DPTR
004F 900000      R     MOV     DPTR,#?_cJSON_strcasecmp?BYTE+03H
0052 C9                XCH     A,R1
0053 F0                MOVX    @DPTR,A
0054 A3                INC     DPTR
0055 EA                MOV     A,R2
0056 F0                MOVX    @DPTR,A
0057 A3                INC     DPTR
0058 E9                MOV     A,R1
0059 F0                MOVX    @DPTR,A
005A D001              POP     AR1
005C D002              POP     AR2
005E 120000      R     LCALL   _cJSON_strcasecmp
C51 COMPILER V9.01   CJSON                                                                 06/17/2019 10:07:01 PAGE 207 

0061 EF                MOV     A,R7
0062 4E                ORL     A,R6
0063 6029              JZ      ?C0396
0065 900000      R     MOV     DPTR,#i+01H
0068 E0                MOVX    A,@DPTR
0069 04                INC     A
006A F0                MOVX    @DPTR,A
006B 7006              JNZ     ?C0564
006D 900000      R     MOV     DPTR,#i
0070 E0                MOVX    A,@DPTR
0071 04                INC     A
0072 F0                MOVX    @DPTR,A
0073         ?C0564:
0073 900000      R     MOV     DPTR,#c
0076 E0                MOVX    A,@DPTR
0077 FB                MOV     R3,A
0078 A3                INC     DPTR
0079 E0                MOVX    A,@DPTR
007A FA                MOV     R2,A
007B A3                INC     DPTR
007C E0                MOVX    A,@DPTR
007D F9                MOV     R1,A
007E 120000      E     LCALL   ?C?PLDPTR
0081         ?C0667:
0081 900000      R     MOV     DPTR,#c
0084 EB                MOV     A,R3
0085 F0                MOVX    @DPTR,A
0086 A3                INC     DPTR
0087 EA                MOV     A,R2
0088 F0                MOVX    @DPTR,A
0089 A3                INC     DPTR
008A E9                MOV     A,R1
008B F0                MOVX    @DPTR,A
008C 8097              SJMP    ?C0395
008E         ?C0396:
008E 900000      R     MOV     DPTR,#c
0091 E0                MOVX    A,@DPTR
0092 FB                MOV     R3,A
0093 A3                INC     DPTR
0094 E0                MOVX    A,@DPTR
0095 FA                MOV     R2,A
0096 A3                INC     DPTR
0097 E0                MOVX    A,@DPTR
0098 F9                MOV     R1,A
0099 EA                MOV     A,R2
009A 49                ORL     A,R1
009B 4B                ORL     A,R3
009C 6016              JZ      ?C0397
009E 900000      R     MOV     DPTR,#object
00A1 E0                MOVX    A,@DPTR
00A2 FB                MOV     R3,A
00A3 A3                INC     DPTR
00A4 E0                MOVX    A,@DPTR
00A5 FA                MOV     R2,A
00A6 A3                INC     DPTR
00A7 E0                MOVX    A,@DPTR
00A8 F9                MOV     R1,A
00A9 900000      R     MOV     DPTR,#i
00AC E0                MOVX    A,@DPTR
00AD FC                MOV     R4,A
00AE A3                INC     DPTR
00AF E0                MOVX    A,@DPTR
C51 COMPILER V9.01   CJSON                                                                 06/17/2019 10:07:01 PAGE 208 

00B0 FD                MOV     R5,A
00B1 020000      R     LJMP    _cJSON_DetachItemFromArray
00B4         ?C0397:
00B4 7B00              MOV     R3,#00H
00B6 7A00              MOV     R2,#00H
00B8 7900              MOV     R1,#00H
00BA         ?C0398:
00BA 22                RET     
             ; FUNCTION _cJSON_DetachItemFromObject (END)

             ; FUNCTION _cJSON_DeleteItemFromObject (BEGIN)
                                           ; SOURCE LINE # 681
;---- Variable 'object' assigned to Register 'R1/R2/R3' ----
0000 C002              PUSH    AR2
0002 C001              PUSH    AR1
0004 900000      R     MOV     DPTR,#string
0007 E0                MOVX    A,@DPTR
0008 F9                MOV     R1,A
0009 A3                INC     DPTR
000A E0                MOVX    A,@DPTR
000B FA                MOV     R2,A
000C A3                INC     DPTR
000D E0                MOVX    A,@DPTR
000E 900000      R     MOV     DPTR,#?_cJSON_DetachItemFromObject?BYTE+03H
0011 C9                XCH     A,R1
0012 F0                MOVX    @DPTR,A
0013 A3                INC     DPTR
0014 EA                MOV     A,R2
0015 F0                MOVX    @DPTR,A
0016 A3                INC     DPTR
0017 E9                MOV     A,R1
0018 F0                MOVX    @DPTR,A
0019 D001              POP     AR1
001B D002              POP     AR2
001D 120000      R     LCALL   _cJSON_DetachItemFromObject
0020 020000      R     LJMP    _cJSON_Delete
             ; FUNCTION _cJSON_DeleteItemFromObject (END)

             ; FUNCTION _cJSON_InsertItemInArray (BEGIN)
                                           ; SOURCE LINE # 684
;---- Variable 'which' assigned to Register 'R4/R5' ----
0000 900000      R     MOV     DPTR,#array
0003 EB                MOV     A,R3
0004 F0                MOVX    @DPTR,A
0005 A3                INC     DPTR
0006 EA                MOV     A,R2
0007 F0                MOVX    @DPTR,A
0008 A3                INC     DPTR
0009 E9                MOV     A,R1
000A F0                MOVX    @DPTR,A
000B 900006            MOV     DPTR,#06H
000E 120000      E     LCALL   ?C?PLDOPTR
0011 900000      R     MOV     DPTR,#c
0014 EB                MOV     A,R3
0015 F0                MOVX    @DPTR,A
0016 A3                INC     DPTR
0017 EA                MOV     A,R2
0018 F0                MOVX    @DPTR,A
0019 A3                INC     DPTR
001A E9                MOV     A,R1
001B F0                MOVX    @DPTR,A
001C         ?C0400:
C51 COMPILER V9.01   CJSON                                                                 06/17/2019 10:07:01 PAGE 209 

001C 900000      R     MOV     DPTR,#c
001F E0                MOVX    A,@DPTR
0020 FB                MOV     R3,A
0021 A3                INC     DPTR
0022 E0                MOVX    A,@DPTR
0023 FA                MOV     R2,A
0024 A3                INC     DPTR
0025 E0                MOVX    A,@DPTR
0026 F9                MOV     R1,A
0027 EA                MOV     A,R2
0028 49                ORL     A,R1
0029 4B                ORL     A,R3
002A 6026              JZ      ?C0401
002C D3                SETB    C
002D ED                MOV     A,R5
002E 9400              SUBB    A,#00H
0030 EC                MOV     A,R4
0031 6480              XRL     A,#080H
0033 9480              SUBB    A,#080H
0035 401B              JC      ?C0401
0037 900000      R     MOV     DPTR,#c
003A A3                INC     DPTR
003B A3                INC     DPTR
003C E0                MOVX    A,@DPTR
003D 120000      E     LCALL   ?C?PLDPTR
0040 900000      R     MOV     DPTR,#c
0043 EB                MOV     A,R3
0044 F0                MOVX    @DPTR,A
0045 A3                INC     DPTR
0046 EA                MOV     A,R2
0047 F0                MOVX    @DPTR,A
0048 A3                INC     DPTR
0049 E9                MOV     A,R1
004A F0                MOVX    @DPTR,A
004B ED                MOV     A,R5
004C 1D                DEC     R5
004D 70CD              JNZ     ?C0400
004F 1C                DEC     R4
0050         ?C0565:
0050 80CA              SJMP    ?C0400
0052         ?C0401:
0052 900000      R     MOV     DPTR,#c
0055 E0                MOVX    A,@DPTR
0056 FB                MOV     R3,A
0057 A3                INC     DPTR
0058 E0                MOVX    A,@DPTR
0059 FA                MOV     R2,A
005A A3                INC     DPTR
005B E0                MOVX    A,@DPTR
005C F9                MOV     R1,A
005D EA                MOV     A,R2
005E 49                ORL     A,R1
005F 4B                ORL     A,R3
0060 7023              JNZ     ?C0402
0062 900000      R     MOV     DPTR,#newitem
0065 E0                MOVX    A,@DPTR
0066 F9                MOV     R1,A
0067 A3                INC     DPTR
0068 E0                MOVX    A,@DPTR
0069 FA                MOV     R2,A
006A A3                INC     DPTR
006B E0                MOVX    A,@DPTR
C51 COMPILER V9.01   CJSON                                                                 06/17/2019 10:07:01 PAGE 210 

006C 900000      R     MOV     DPTR,#?_cJSON_AddItemToArray?BYTE+03H
006F C9                XCH     A,R1
0070 F0                MOVX    @DPTR,A
0071 A3                INC     DPTR
0072 EA                MOV     A,R2
0073 F0                MOVX    @DPTR,A
0074 A3                INC     DPTR
0075 E9                MOV     A,R1
0076 F0                MOVX    @DPTR,A
0077 900000      R     MOV     DPTR,#array
007A E0                MOVX    A,@DPTR
007B FB                MOV     R3,A
007C A3                INC     DPTR
007D E0                MOVX    A,@DPTR
007E FA                MOV     R2,A
007F A3                INC     DPTR
0080 E0                MOVX    A,@DPTR
0081 F9                MOV     R1,A
0082 020000      R     LJMP    _cJSON_AddItemToArray
0085         ?C0402:
                                           ; SOURCE LINE # 685
0085 900000      R     MOV     DPTR,#c
0088 E0                MOVX    A,@DPTR
0089 FB                MOV     R3,A
008A A3                INC     DPTR
008B E0                MOVX    A,@DPTR
008C FA                MOV     R2,A
008D A3                INC     DPTR
008E E0                MOVX    A,@DPTR
008F F9                MOV     R1,A
0090 C003              PUSH    AR3
0092 C002              PUSH    AR2
0094 C001              PUSH    AR1
0096 900000      R     MOV     DPTR,#newitem
0099 E0                MOVX    A,@DPTR
009A FB                MOV     R3,A
009B A3                INC     DPTR
009C E0                MOVX    A,@DPTR
009D FA                MOV     R2,A
009E A3                INC     DPTR
009F E0                MOVX    A,@DPTR
00A0 F9                MOV     R1,A
00A1 120000      E     LCALL   ?C?PSTPTR
00A4 900000      R     MOV     DPTR,#c
00A7 E0                MOVX    A,@DPTR
00A8 FB                MOV     R3,A
00A9 A3                INC     DPTR
00AA E0                MOVX    A,@DPTR
00AB FA                MOV     R2,A
00AC A3                INC     DPTR
00AD E0                MOVX    A,@DPTR
00AE F9                MOV     R1,A
00AF 900003            MOV     DPTR,#03H
00B2 120000      E     LCALL   ?C?PLDOPTR
00B5 C003              PUSH    AR3
00B7 C002              PUSH    AR2
00B9 C001              PUSH    AR1
00BB 900000      R     MOV     DPTR,#newitem
00BE E0                MOVX    A,@DPTR
00BF FB                MOV     R3,A
00C0 A3                INC     DPTR
00C1 E0                MOVX    A,@DPTR
C51 COMPILER V9.01   CJSON                                                                 06/17/2019 10:07:01 PAGE 211 

00C2 FA                MOV     R2,A
00C3 A3                INC     DPTR
00C4 E0                MOVX    A,@DPTR
00C5 F9                MOV     R1,A
00C6 900003            MOV     DPTR,#03H
00C9 120000      E     LCALL   ?C?PSTOPTR
00CC 900000      R     MOV     DPTR,#newitem
00CF E0                MOVX    A,@DPTR
00D0 FB                MOV     R3,A
00D1 A3                INC     DPTR
00D2 E0                MOVX    A,@DPTR
00D3 FA                MOV     R2,A
00D4 A3                INC     DPTR
00D5 E0                MOVX    A,@DPTR
00D6 F9                MOV     R1,A
00D7 C003              PUSH    AR3
00D9 C002              PUSH    AR2
00DB C001              PUSH    AR1
00DD A3                INC     DPTR
00DE E0                MOVX    A,@DPTR
00DF FB                MOV     R3,A
00E0 A3                INC     DPTR
00E1 E0                MOVX    A,@DPTR
00E2 FA                MOV     R2,A
00E3 A3                INC     DPTR
00E4 E0                MOVX    A,@DPTR
00E5 F9                MOV     R1,A
00E6 900003            MOV     DPTR,#03H
00E9 120000      E     LCALL   ?C?PSTOPTR
00EC 900000      R     MOV     DPTR,#array
00EF E0                MOVX    A,@DPTR
00F0 FB                MOV     R3,A
00F1 A3                INC     DPTR
00F2 E0                MOVX    A,@DPTR
00F3 FA                MOV     R2,A
00F4 A3                INC     DPTR
00F5 E0                MOVX    A,@DPTR
00F6 F9                MOV     R1,A
00F7 900006            MOV     DPTR,#06H
00FA 120000      E     LCALL   ?C?PLDOPTR
00FD C003              PUSH    AR3
00FF C002              PUSH    AR2
0101 C001              PUSH    AR1
0103 900000      R     MOV     DPTR,#c
0106 E0                MOVX    A,@DPTR
0107 FB                MOV     R3,A
0108 A3                INC     DPTR
0109 E0                MOVX    A,@DPTR
010A FA                MOV     R2,A
010B A3                INC     DPTR
010C E0                MOVX    A,@DPTR
010D F9                MOV     R1,A
010E D082              POP     DPL
0110 D083              POP     DPH
0112 D0E0              POP     ACC
0114 6B                XRL     A,R3
0115 7008              JNZ     ?C0566
0117 E9                MOV     A,R1
0118 6582              XRL     A,DPL
011A 7003              JNZ     ?C0566
011C EA                MOV     A,R2
011D 6583              XRL     A,DPH
C51 COMPILER V9.01   CJSON                                                                 06/17/2019 10:07:01 PAGE 212 

011F         ?C0566:
011F 900000      R     MOV     DPTR,#newitem
0122 7020              JNZ     ?C0404
0124 E0                MOVX    A,@DPTR
0125 FB                MOV     R3,A
0126 A3                INC     DPTR
0127 E0                MOVX    A,@DPTR
0128 FA                MOV     R2,A
0129 A3                INC     DPTR
012A E0                MOVX    A,@DPTR
012B F9                MOV     R1,A
012C C003              PUSH    AR3
012E C002              PUSH    AR2
0130 C001              PUSH    AR1
0132 900000      R     MOV     DPTR,#array
0135 E0                MOVX    A,@DPTR
0136 FB                MOV     R3,A
0137 A3                INC     DPTR
0138 E0                MOVX    A,@DPTR
0139 FA                MOV     R2,A
013A A3                INC     DPTR
013B E0                MOVX    A,@DPTR
013C F9                MOV     R1,A
013D 900006            MOV     DPTR,#06H
0140 120000      E     LCALL   ?C?PSTOPTR
0143 22                RET     
0144         ?C0404:
0144 E0                MOVX    A,@DPTR
0145 FB                MOV     R3,A
0146 A3                INC     DPTR
0147 E0                MOVX    A,@DPTR
0148 FA                MOV     R2,A
0149 A3                INC     DPTR
014A E0                MOVX    A,@DPTR
014B F9                MOV     R1,A
014C C003              PUSH    AR3
014E C002              PUSH    AR2
0150 C001              PUSH    AR1
0152 900000      R     MOV     DPTR,#newitem
0155 A3                INC     DPTR
0156 A3                INC     DPTR
0157 E0                MOVX    A,@DPTR
0158 900003            MOV     DPTR,#03H
015B 120000      E     LCALL   ?C?PLDOPTR
015E 120000      E     LCALL   ?C?PSTPTR
0161         ?C0403:
0161 22                RET     
             ; FUNCTION _cJSON_InsertItemInArray (END)

             ; FUNCTION _cJSON_ReplaceItemInArray (BEGIN)
                                           ; SOURCE LINE # 686
;---- Variable 'which' assigned to Register 'R4/R5' ----
0000 900000      R     MOV     DPTR,#array
0003 EB                MOV     A,R3
0004 F0                MOVX    @DPTR,A
0005 A3                INC     DPTR
0006 EA                MOV     A,R2
0007 F0                MOVX    @DPTR,A
0008 A3                INC     DPTR
0009 E9                MOV     A,R1
000A F0                MOVX    @DPTR,A
000B 900006            MOV     DPTR,#06H
C51 COMPILER V9.01   CJSON                                                                 06/17/2019 10:07:01 PAGE 213 

000E 120000      E     LCALL   ?C?PLDOPTR
0011 900000      R     MOV     DPTR,#c
0014 EB                MOV     A,R3
0015 F0                MOVX    @DPTR,A
0016 A3                INC     DPTR
0017 EA                MOV     A,R2
0018 F0                MOVX    @DPTR,A
0019 A3                INC     DPTR
001A E9                MOV     A,R1
001B F0                MOVX    @DPTR,A
001C         ?C0406:
001C 900000      R     MOV     DPTR,#c
001F E0                MOVX    A,@DPTR
0020 FB                MOV     R3,A
0021 A3                INC     DPTR
0022 E0                MOVX    A,@DPTR
0023 FA                MOV     R2,A
0024 A3                INC     DPTR
0025 E0                MOVX    A,@DPTR
0026 F9                MOV     R1,A
0027 EA                MOV     A,R2
0028 49                ORL     A,R1
0029 4B                ORL     A,R3
002A 6026              JZ      ?C0407
002C D3                SETB    C
002D ED                MOV     A,R5
002E 9400              SUBB    A,#00H
0030 EC                MOV     A,R4
0031 6480              XRL     A,#080H
0033 9480              SUBB    A,#080H
0035 401B              JC      ?C0407
0037 900000      R     MOV     DPTR,#c
003A A3                INC     DPTR
003B A3                INC     DPTR
003C E0                MOVX    A,@DPTR
003D 120000      E     LCALL   ?C?PLDPTR
0040 900000      R     MOV     DPTR,#c
0043 EB                MOV     A,R3
0044 F0                MOVX    @DPTR,A
0045 A3                INC     DPTR
0046 EA                MOV     A,R2
0047 F0                MOVX    @DPTR,A
0048 A3                INC     DPTR
0049 E9                MOV     A,R1
004A F0                MOVX    @DPTR,A
004B ED                MOV     A,R5
004C 1D                DEC     R5
004D 70CD              JNZ     ?C0406
004F 1C                DEC     R4
0050         ?C0567:
0050 80CA              SJMP    ?C0406
0052         ?C0407:
0052 900000      R     MOV     DPTR,#c
0055 E0                MOVX    A,@DPTR
0056 FB                MOV     R3,A
0057 A3                INC     DPTR
0058 E0                MOVX    A,@DPTR
0059 FA                MOV     R2,A
005A A3                INC     DPTR
005B E0                MOVX    A,@DPTR
005C F9                MOV     R1,A
005D EA                MOV     A,R2
C51 COMPILER V9.01   CJSON                                                                 06/17/2019 10:07:01 PAGE 214 

005E 49                ORL     A,R1
005F 4B                ORL     A,R3
0060 7003              JNZ     $ + 5H
0062 020000      R     LJMP    ?C0409
0065         ?C0408:
                                           ; SOURCE LINE # 687
0065 900000      R     MOV     DPTR,#c
0068 E0                MOVX    A,@DPTR
0069 FB                MOV     R3,A
006A A3                INC     DPTR
006B E0                MOVX    A,@DPTR
006C FA                MOV     R2,A
006D A3                INC     DPTR
006E E0                MOVX    A,@DPTR
006F F9                MOV     R1,A
0070 120000      E     LCALL   ?C?PLDPTR
0073 C003              PUSH    AR3
0075 C002              PUSH    AR2
0077 C001              PUSH    AR1
0079 900000      R     MOV     DPTR,#newitem
007C E0                MOVX    A,@DPTR
007D FB                MOV     R3,A
007E A3                INC     DPTR
007F E0                MOVX    A,@DPTR
0080 FA                MOV     R2,A
0081 A3                INC     DPTR
0082 E0                MOVX    A,@DPTR
0083 F9                MOV     R1,A
0084 120000      E     LCALL   ?C?PSTPTR
0087 900000      R     MOV     DPTR,#c
008A E0                MOVX    A,@DPTR
008B FB                MOV     R3,A
008C A3                INC     DPTR
008D E0                MOVX    A,@DPTR
008E FA                MOV     R2,A
008F A3                INC     DPTR
0090 E0                MOVX    A,@DPTR
0091 F9                MOV     R1,A
0092 900003            MOV     DPTR,#03H
0095 120000      E     LCALL   ?C?PLDOPTR
0098 C003              PUSH    AR3
009A C002              PUSH    AR2
009C C001              PUSH    AR1
009E 900000      R     MOV     DPTR,#newitem
00A1 E0                MOVX    A,@DPTR
00A2 FB                MOV     R3,A
00A3 A3                INC     DPTR
00A4 E0                MOVX    A,@DPTR
00A5 FA                MOV     R2,A
00A6 A3                INC     DPTR
00A7 E0                MOVX    A,@DPTR
00A8 F9                MOV     R1,A
00A9 900003            MOV     DPTR,#03H
00AC 120000      E     LCALL   ?C?PSTOPTR
00AF 900000      R     MOV     DPTR,#newitem
00B2 E0                MOVX    A,@DPTR
00B3 FB                MOV     R3,A
00B4 A3                INC     DPTR
00B5 E0                MOVX    A,@DPTR
00B6 FA                MOV     R2,A
00B7 A3                INC     DPTR
00B8 E0                MOVX    A,@DPTR
C51 COMPILER V9.01   CJSON                                                                 06/17/2019 10:07:01 PAGE 215 

00B9 F9                MOV     R1,A
00BA 120000      E     LCALL   ?C?PLDPTR
00BD EA                MOV     A,R2
00BE 49                ORL     A,R1
00BF 4B                ORL     A,R3
00C0 6020              JZ      ?C0410
00C2 900000      R     MOV     DPTR,#newitem
00C5 E0                MOVX    A,@DPTR
00C6 FB                MOV     R3,A
00C7 A3                INC     DPTR
00C8 E0                MOVX    A,@DPTR
00C9 FA                MOV     R2,A
00CA A3                INC     DPTR
00CB E0                MOVX    A,@DPTR
00CC F9                MOV     R1,A
00CD C003              PUSH    AR3
00CF C002              PUSH    AR2
00D1 C001              PUSH    AR1
00D3 900000      R     MOV     DPTR,#newitem
00D6 A3                INC     DPTR
00D7 A3                INC     DPTR
00D8 E0                MOVX    A,@DPTR
00D9 120000      E     LCALL   ?C?PLDPTR
00DC 900003            MOV     DPTR,#03H
00DF 120000      E     LCALL   ?C?PSTOPTR
00E2         ?C0410:
                                           ; SOURCE LINE # 688
00E2 900000      R     MOV     DPTR,#array
00E5 E0                MOVX    A,@DPTR
00E6 FB                MOV     R3,A
00E7 A3                INC     DPTR
00E8 E0                MOVX    A,@DPTR
00E9 FA                MOV     R2,A
00EA A3                INC     DPTR
00EB E0                MOVX    A,@DPTR
00EC F9                MOV     R1,A
00ED 900006            MOV     DPTR,#06H
00F0 120000      E     LCALL   ?C?PLDOPTR
00F3 C003              PUSH    AR3
00F5 C002              PUSH    AR2
00F7 C001              PUSH    AR1
00F9 900000      R     MOV     DPTR,#c
00FC E0                MOVX    A,@DPTR
00FD FB                MOV     R3,A
00FE A3                INC     DPTR
00FF E0                MOVX    A,@DPTR
0100 FA                MOV     R2,A
0101 A3                INC     DPTR
0102 E0                MOVX    A,@DPTR
0103 F9                MOV     R1,A
0104 D082              POP     DPL
0106 D083              POP     DPH
0108 D0E0              POP     ACC
010A 6B                XRL     A,R3
010B 7008              JNZ     ?C0568
010D E9                MOV     A,R1
010E 6582              XRL     A,DPL
0110 7003              JNZ     ?C0568
0112 EA                MOV     A,R2
0113 6583              XRL     A,DPH
0115         ?C0568:
0115 900000      R     MOV     DPTR,#newitem
C51 COMPILER V9.01   CJSON                                                                 06/17/2019 10:07:01 PAGE 216 

0118 7021              JNZ     ?C0411
011A E0                MOVX    A,@DPTR
011B FB                MOV     R3,A
011C A3                INC     DPTR
011D E0                MOVX    A,@DPTR
011E FA                MOV     R2,A
011F A3                INC     DPTR
0120 E0                MOVX    A,@DPTR
0121 F9                MOV     R1,A
0122 C003              PUSH    AR3
0124 C002              PUSH    AR2
0126 C001              PUSH    AR1
0128 900000      R     MOV     DPTR,#array
012B E0                MOVX    A,@DPTR
012C FB                MOV     R3,A
012D A3                INC     DPTR
012E E0                MOVX    A,@DPTR
012F FA                MOV     R2,A
0130 A3                INC     DPTR
0131 E0                MOVX    A,@DPTR
0132 F9                MOV     R1,A
0133 900006            MOV     DPTR,#06H
0136 120000      E     LCALL   ?C?PSTOPTR
0139 801D              SJMP    ?C0412
013B         ?C0411:
013B E0                MOVX    A,@DPTR
013C FB                MOV     R3,A
013D A3                INC     DPTR
013E E0                MOVX    A,@DPTR
013F FA                MOV     R2,A
0140 A3                INC     DPTR
0141 E0                MOVX    A,@DPTR
0142 F9                MOV     R1,A
0143 C003              PUSH    AR3
0145 C002              PUSH    AR2
0147 C001              PUSH    AR1
0149 900000      R     MOV     DPTR,#newitem
014C A3                INC     DPTR
014D A3                INC     DPTR
014E E0                MOVX    A,@DPTR
014F 900003            MOV     DPTR,#03H
0152 120000      E     LCALL   ?C?PLDOPTR
0155 120000      E     LCALL   ?C?PSTPTR
0158         ?C0412:
0158 7B00              MOV     R3,#00H
015A 7A00              MOV     R2,#00H
015C 7900              MOV     R1,#00H
015E C003              PUSH    AR3
0160 C002              PUSH    AR2
0162 C001              PUSH    AR1
0164 900000      R     MOV     DPTR,#c
0167 E0                MOVX    A,@DPTR
0168 FB                MOV     R3,A
0169 A3                INC     DPTR
016A E0                MOVX    A,@DPTR
016B FA                MOV     R2,A
016C A3                INC     DPTR
016D E0                MOVX    A,@DPTR
016E F9                MOV     R1,A
016F 900003            MOV     DPTR,#03H
0172 120000      E     LCALL   ?C?PSTOPTR
0175 7B00              MOV     R3,#00H
C51 COMPILER V9.01   CJSON                                                                 06/17/2019 10:07:01 PAGE 217 

0177 7A00              MOV     R2,#00H
0179 7900              MOV     R1,#00H
017B C003              PUSH    AR3
017D C002              PUSH    AR2
017F C001              PUSH    AR1
0181 900000      R     MOV     DPTR,#c
0184 E0                MOVX    A,@DPTR
0185 FB                MOV     R3,A
0186 A3                INC     DPTR
0187 E0                MOVX    A,@DPTR
0188 FA                MOV     R2,A
0189 A3                INC     DPTR
018A E0                MOVX    A,@DPTR
018B F9                MOV     R1,A
018C 120000      E     LCALL   ?C?PSTPTR
018F 900000      R     MOV     DPTR,#c
0192 120000      R     LCALL   L?0695
0195         ?C0409:
0195 22                RET     
             ; FUNCTION _cJSON_ReplaceItemInArray (END)

             ; FUNCTION _cJSON_ReplaceItemInObject (BEGIN)
                                           ; SOURCE LINE # 689
0000 900000      R     MOV     DPTR,#object
0003 EB                MOV     A,R3
0004 F0                MOVX    @DPTR,A
0005 A3                INC     DPTR
0006 EA                MOV     A,R2
0007 F0                MOVX    @DPTR,A
0008 A3                INC     DPTR
0009 E9                MOV     A,R1
000A F0                MOVX    @DPTR,A
000B E4                CLR     A
000C 900000      R     MOV     DPTR,#i
000F F0                MOVX    @DPTR,A
0010 A3                INC     DPTR
0011 F0                MOVX    @DPTR,A
0012 900000      R     MOV     DPTR,#object
0015 E0                MOVX    A,@DPTR
0016 FB                MOV     R3,A
0017 A3                INC     DPTR
0018 E0                MOVX    A,@DPTR
0019 FA                MOV     R2,A
001A A3                INC     DPTR
001B E0                MOVX    A,@DPTR
001C F9                MOV     R1,A
001D 900006            MOV     DPTR,#06H
0020 120000      E     LCALL   ?C?PLDOPTR
0023 805C              SJMP    ?C0668
0025         ?C0413:
0025 900000      R     MOV     DPTR,#c
0028 E0                MOVX    A,@DPTR
0029 FB                MOV     R3,A
002A A3                INC     DPTR
002B E0                MOVX    A,@DPTR
002C FA                MOV     R2,A
002D A3                INC     DPTR
002E E0                MOVX    A,@DPTR
002F F9                MOV     R1,A
0030 EA                MOV     A,R2
0031 49                ORL     A,R1
0032 4B                ORL     A,R3
C51 COMPILER V9.01   CJSON                                                                 06/17/2019 10:07:01 PAGE 218 

0033 6059              JZ      ?C0414
0035 900000      R     MOV     DPTR,#c
0038 A3                INC     DPTR
0039 A3                INC     DPTR
003A E0                MOVX    A,@DPTR
003B 900014            MOV     DPTR,#014H
003E 120000      E     LCALL   ?C?PLDOPTR
0041 C002              PUSH    AR2
0043 C001              PUSH    AR1
0045 900000      R     MOV     DPTR,#string
0048 E0                MOVX    A,@DPTR
0049 F9                MOV     R1,A
004A A3                INC     DPTR
004B E0                MOVX    A,@DPTR
004C FA                MOV     R2,A
004D A3                INC     DPTR
004E E0                MOVX    A,@DPTR
004F 900000      R     MOV     DPTR,#?_cJSON_strcasecmp?BYTE+03H
0052 C9                XCH     A,R1
0053 F0                MOVX    @DPTR,A
0054 A3                INC     DPTR
0055 EA                MOV     A,R2
0056 F0                MOVX    @DPTR,A
0057 A3                INC     DPTR
0058 E9                MOV     A,R1
0059 F0                MOVX    @DPTR,A
005A D001              POP     AR1
005C D002              POP     AR2
005E 120000      R     LCALL   _cJSON_strcasecmp
0061 EF                MOV     A,R7
0062 4E                ORL     A,R6
0063 6029              JZ      ?C0414
0065 900000      R     MOV     DPTR,#i+01H
0068 E0                MOVX    A,@DPTR
0069 04                INC     A
006A F0                MOVX    @DPTR,A
006B 7006              JNZ     ?C0569
006D 900000      R     MOV     DPTR,#i
0070 E0                MOVX    A,@DPTR
0071 04                INC     A
0072 F0                MOVX    @DPTR,A
0073         ?C0569:
0073 900000      R     MOV     DPTR,#c
0076 E0                MOVX    A,@DPTR
0077 FB                MOV     R3,A
0078 A3                INC     DPTR
0079 E0                MOVX    A,@DPTR
007A FA                MOV     R2,A
007B A3                INC     DPTR
007C E0                MOVX    A,@DPTR
007D F9                MOV     R1,A
007E 120000      E     LCALL   ?C?PLDPTR
0081         ?C0668:
0081 900000      R     MOV     DPTR,#c
0084 EB                MOV     A,R3
0085 F0                MOVX    @DPTR,A
0086 A3                INC     DPTR
0087 EA                MOV     A,R2
0088 F0                MOVX    @DPTR,A
0089 A3                INC     DPTR
008A E9                MOV     A,R1
008B F0                MOVX    @DPTR,A
C51 COMPILER V9.01   CJSON                                                                 06/17/2019 10:07:01 PAGE 219 

008C 8097              SJMP    ?C0413
008E         ?C0414:
008E 900000      R     MOV     DPTR,#c
0091 E0                MOVX    A,@DPTR
0092 FB                MOV     R3,A
0093 A3                INC     DPTR
0094 E0                MOVX    A,@DPTR
0095 FA                MOV     R2,A
0096 A3                INC     DPTR
0097 E0                MOVX    A,@DPTR
0098 F9                MOV     R1,A
0099 EA                MOV     A,R2
009A 49                ORL     A,R1
009B 4B                ORL     A,R3
009C 6048              JZ      ?C0416
009E 900000      R     MOV     DPTR,#string
00A1 120000      R     LCALL   L?0699
00A4 C003              PUSH    AR3
00A6 C002              PUSH    AR2
00A8 C001              PUSH    AR1
00AA 900000      R     MOV     DPTR,#newitem
00AD E0                MOVX    A,@DPTR
00AE FB                MOV     R3,A
00AF A3                INC     DPTR
00B0 E0                MOVX    A,@DPTR
00B1 FA                MOV     R2,A
00B2 A3                INC     DPTR
00B3 E0                MOVX    A,@DPTR
00B4 F9                MOV     R1,A
00B5 900014            MOV     DPTR,#014H
00B8 120000      E     LCALL   ?C?PSTOPTR
00BB 900000      R     MOV     DPTR,#i
00BE E0                MOVX    A,@DPTR
00BF FC                MOV     R4,A
00C0 A3                INC     DPTR
00C1 E0                MOVX    A,@DPTR
00C2 FD                MOV     R5,A
00C3 900000      R     MOV     DPTR,#newitem
00C6 E0                MOVX    A,@DPTR
00C7 F9                MOV     R1,A
00C8 A3                INC     DPTR
00C9 E0                MOVX    A,@DPTR
00CA FA                MOV     R2,A
00CB A3                INC     DPTR
00CC E0                MOVX    A,@DPTR
00CD 900000      R     MOV     DPTR,#?_cJSON_ReplaceItemInArray?BYTE+05H
00D0 C9                XCH     A,R1
00D1 F0                MOVX    @DPTR,A
00D2 A3                INC     DPTR
00D3 EA                MOV     A,R2
00D4 F0                MOVX    @DPTR,A
00D5 A3                INC     DPTR
00D6 E9                MOV     A,R1
00D7 F0                MOVX    @DPTR,A
00D8 900000      R     MOV     DPTR,#object
00DB E0                MOVX    A,@DPTR
00DC FB                MOV     R3,A
00DD A3                INC     DPTR
00DE E0                MOVX    A,@DPTR
00DF FA                MOV     R2,A
00E0 A3                INC     DPTR
00E1 E0                MOVX    A,@DPTR
C51 COMPILER V9.01   CJSON                                                                 06/17/2019 10:07:01 PAGE 220 

00E2 F9                MOV     R1,A
00E3 120000      R     LCALL   _cJSON_ReplaceItemInArray
00E6         ?C0416:
00E6 22                RET     
             ; FUNCTION _cJSON_ReplaceItemInObject (END)

             ; FUNCTION cJSON_CreateNull (BEGIN)
                                           ; SOURCE LINE # 692
0000 120000      R     LCALL   cJSON_New_Item
;---- Variable 'item' assigned to Register 'R1/R2/R3' ----
0003 EA                MOV     A,R2
0004 49                ORL     A,R1
0005 4B                ORL     A,R3
0006 600A              JZ      ?C0417
0008 900009            MOV     DPTR,#09H
000B E4                CLR     A
000C 75F002            MOV     B,#02H
000F 120000      E     LCALL   ?C?ISTOPTR
0012         ?C0417:
0012         ?C0418:
0012 22                RET     
             ; FUNCTION cJSON_CreateNull (END)

             ; FUNCTION cJSON_CreateTrue (BEGIN)
                                           ; SOURCE LINE # 693
0000 120000      R     LCALL   cJSON_New_Item
;---- Variable 'item' assigned to Register 'R1/R2/R3' ----
0003 EA                MOV     A,R2
0004 49                ORL     A,R1
0005 4B                ORL     A,R3
0006 600A              JZ      ?C0419
0008 900009            MOV     DPTR,#09H
000B E4                CLR     A
000C 75F001            MOV     B,#01H
000F 120000      E     LCALL   ?C?ISTOPTR
0012         ?C0419:
0012         ?C0420:
0012 22                RET     
             ; FUNCTION cJSON_CreateTrue (END)

             ; FUNCTION cJSON_CreateFalse (BEGIN)
                                           ; SOURCE LINE # 694
0000 120000      R     LCALL   cJSON_New_Item
;---- Variable 'item' assigned to Register 'R1/R2/R3' ----
0003 EA                MOV     A,R2
0004 49                ORL     A,R1
0005 4B                ORL     A,R3
0006 6009              JZ      ?C0421
0008 900009            MOV     DPTR,#09H
000B E4                CLR     A
000C F5F0              MOV     B,A
000E 120000      E     LCALL   ?C?ISTOPTR
0011         ?C0421:
0011         ?C0422:
0011 22                RET     
             ; FUNCTION cJSON_CreateFalse (END)

             ; FUNCTION _cJSON_CreateBool (BEGIN)
                                           ; SOURCE LINE # 695
0000 900000      R     MOV     DPTR,#b
0003 EE                MOV     A,R6
0004 F0                MOVX    @DPTR,A
C51 COMPILER V9.01   CJSON                                                                 06/17/2019 10:07:01 PAGE 221 

0005 A3                INC     DPTR
0006 EF                MOV     A,R7
0007 F0                MOVX    @DPTR,A
0008 120000      R     LCALL   cJSON_New_Item
;---- Variable 'item' assigned to Register 'R1/R2/R3' ----
000B EA                MOV     A,R2
000C 49                ORL     A,R1
000D 4B                ORL     A,R3
000E 601B              JZ      ?C0423
0010 900000      R     MOV     DPTR,#b
0013 E0                MOVX    A,@DPTR
0014 7002              JNZ     ?C0570
0016 A3                INC     DPTR
0017 E0                MOVX    A,@DPTR
0018         ?C0570:
0018 7E00              MOV     R6,#00H
001A 6004              JZ      ?C0424
001C 7F01              MOV     R7,#01H
001E 8002              SJMP    ?C0425
0020         ?C0424:
0020 7F00              MOV     R7,#00H
0022         ?C0425:
0022 900009            MOV     DPTR,#09H
0025 EE                MOV     A,R6
0026 8FF0              MOV     B,R7
0028 120000      E     LCALL   ?C?ISTOPTR
002B         ?C0423:
002B         ?C0426:
002B 22                RET     
             ; FUNCTION _cJSON_CreateBool (END)

             ; FUNCTION L?0701 (BEGIN)
0000 FF                MOV     R7,A
0001 E0                MOVX    A,@DPTR
0002 FB                MOV     R3,A
0003 A3                INC     DPTR
0004 E0                MOVX    A,@DPTR
0005 FA                MOV     R2,A
0006 A3                INC     DPTR
0007 E0                MOVX    A,@DPTR
0008 F9                MOV     R1,A
0009 8F82              MOV     DPL,R7
000B 8E83              MOV     DPH,R6
000D 120000      E     LCALL   ?C?LLDOPTR
             ; FUNCTION _cJSON_CreateNumber (BEGIN)
                                           ; SOURCE LINE # 696
0010 900000      R     MOV     DPTR,#num
0013 120000      E     LCALL   ?C?LSTXDATA
0016 120000      R     LCALL   cJSON_New_Item
0019 900000      R     MOV     DPTR,#item
001C EB                MOV     A,R3
001D F0                MOVX    @DPTR,A
001E A3                INC     DPTR
001F EA                MOV     A,R2
0020 F0                MOVX    @DPTR,A
0021 A3                INC     DPTR
0022 E9                MOV     A,R1
0023 F0                MOVX    @DPTR,A
0024 4A                ORL     A,R2
0025 4B                ORL     A,R3
0026 6040              JZ      ?C0427
0028 900000      R     MOV     DPTR,#item
C51 COMPILER V9.01   CJSON                                                                 06/17/2019 10:07:01 PAGE 222 

002B E0                MOVX    A,@DPTR
002C FB                MOV     R3,A
002D A3                INC     DPTR
002E E0                MOVX    A,@DPTR
002F FA                MOV     R2,A
0030 A3                INC     DPTR
0031 E0                MOVX    A,@DPTR
0032 F9                MOV     R1,A
0033 900009            MOV     DPTR,#09H
0036 E4                CLR     A
0037 75F003            MOV     B,#03H
003A 120000      E     LCALL   ?C?ISTOPTR
003D 900000      R     MOV     DPTR,#num
0040 E0                MOVX    A,@DPTR
0041 FC                MOV     R4,A
0042 A3                INC     DPTR
0043 E0                MOVX    A,@DPTR
0044 FD                MOV     R5,A
0045 A3                INC     DPTR
0046 E0                MOVX    A,@DPTR
0047 FE                MOV     R6,A
0048 A3                INC     DPTR
0049 E0                MOVX    A,@DPTR
004A FF                MOV     R7,A
004B 900010            MOV     DPTR,#010H
004E 120000      E     LCALL   ?C?LSTOPTR
0051 120000      E     LCALL   ?C?CASTF
0054 900000      R     MOV     DPTR,#item
0057 E0                MOVX    A,@DPTR
0058 FB                MOV     R3,A
0059 A3                INC     DPTR
005A E0                MOVX    A,@DPTR
005B FA                MOV     R2,A
005C A3                INC     DPTR
005D E0                MOVX    A,@DPTR
005E F9                MOV     R1,A
005F 90000E            MOV     DPTR,#0EH
0062 EE                MOV     A,R6
0063 8FF0              MOV     B,R7
0065 120000      E     LCALL   ?C?ISTOPTR
0068         ?C0427:
0068 900000      R     MOV     DPTR,#item
006B E0                MOVX    A,@DPTR
006C FB                MOV     R3,A
006D A3                INC     DPTR
006E E0                MOVX    A,@DPTR
006F FA                MOV     R2,A
0070 A3                INC     DPTR
0071 E0                MOVX    A,@DPTR
0072 F9                MOV     R1,A
0073         ?C0428:
0073 22                RET     
             ; FUNCTION _cJSON_CreateNumber (END)

             ; FUNCTION _cJSON_CreateString (BEGIN)
                                           ; SOURCE LINE # 697
0000 900000      R     MOV     DPTR,#string
0003 120000      R     LCALL   L?0702
0006 900000      R     MOV     DPTR,#item
0009 EB                MOV     A,R3
000A F0                MOVX    @DPTR,A
000B A3                INC     DPTR
C51 COMPILER V9.01   CJSON                                                                 06/17/2019 10:07:01 PAGE 223 

000C EA                MOV     A,R2
000D F0                MOVX    @DPTR,A
000E A3                INC     DPTR
000F E9                MOV     A,R1
0010 F0                MOVX    @DPTR,A
0011 4A                ORL     A,R2
0012 4B                ORL     A,R3
0013 6032              JZ      ?C0429
0015 900000      R     MOV     DPTR,#item
0018 E0                MOVX    A,@DPTR
0019 FB                MOV     R3,A
001A A3                INC     DPTR
001B E0                MOVX    A,@DPTR
001C FA                MOV     R2,A
001D A3                INC     DPTR
001E E0                MOVX    A,@DPTR
001F F9                MOV     R1,A
0020 900009            MOV     DPTR,#09H
0023 E4                CLR     A
0024 75F004            MOV     B,#04H
0027 120000      E     LCALL   ?C?ISTOPTR
002A 900000      R     MOV     DPTR,#string
002D 120000      R     LCALL   L?0700
0030 C003              PUSH    AR3
0032 C002              PUSH    AR2
0034 C001              PUSH    AR1
0036 900000      R     MOV     DPTR,#item
0039 E0                MOVX    A,@DPTR
003A FB                MOV     R3,A
003B A3                INC     DPTR
003C E0                MOVX    A,@DPTR
003D FA                MOV     R2,A
003E A3                INC     DPTR
003F E0                MOVX    A,@DPTR
0040 F9                MOV     R1,A
0041 90000B            MOV     DPTR,#0BH
0044 120000      E     LCALL   ?C?PSTOPTR
0047         ?C0429:
0047 900000      R     MOV     DPTR,#item
004A E0                MOVX    A,@DPTR
004B FB                MOV     R3,A
004C A3                INC     DPTR
004D E0                MOVX    A,@DPTR
004E FA                MOV     R2,A
004F A3                INC     DPTR
0050 E0                MOVX    A,@DPTR
0051 F9                MOV     R1,A
0052         ?C0430:
0052 22                RET     
             ; FUNCTION _cJSON_CreateString (END)

             ; FUNCTION L?0686 (BEGIN)
0000         L?0687:
0000 E4                CLR     A
0001 F0                MOVX    @DPTR,A
0002 A3                INC     DPTR
0003 F0                MOVX    @DPTR,A
0004 A3                INC     DPTR
0005 F0                MOVX    @DPTR,A
0006 F9                MOV     R1,A
0007 A3                INC     DPTR
0008 C9                XCH     A,R1
C51 COMPILER V9.01   CJSON                                                                 06/17/2019 10:07:01 PAGE 224 

0009 F0                MOVX    @DPTR,A
000A A3                INC     DPTR
000B F0                MOVX    @DPTR,A
000C A3                INC     DPTR
000D E9                MOV     A,R1
000E F0                MOVX    @DPTR,A
             ; FUNCTION cJSON_CreateArray (BEGIN)
                                           ; SOURCE LINE # 698
000F 120000      R     LCALL   cJSON_New_Item
;---- Variable 'item' assigned to Register 'R1/R2/R3' ----
0012 EA                MOV     A,R2
0013 49                ORL     A,R1
0014 4B                ORL     A,R3
0015 600A              JZ      ?C0431
0017 900009            MOV     DPTR,#09H
001A E4                CLR     A
001B 75F005            MOV     B,#05H
001E 120000      E     LCALL   ?C?ISTOPTR
0021         ?C0431:
0021         ?C0432:
0021 22                RET     
             ; FUNCTION cJSON_CreateArray (END)

             ; FUNCTION cJSON_CreateObject (BEGIN)
                                           ; SOURCE LINE # 699
0000 120000      R     LCALL   cJSON_New_Item
;---- Variable 'item' assigned to Register 'R1/R2/R3' ----
0003 EA                MOV     A,R2
0004 49                ORL     A,R1
0005 4B                ORL     A,R3
0006 600A              JZ      ?C0433
0008 900009            MOV     DPTR,#09H
000B E4                CLR     A
000C 75F006            MOV     B,#06H
000F 120000      E     LCALL   ?C?ISTOPTR
0012         ?C0433:
0012         ?C0434:
0012 22                RET     
             ; FUNCTION cJSON_CreateObject (END)

             ; FUNCTION _cJSON_CreateIntArray (BEGIN)
                                           ; SOURCE LINE # 702
0000 900000      R     MOV     DPTR,#numbers
0003 EB                MOV     A,R3
0004 F0                MOVX    @DPTR,A
0005 A3                INC     DPTR
0006 EA                MOV     A,R2
0007 F0                MOVX    @DPTR,A
0008 A3                INC     DPTR
0009 E9                MOV     A,R1
000A F0                MOVX    @DPTR,A
000B A3                INC     DPTR
000C EC                MOV     A,R4
000D F0                MOVX    @DPTR,A
000E A3                INC     DPTR
000F ED                MOV     A,R5
0010 F0                MOVX    @DPTR,A
0011 900000      R     MOV     DPTR,#n
0014 120000      R     LCALL   L?0686
0017 900000      R     MOV     DPTR,#a
001A EB                MOV     A,R3
001B F0                MOVX    @DPTR,A
C51 COMPILER V9.01   CJSON                                                                 06/17/2019 10:07:01 PAGE 225 

001C A3                INC     DPTR
001D EA                MOV     A,R2
001E F0                MOVX    @DPTR,A
001F A3                INC     DPTR
0020 E9                MOV     A,R1
0021 F0                MOVX    @DPTR,A
0022 E4                CLR     A
0023 900000      R     MOV     DPTR,#i
0026 F0                MOVX    @DPTR,A
0027 A3                INC     DPTR
0028 F0                MOVX    @DPTR,A
0029         ?C0435:
0029 900000      R     MOV     DPTR,#a
002C E0                MOVX    A,@DPTR
002D FB                MOV     R3,A
002E A3                INC     DPTR
002F E0                MOVX    A,@DPTR
0030 FA                MOV     R2,A
0031 A3                INC     DPTR
0032 E0                MOVX    A,@DPTR
0033 F9                MOV     R1,A
0034 EA                MOV     A,R2
0035 49                ORL     A,R1
0036 4B                ORL     A,R3
0037 7003              JNZ     $ + 5H
0039 020000      R     LJMP    ?C0436
003C 900000      R     MOV     DPTR,#count
003F E0                MOVX    A,@DPTR
0040 FE                MOV     R6,A
0041 A3                INC     DPTR
0042 E0                MOVX    A,@DPTR
0043 FF                MOV     R7,A
0044 A3                INC     DPTR
0045 E0                MOVX    A,@DPTR
0046 FC                MOV     R4,A
0047 A3                INC     DPTR
0048 E0                MOVX    A,@DPTR
0049 FD                MOV     R5,A
004A C3                CLR     C
004B 9F                SUBB    A,R7
004C EE                MOV     A,R6
004D 6480              XRL     A,#080H
004F F8                MOV     R0,A
0050 EC                MOV     A,R4
0051 6480              XRL     A,#080H
0053 98                SUBB    A,R0
0054 4003              JC      $ + 5H
0056 020000      R     LJMP    ?C0436
0059 ED                MOV     A,R5
005A 25E0              ADD     A,ACC
005C FF                MOV     R7,A
005D EC                MOV     A,R4
005E 33                RLC     A
005F FE                MOV     R6,A
0060 900000      R     MOV     DPTR,#numbers
0063 E0                MOVX    A,@DPTR
0064 FB                MOV     R3,A
0065 A3                INC     DPTR
0066 E0                MOVX    A,@DPTR
0067 FA                MOV     R2,A
0068 A3                INC     DPTR
0069 E0                MOVX    A,@DPTR
C51 COMPILER V9.01   CJSON                                                                 06/17/2019 10:07:01 PAGE 226 

006A F9                MOV     R1,A
006B 8F82              MOV     DPL,R7
006D 8E83              MOV     DPH,R6
006F 120000      E     LCALL   ?C?ILDOPTR
0072 FD                MOV     R5,A
0073 ACF0              MOV     R4,B
0075 EC                MOV     A,R4
0076 120000      E     LCALL   ?C?FCASTI
0079 120000      R     LCALL   _cJSON_CreateNumber
007C 900000      R     MOV     DPTR,#n
007F EB                MOV     A,R3
0080 F0                MOVX    @DPTR,A
0081 A3                INC     DPTR
0082 EA                MOV     A,R2
0083 F0                MOVX    @DPTR,A
0084 A3                INC     DPTR
0085 E9                MOV     A,R1
0086 F0                MOVX    @DPTR,A
0087 900000      R     MOV     DPTR,#i
008A E0                MOVX    A,@DPTR
008B 7002              JNZ     ?C0571
008D A3                INC     DPTR
008E E0                MOVX    A,@DPTR
008F         ?C0571:
008F 900000      R     MOV     DPTR,#n
0092 7021              JNZ     ?C0438
0094 E0                MOVX    A,@DPTR
0095 FB                MOV     R3,A
0096 A3                INC     DPTR
0097 E0                MOVX    A,@DPTR
0098 FA                MOV     R2,A
0099 A3                INC     DPTR
009A E0                MOVX    A,@DPTR
009B F9                MOV     R1,A
009C C003              PUSH    AR3
009E C002              PUSH    AR2
00A0 C001              PUSH    AR1
00A2 900000      R     MOV     DPTR,#a
00A5 E0                MOVX    A,@DPTR
00A6 FB                MOV     R3,A
00A7 A3                INC     DPTR
00A8 E0                MOVX    A,@DPTR
00A9 FA                MOV     R2,A
00AA A3                INC     DPTR
00AB E0                MOVX    A,@DPTR
00AC F9                MOV     R1,A
00AD 900006            MOV     DPTR,#06H
00B0 120000      E     LCALL   ?C?PSTOPTR
00B3 8018              SJMP    ?C0439
00B5         ?C0438:
00B5 E0                MOVX    A,@DPTR
00B6 F9                MOV     R1,A
00B7 A3                INC     DPTR
00B8 E0                MOVX    A,@DPTR
00B9 FA                MOV     R2,A
00BA A3                INC     DPTR
00BB E0                MOVX    A,@DPTR
00BC 900000      R     MOV     DPTR,#?_suffix_object?BYTE+03H
00BF C9                XCH     A,R1
00C0 F0                MOVX    @DPTR,A
00C1 A3                INC     DPTR
00C2 EA                MOV     A,R2
C51 COMPILER V9.01   CJSON                                                                 06/17/2019 10:07:01 PAGE 227 

00C3 F0                MOVX    @DPTR,A
00C4 A3                INC     DPTR
00C5 E9                MOV     A,R1
00C6 F0                MOVX    @DPTR,A
00C7 900000      R     MOV     DPTR,#p
00CA 120000      R     LCALL   L?0690
00CD         ?C0439:
00CD 900000      R     MOV     DPTR,#n
00D0 E0                MOVX    A,@DPTR
00D1 F9                MOV     R1,A
00D2 A3                INC     DPTR
00D3 E0                MOVX    A,@DPTR
00D4 FA                MOV     R2,A
00D5 A3                INC     DPTR
00D6 E0                MOVX    A,@DPTR
00D7 A3                INC     DPTR
00D8 C9                XCH     A,R1
00D9 F0                MOVX    @DPTR,A
00DA A3                INC     DPTR
00DB EA                MOV     A,R2
00DC F0                MOVX    @DPTR,A
00DD A3                INC     DPTR
00DE E9                MOV     A,R1
00DF F0                MOVX    @DPTR,A
00E0 900000      R     MOV     DPTR,#i+01H
00E3 E0                MOVX    A,@DPTR
00E4 04                INC     A
00E5 F0                MOVX    @DPTR,A
00E6 7006              JNZ     ?C0572
00E8 900000      R     MOV     DPTR,#i
00EB E0                MOVX    A,@DPTR
00EC 04                INC     A
00ED F0                MOVX    @DPTR,A
00EE         ?C0572:
00EE 020000      R     LJMP    ?C0435
00F1         ?C0436:
00F1 900000      R     MOV     DPTR,#a
00F4 E0                MOVX    A,@DPTR
00F5 FB                MOV     R3,A
00F6 A3                INC     DPTR
00F7 E0                MOVX    A,@DPTR
00F8 FA                MOV     R2,A
00F9 A3                INC     DPTR
00FA E0                MOVX    A,@DPTR
00FB F9                MOV     R1,A
00FC         ?C0440:
00FC 22                RET     
             ; FUNCTION _cJSON_CreateIntArray (END)

             ; FUNCTION _cJSON_CreateFloatArray (BEGIN)
                                           ; SOURCE LINE # 703
0000 900000      R     MOV     DPTR,#numbers
0003 EB                MOV     A,R3
0004 F0                MOVX    @DPTR,A
0005 A3                INC     DPTR
0006 EA                MOV     A,R2
0007 F0                MOVX    @DPTR,A
0008 A3                INC     DPTR
0009 E9                MOV     A,R1
000A F0                MOVX    @DPTR,A
000B A3                INC     DPTR
000C EC                MOV     A,R4
C51 COMPILER V9.01   CJSON                                                                 06/17/2019 10:07:01 PAGE 228 

000D F0                MOVX    @DPTR,A
000E A3                INC     DPTR
000F ED                MOV     A,R5
0010 F0                MOVX    @DPTR,A
0011 900000      R     MOV     DPTR,#n
0014 120000      R     LCALL   L?0686
0017 900000      R     MOV     DPTR,#a
001A EB                MOV     A,R3
001B F0                MOVX    @DPTR,A
001C A3                INC     DPTR
001D EA                MOV     A,R2
001E F0                MOVX    @DPTR,A
001F A3                INC     DPTR
0020 E9                MOV     A,R1
0021 F0                MOVX    @DPTR,A
0022 E4                CLR     A
0023 900000      R     MOV     DPTR,#i
0026 F0                MOVX    @DPTR,A
0027 A3                INC     DPTR
0028 F0                MOVX    @DPTR,A
0029         ?C0441:
0029 900000      R     MOV     DPTR,#a
002C E0                MOVX    A,@DPTR
002D FB                MOV     R3,A
002E A3                INC     DPTR
002F E0                MOVX    A,@DPTR
0030 FA                MOV     R2,A
0031 A3                INC     DPTR
0032 E0                MOVX    A,@DPTR
0033 F9                MOV     R1,A
0034 EA                MOV     A,R2
0035 49                ORL     A,R1
0036 4B                ORL     A,R3
0037 7003              JNZ     $ + 5H
0039 020000      R     LJMP    ?C0442
003C 900000      R     MOV     DPTR,#count
003F E0                MOVX    A,@DPTR
0040 FE                MOV     R6,A
0041 A3                INC     DPTR
0042 E0                MOVX    A,@DPTR
0043 FF                MOV     R7,A
0044 A3                INC     DPTR
0045 E0                MOVX    A,@DPTR
0046 FC                MOV     R4,A
0047 A3                INC     DPTR
0048 E0                MOVX    A,@DPTR
0049 FD                MOV     R5,A
004A C3                CLR     C
004B 9F                SUBB    A,R7
004C EE                MOV     A,R6
004D 6480              XRL     A,#080H
004F F8                MOV     R0,A
0050 EC                MOV     A,R4
0051 6480              XRL     A,#080H
0053 98                SUBB    A,R0
0054 4003              JC      $ + 5H
0056 020000      R     LJMP    ?C0442
0059 ED                MOV     A,R5
005A AE04              MOV     R6,AR4
005C 7802              MOV     R0,#02H
005E         ?C0573:
005E C3                CLR     C
C51 COMPILER V9.01   CJSON                                                                 06/17/2019 10:07:01 PAGE 229 

005F 33                RLC     A
0060 CE                XCH     A,R6
0061 33                RLC     A
0062 CE                XCH     A,R6
0063 D8F9              DJNZ    R0,?C0573
0065 900000      R     MOV     DPTR,#numbers
0068 120000      R     LCALL   L?0701
006B 900000      R     MOV     DPTR,#n
006E EB                MOV     A,R3
006F F0                MOVX    @DPTR,A
0070 A3                INC     DPTR
0071 EA                MOV     A,R2
0072 F0                MOVX    @DPTR,A
0073 A3                INC     DPTR
0074 E9                MOV     A,R1
0075 F0                MOVX    @DPTR,A
0076 900000      R     MOV     DPTR,#i
0079 E0                MOVX    A,@DPTR
007A 7002              JNZ     ?C0574
007C A3                INC     DPTR
007D E0                MOVX    A,@DPTR
007E         ?C0574:
007E 900000      R     MOV     DPTR,#n
0081 7021              JNZ     ?C0444
0083 E0                MOVX    A,@DPTR
0084 FB                MOV     R3,A
0085 A3                INC     DPTR
0086 E0                MOVX    A,@DPTR
0087 FA                MOV     R2,A
0088 A3                INC     DPTR
0089 E0                MOVX    A,@DPTR
008A F9                MOV     R1,A
008B C003              PUSH    AR3
008D C002              PUSH    AR2
008F C001              PUSH    AR1
0091 900000      R     MOV     DPTR,#a
0094 E0                MOVX    A,@DPTR
0095 FB                MOV     R3,A
0096 A3                INC     DPTR
0097 E0                MOVX    A,@DPTR
0098 FA                MOV     R2,A
0099 A3                INC     DPTR
009A E0                MOVX    A,@DPTR
009B F9                MOV     R1,A
009C 900006            MOV     DPTR,#06H
009F 120000      E     LCALL   ?C?PSTOPTR
00A2 8018              SJMP    ?C0445
00A4         ?C0444:
00A4 E0                MOVX    A,@DPTR
00A5 F9                MOV     R1,A
00A6 A3                INC     DPTR
00A7 E0                MOVX    A,@DPTR
00A8 FA                MOV     R2,A
00A9 A3                INC     DPTR
00AA E0                MOVX    A,@DPTR
00AB 900000      R     MOV     DPTR,#?_suffix_object?BYTE+03H
00AE C9                XCH     A,R1
00AF F0                MOVX    @DPTR,A
00B0 A3                INC     DPTR
00B1 EA                MOV     A,R2
00B2 F0                MOVX    @DPTR,A
00B3 A3                INC     DPTR
C51 COMPILER V9.01   CJSON                                                                 06/17/2019 10:07:01 PAGE 230 

00B4 E9                MOV     A,R1
00B5 F0                MOVX    @DPTR,A
00B6 900000      R     MOV     DPTR,#p
00B9 120000      R     LCALL   L?0691
00BC         ?C0445:
00BC 900000      R     MOV     DPTR,#n
00BF E0                MOVX    A,@DPTR
00C0 F9                MOV     R1,A
00C1 A3                INC     DPTR
00C2 E0                MOVX    A,@DPTR
00C3 FA                MOV     R2,A
00C4 A3                INC     DPTR
00C5 E0                MOVX    A,@DPTR
00C6 A3                INC     DPTR
00C7 C9                XCH     A,R1
00C8 F0                MOVX    @DPTR,A
00C9 A3                INC     DPTR
00CA EA                MOV     A,R2
00CB F0                MOVX    @DPTR,A
00CC A3                INC     DPTR
00CD E9                MOV     A,R1
00CE F0                MOVX    @DPTR,A
00CF 900000      R     MOV     DPTR,#i+01H
00D2 E0                MOVX    A,@DPTR
00D3 04                INC     A
00D4 F0                MOVX    @DPTR,A
00D5 7006              JNZ     ?C0575
00D7 900000      R     MOV     DPTR,#i
00DA E0                MOVX    A,@DPTR
00DB 04                INC     A
00DC F0                MOVX    @DPTR,A
00DD         ?C0575:
00DD 020000      R     LJMP    ?C0441
00E0         ?C0442:
00E0 900000      R     MOV     DPTR,#a
00E3 E0                MOVX    A,@DPTR
00E4 FB                MOV     R3,A
00E5 A3                INC     DPTR
00E6 E0                MOVX    A,@DPTR
00E7 FA                MOV     R2,A
00E8 A3                INC     DPTR
00E9 E0                MOVX    A,@DPTR
00EA F9                MOV     R1,A
00EB         ?C0446:
00EB 22                RET     
             ; FUNCTION _cJSON_CreateFloatArray (END)

             ; FUNCTION _cJSON_CreateDoubleArray (BEGIN)
                                           ; SOURCE LINE # 704
0000 900000      R     MOV     DPTR,#numbers
0003 EB                MOV     A,R3
0004 F0                MOVX    @DPTR,A
0005 A3                INC     DPTR
0006 EA                MOV     A,R2
0007 F0                MOVX    @DPTR,A
0008 A3                INC     DPTR
0009 E9                MOV     A,R1
000A F0                MOVX    @DPTR,A
000B A3                INC     DPTR
000C EC                MOV     A,R4
000D F0                MOVX    @DPTR,A
000E A3                INC     DPTR
C51 COMPILER V9.01   CJSON                                                                 06/17/2019 10:07:01 PAGE 231 

000F ED                MOV     A,R5
0010 F0                MOVX    @DPTR,A
0011 900000      R     MOV     DPTR,#n
0014 120000      R     LCALL   L?0687
0017 900000      R     MOV     DPTR,#a
001A EB                MOV     A,R3
001B F0                MOVX    @DPTR,A
001C A3                INC     DPTR
001D EA                MOV     A,R2
001E F0                MOVX    @DPTR,A
001F A3                INC     DPTR
0020 E9                MOV     A,R1
0021 F0                MOVX    @DPTR,A
0022 E4                CLR     A
0023 900000      R     MOV     DPTR,#i
0026 F0                MOVX    @DPTR,A
0027 A3                INC     DPTR
0028 F0                MOVX    @DPTR,A
0029         ?C0447:
0029 900000      R     MOV     DPTR,#a
002C E0                MOVX    A,@DPTR
002D FB                MOV     R3,A
002E A3                INC     DPTR
002F E0                MOVX    A,@DPTR
0030 FA                MOV     R2,A
0031 A3                INC     DPTR
0032 E0                MOVX    A,@DPTR
0033 F9                MOV     R1,A
0034 EA                MOV     A,R2
0035 49                ORL     A,R1
0036 4B                ORL     A,R3
0037 7003              JNZ     $ + 5H
0039 020000      R     LJMP    ?C0448
003C 900000      R     MOV     DPTR,#count
003F E0                MOVX    A,@DPTR
0040 FE                MOV     R6,A
0041 A3                INC     DPTR
0042 E0                MOVX    A,@DPTR
0043 FF                MOV     R7,A
0044 A3                INC     DPTR
0045 E0                MOVX    A,@DPTR
0046 FC                MOV     R4,A
0047 A3                INC     DPTR
0048 E0                MOVX    A,@DPTR
0049 FD                MOV     R5,A
004A C3                CLR     C
004B 9F                SUBB    A,R7
004C EE                MOV     A,R6
004D 6480              XRL     A,#080H
004F F8                MOV     R0,A
0050 EC                MOV     A,R4
0051 6480              XRL     A,#080H
0053 98                SUBB    A,R0
0054 4003              JC      $ + 5H
0056 020000      R     LJMP    ?C0448
0059 ED                MOV     A,R5
005A AE04              MOV     R6,AR4
005C 7802              MOV     R0,#02H
005E         ?C0576:
005E C3                CLR     C
005F 33                RLC     A
0060 CE                XCH     A,R6
C51 COMPILER V9.01   CJSON                                                                 06/17/2019 10:07:01 PAGE 232 

0061 33                RLC     A
0062 CE                XCH     A,R6
0063 D8F9              DJNZ    R0,?C0576
0065 900000      R     MOV     DPTR,#numbers
0068 120000      R     LCALL   L?0701
006B 900000      R     MOV     DPTR,#n
006E EB                MOV     A,R3
006F F0                MOVX    @DPTR,A
0070 A3                INC     DPTR
0071 EA                MOV     A,R2
0072 F0                MOVX    @DPTR,A
0073 A3                INC     DPTR
0074 E9                MOV     A,R1
0075 F0                MOVX    @DPTR,A
0076 900000      R     MOV     DPTR,#i
0079 E0                MOVX    A,@DPTR
007A 7002              JNZ     ?C0577
007C A3                INC     DPTR
007D E0                MOVX    A,@DPTR
007E         ?C0577:
007E 900000      R     MOV     DPTR,#n
0081 7021              JNZ     ?C0450
0083 E0                MOVX    A,@DPTR
0084 FB                MOV     R3,A
0085 A3                INC     DPTR
0086 E0                MOVX    A,@DPTR
0087 FA                MOV     R2,A
0088 A3                INC     DPTR
0089 E0                MOVX    A,@DPTR
008A F9                MOV     R1,A
008B C003              PUSH    AR3
008D C002              PUSH    AR2
008F C001              PUSH    AR1
0091 900000      R     MOV     DPTR,#a
0094 E0                MOVX    A,@DPTR
0095 FB                MOV     R3,A
0096 A3                INC     DPTR
0097 E0                MOVX    A,@DPTR
0098 FA                MOV     R2,A
0099 A3                INC     DPTR
009A E0                MOVX    A,@DPTR
009B F9                MOV     R1,A
009C 900006            MOV     DPTR,#06H
009F 120000      E     LCALL   ?C?PSTOPTR
00A2 8018              SJMP    ?C0451
00A4         ?C0450:
00A4 E0                MOVX    A,@DPTR
00A5 F9                MOV     R1,A
00A6 A3                INC     DPTR
00A7 E0                MOVX    A,@DPTR
00A8 FA                MOV     R2,A
00A9 A3                INC     DPTR
00AA E0                MOVX    A,@DPTR
00AB 900000      R     MOV     DPTR,#?_suffix_object?BYTE+03H
00AE C9                XCH     A,R1
00AF F0                MOVX    @DPTR,A
00B0 A3                INC     DPTR
00B1 EA                MOV     A,R2
00B2 F0                MOVX    @DPTR,A
00B3 A3                INC     DPTR
00B4 E9                MOV     A,R1
00B5 F0                MOVX    @DPTR,A
C51 COMPILER V9.01   CJSON                                                                 06/17/2019 10:07:01 PAGE 233 

00B6 900000      R     MOV     DPTR,#p
00B9 120000      R     LCALL   L?0691
00BC         ?C0451:
00BC 900000      R     MOV     DPTR,#n
00BF E0                MOVX    A,@DPTR
00C0 F9                MOV     R1,A
00C1 A3                INC     DPTR
00C2 E0                MOVX    A,@DPTR
00C3 FA                MOV     R2,A
00C4 A3                INC     DPTR
00C5 E0                MOVX    A,@DPTR
00C6 A3                INC     DPTR
00C7 C9                XCH     A,R1
00C8 F0                MOVX    @DPTR,A
00C9 A3                INC     DPTR
00CA EA                MOV     A,R2
00CB F0                MOVX    @DPTR,A
00CC A3                INC     DPTR
00CD E9                MOV     A,R1
00CE F0                MOVX    @DPTR,A
00CF 900000      R     MOV     DPTR,#i+01H
00D2 E0                MOVX    A,@DPTR
00D3 04                INC     A
00D4 F0                MOVX    @DPTR,A
00D5 7006              JNZ     ?C0578
00D7 900000      R     MOV     DPTR,#i
00DA E0                MOVX    A,@DPTR
00DB 04                INC     A
00DC F0                MOVX    @DPTR,A
00DD         ?C0578:
00DD 020000      R     LJMP    ?C0447
00E0         ?C0448:
00E0 900000      R     MOV     DPTR,#a
00E3 E0                MOVX    A,@DPTR
00E4 FB                MOV     R3,A
00E5 A3                INC     DPTR
00E6 E0                MOVX    A,@DPTR
00E7 FA                MOV     R2,A
00E8 A3                INC     DPTR
00E9 E0                MOVX    A,@DPTR
00EA F9                MOV     R1,A
00EB         ?C0452:
00EB 22                RET     
             ; FUNCTION _cJSON_CreateDoubleArray (END)

             ; FUNCTION _cJSON_CreateStringArray (BEGIN)
                                           ; SOURCE LINE # 705
0000 900000      R     MOV     DPTR,#strings
0003 EB                MOV     A,R3
0004 F0                MOVX    @DPTR,A
0005 A3                INC     DPTR
0006 EA                MOV     A,R2
0007 F0                MOVX    @DPTR,A
0008 A3                INC     DPTR
0009 E9                MOV     A,R1
000A F0                MOVX    @DPTR,A
000B A3                INC     DPTR
000C EC                MOV     A,R4
000D F0                MOVX    @DPTR,A
000E A3                INC     DPTR
000F ED                MOV     A,R5
0010 F0                MOVX    @DPTR,A
C51 COMPILER V9.01   CJSON                                                                 06/17/2019 10:07:01 PAGE 234 

0011 900000      R     MOV     DPTR,#n
0014 120000      R     LCALL   L?0687
0017 900000      R     MOV     DPTR,#a
001A EB                MOV     A,R3
001B F0                MOVX    @DPTR,A
001C A3                INC     DPTR
001D EA                MOV     A,R2
001E F0                MOVX    @DPTR,A
001F A3                INC     DPTR
0020 E9                MOV     A,R1
0021 F0                MOVX    @DPTR,A
0022 E4                CLR     A
0023 900000      R     MOV     DPTR,#i
0026 F0                MOVX    @DPTR,A
0027 A3                INC     DPTR
0028 F0                MOVX    @DPTR,A
0029         ?C0453:
0029 900000      R     MOV     DPTR,#a
002C E0                MOVX    A,@DPTR
002D FB                MOV     R3,A
002E A3                INC     DPTR
002F E0                MOVX    A,@DPTR
0030 FA                MOV     R2,A
0031 A3                INC     DPTR
0032 E0                MOVX    A,@DPTR
0033 F9                MOV     R1,A
0034 EA                MOV     A,R2
0035 49                ORL     A,R1
0036 4B                ORL     A,R3
0037 7003              JNZ     $ + 5H
0039 020000      R     LJMP    ?C0454
003C 900000      R     MOV     DPTR,#count
003F E0                MOVX    A,@DPTR
0040 FE                MOV     R6,A
0041 A3                INC     DPTR
0042 E0                MOVX    A,@DPTR
0043 FF                MOV     R7,A
0044 A3                INC     DPTR
0045 E0                MOVX    A,@DPTR
0046 FC                MOV     R4,A
0047 A3                INC     DPTR
0048 E0                MOVX    A,@DPTR
0049 FD                MOV     R5,A
004A C3                CLR     C
004B 9F                SUBB    A,R7
004C EE                MOV     A,R6
004D 6480              XRL     A,#080H
004F F8                MOV     R0,A
0050 EC                MOV     A,R4
0051 6480              XRL     A,#080H
0053 98                SUBB    A,R0
0054 4003              JC      $ + 5H
0056 020000      R     LJMP    ?C0454
0059 900000      R     MOV     DPTR,#strings
005C E0                MOVX    A,@DPTR
005D FB                MOV     R3,A
005E A3                INC     DPTR
005F E0                MOVX    A,@DPTR
0060 FA                MOV     R2,A
0061 A3                INC     DPTR
0062 E0                MOVX    A,@DPTR
0063 F9                MOV     R1,A
C51 COMPILER V9.01   CJSON                                                                 06/17/2019 10:07:01 PAGE 235 

0064 8D82              MOV     DPL,R5
0066 8C83              MOV     DPH,R4
0068 7403              MOV     A,#03H
006A 120000      E     LCALL   ?C?OFFX256
006D 120000      E     LCALL   ?C?PLDOPTR
0070 120000      R     LCALL   _cJSON_CreateString
0073 900000      R     MOV     DPTR,#n
0076 EB                MOV     A,R3
0077 F0                MOVX    @DPTR,A
0078 A3                INC     DPTR
0079 EA                MOV     A,R2
007A F0                MOVX    @DPTR,A
007B A3                INC     DPTR
007C E9                MOV     A,R1
007D F0                MOVX    @DPTR,A
007E 900000      R     MOV     DPTR,#i
0081 E0                MOVX    A,@DPTR
0082 7002              JNZ     ?C0579
0084 A3                INC     DPTR
0085 E0                MOVX    A,@DPTR
0086         ?C0579:
0086 900000      R     MOV     DPTR,#n
0089 7021              JNZ     ?C0456
008B E0                MOVX    A,@DPTR
008C FB                MOV     R3,A
008D A3                INC     DPTR
008E E0                MOVX    A,@DPTR
008F FA                MOV     R2,A
0090 A3                INC     DPTR
0091 E0                MOVX    A,@DPTR
0092 F9                MOV     R1,A
0093 C003              PUSH    AR3
0095 C002              PUSH    AR2
0097 C001              PUSH    AR1
0099 900000      R     MOV     DPTR,#a
009C E0                MOVX    A,@DPTR
009D FB                MOV     R3,A
009E A3                INC     DPTR
009F E0                MOVX    A,@DPTR
00A0 FA                MOV     R2,A
00A1 A3                INC     DPTR
00A2 E0                MOVX    A,@DPTR
00A3 F9                MOV     R1,A
00A4 900006            MOV     DPTR,#06H
00A7 120000      E     LCALL   ?C?PSTOPTR
00AA 8018              SJMP    ?C0457
00AC         ?C0456:
00AC E0                MOVX    A,@DPTR
00AD F9                MOV     R1,A
00AE A3                INC     DPTR
00AF E0                MOVX    A,@DPTR
00B0 FA                MOV     R2,A
00B1 A3                INC     DPTR
00B2 E0                MOVX    A,@DPTR
00B3 900000      R     MOV     DPTR,#?_suffix_object?BYTE+03H
00B6 C9                XCH     A,R1
00B7 F0                MOVX    @DPTR,A
00B8 A3                INC     DPTR
00B9 EA                MOV     A,R2
00BA F0                MOVX    @DPTR,A
00BB A3                INC     DPTR
00BC E9                MOV     A,R1
C51 COMPILER V9.01   CJSON                                                                 06/17/2019 10:07:01 PAGE 236 

00BD F0                MOVX    @DPTR,A
00BE 900000      R     MOV     DPTR,#p
00C1 120000      R     LCALL   L?0691
00C4         ?C0457:
00C4 900000      R     MOV     DPTR,#n
00C7 E0                MOVX    A,@DPTR
00C8 F9                MOV     R1,A
00C9 A3                INC     DPTR
00CA E0                MOVX    A,@DPTR
00CB FA                MOV     R2,A
00CC A3                INC     DPTR
00CD E0                MOVX    A,@DPTR
00CE A3                INC     DPTR
00CF C9                XCH     A,R1
00D0 F0                MOVX    @DPTR,A
00D1 A3                INC     DPTR
00D2 EA                MOV     A,R2
00D3 F0                MOVX    @DPTR,A
00D4 A3                INC     DPTR
00D5 E9                MOV     A,R1
00D6 F0                MOVX    @DPTR,A
00D7 900000      R     MOV     DPTR,#i+01H
00DA E0                MOVX    A,@DPTR
00DB 04                INC     A
00DC F0                MOVX    @DPTR,A
00DD 7006              JNZ     ?C0580
00DF 900000      R     MOV     DPTR,#i
00E2 E0                MOVX    A,@DPTR
00E3 04                INC     A
00E4 F0                MOVX    @DPTR,A
00E5         ?C0580:
00E5 020000      R     LJMP    ?C0453
00E8         ?C0454:
00E8 900000      R     MOV     DPTR,#a
00EB E0                MOVX    A,@DPTR
00EC FB                MOV     R3,A
00ED A3                INC     DPTR
00EE E0                MOVX    A,@DPTR
00EF FA                MOV     R2,A
00F0 A3                INC     DPTR
00F1 E0                MOVX    A,@DPTR
00F2 F9                MOV     R1,A
00F3         ?C0458:
00F3 22                RET     
             ; FUNCTION _cJSON_CreateStringArray (END)

             ; FUNCTION _cJSON_Duplicate (BEGIN)
                                           ; SOURCE LINE # 708
0000 900000      R     MOV     DPTR,#item
0003 EB                MOV     A,R3
0004 F0                MOVX    @DPTR,A
0005 A3                INC     DPTR
0006 EA                MOV     A,R2
0007 F0                MOVX    @DPTR,A
0008 A3                INC     DPTR
0009 E9                MOV     A,R1
000A F0                MOVX    @DPTR,A
000B A3                INC     DPTR
000C EC                MOV     A,R4
000D F0                MOVX    @DPTR,A
000E A3                INC     DPTR
000F ED                MOV     A,R5
C51 COMPILER V9.01   CJSON                                                                 06/17/2019 10:07:01 PAGE 237 

0010 F0                MOVX    @DPTR,A
                                           ; SOURCE LINE # 709
                                           ; SOURCE LINE # 710
0011 900000      R     MOV     DPTR,#nptr
0014 E4                CLR     A
0015 F0                MOVX    @DPTR,A
0016 A3                INC     DPTR
0017 F0                MOVX    @DPTR,A
0018 A3                INC     DPTR
0019 F0                MOVX    @DPTR,A
                                           ; SOURCE LINE # 712
001A 900000      R     MOV     DPTR,#item
001D E0                MOVX    A,@DPTR
001E FB                MOV     R3,A
001F A3                INC     DPTR
0020 E0                MOVX    A,@DPTR
0021 FA                MOV     R2,A
0022 A3                INC     DPTR
0023 E0                MOVX    A,@DPTR
0024 F9                MOV     R1,A
0025 EA                MOV     A,R2
0026 49                ORL     A,R1
0027 4B                ORL     A,R3
0028 7002              JNZ     ?C0459
002A 8012              SJMP    ?C0670
002C         ?C0459:
                                           ; SOURCE LINE # 714
002C 120000      R     LCALL   cJSON_New_Item
002F 900000      R     MOV     DPTR,#newitem
0032 EB                MOV     A,R3
0033 F0                MOVX    @DPTR,A
0034 A3                INC     DPTR
0035 EA                MOV     A,R2
0036 F0                MOVX    @DPTR,A
0037 A3                INC     DPTR
0038 E9                MOV     A,R1
0039 F0                MOVX    @DPTR,A
                                           ; SOURCE LINE # 715
003A 4A                ORL     A,R2
003B 4B                ORL     A,R3
003C 7004              JNZ     ?C0461
003E         ?C0670:
003E FB                MOV     R3,A
003F FA                MOV     R2,A
0040 F9                MOV     R1,A
0041 22                RET     
0042         ?C0461:
                                           ; SOURCE LINE # 717
0042 900000      R     MOV     DPTR,#item
0045 E0                MOVX    A,@DPTR
0046 FB                MOV     R3,A
0047 A3                INC     DPTR
0048 E0                MOVX    A,@DPTR
0049 FA                MOV     R2,A
004A A3                INC     DPTR
004B E0                MOVX    A,@DPTR
004C F9                MOV     R1,A
004D 900009            MOV     DPTR,#09H
0050 120000      E     LCALL   ?C?ILDOPTR
0053 54BF              ANL     A,#0BFH
0055 FF                MOV     R7,A
0056 900000      R     MOV     DPTR,#newitem
C51 COMPILER V9.01   CJSON                                                                 06/17/2019 10:07:01 PAGE 238 

0059 E0                MOVX    A,@DPTR
005A FB                MOV     R3,A
005B A3                INC     DPTR
005C E0                MOVX    A,@DPTR
005D FA                MOV     R2,A
005E A3                INC     DPTR
005F E0                MOVX    A,@DPTR
0060 F9                MOV     R1,A
0061 900009            MOV     DPTR,#09H
0064 E5F0              MOV     A,B
0066 8FF0              MOV     B,R7
0068 120000      E     LCALL   ?C?ISTOPTR
006B 900000      R     MOV     DPTR,#item
006E E0                MOVX    A,@DPTR
006F FB                MOV     R3,A
0070 A3                INC     DPTR
0071 E0                MOVX    A,@DPTR
0072 FA                MOV     R2,A
0073 A3                INC     DPTR
0074 E0                MOVX    A,@DPTR
0075 F9                MOV     R1,A
0076 90000E            MOV     DPTR,#0EH
0079 120000      E     LCALL   ?C?ILDOPTR
007C FF                MOV     R7,A
007D 900000      R     MOV     DPTR,#newitem
0080 E0                MOVX    A,@DPTR
0081 FB                MOV     R3,A
0082 A3                INC     DPTR
0083 E0                MOVX    A,@DPTR
0084 FA                MOV     R2,A
0085 A3                INC     DPTR
0086 E0                MOVX    A,@DPTR
0087 F9                MOV     R1,A
0088 90000E            MOV     DPTR,#0EH
008B E5F0              MOV     A,B
008D 8FF0              MOV     B,R7
008F 120000      E     LCALL   ?C?ISTOPTR
0092 900000      R     MOV     DPTR,#item
0095 E0                MOVX    A,@DPTR
0096 FB                MOV     R3,A
0097 A3                INC     DPTR
0098 E0                MOVX    A,@DPTR
0099 FA                MOV     R2,A
009A A3                INC     DPTR
009B E0                MOVX    A,@DPTR
009C F9                MOV     R1,A
009D 900010            MOV     DPTR,#010H
00A0 120000      E     LCALL   ?C?LLDOPTR
00A3 900000      R     MOV     DPTR,#newitem
00A6 E0                MOVX    A,@DPTR
00A7 FB                MOV     R3,A
00A8 A3                INC     DPTR
00A9 E0                MOVX    A,@DPTR
00AA FA                MOV     R2,A
00AB A3                INC     DPTR
00AC E0                MOVX    A,@DPTR
00AD F9                MOV     R1,A
00AE 900010            MOV     DPTR,#010H
00B1 120000      E     LCALL   ?C?LSTOPTR
                                           ; SOURCE LINE # 718
00B4 900000      R     MOV     DPTR,#item
00B7 E0                MOVX    A,@DPTR
C51 COMPILER V9.01   CJSON                                                                 06/17/2019 10:07:01 PAGE 239 

00B8 FB                MOV     R3,A
00B9 A3                INC     DPTR
00BA E0                MOVX    A,@DPTR
00BB FA                MOV     R2,A
00BC A3                INC     DPTR
00BD E0                MOVX    A,@DPTR
00BE F9                MOV     R1,A
00BF 90000B            MOV     DPTR,#0BH
00C2 120000      E     LCALL   ?C?PLDOPTR
00C5 EA                MOV     A,R2
00C6 49                ORL     A,R1
00C7 4B                ORL     A,R3
00C8 6044              JZ      ?C0462
00CA 900000      R     MOV     DPTR,#item
00CD E0                MOVX    A,@DPTR
00CE FB                MOV     R3,A
00CF A3                INC     DPTR
00D0 E0                MOVX    A,@DPTR
00D1 FA                MOV     R2,A
00D2 A3                INC     DPTR
00D3 E0                MOVX    A,@DPTR
00D4 F9                MOV     R1,A
00D5 90000B            MOV     DPTR,#0BH
00D8 120000      E     LCALL   ?C?PLDOPTR
00DB 120000      R     LCALL   _cJSON_strdup
00DE C003              PUSH    AR3
00E0 C002              PUSH    AR2
00E2 C001              PUSH    AR1
00E4 900000      R     MOV     DPTR,#newitem
00E7 E0                MOVX    A,@DPTR
00E8 FB                MOV     R3,A
00E9 A3                INC     DPTR
00EA E0                MOVX    A,@DPTR
00EB FA                MOV     R2,A
00EC A3                INC     DPTR
00ED E0                MOVX    A,@DPTR
00EE F9                MOV     R1,A
00EF 90000B            MOV     DPTR,#0BH
00F2 120000      E     LCALL   ?C?PSTOPTR
00F5 900000      R     MOV     DPTR,#newitem
00F8 E0                MOVX    A,@DPTR
00F9 FB                MOV     R3,A
00FA A3                INC     DPTR
00FB E0                MOVX    A,@DPTR
00FC FA                MOV     R2,A
00FD A3                INC     DPTR
00FE E0                MOVX    A,@DPTR
00FF F9                MOV     R1,A
0100 90000B            MOV     DPTR,#0BH
0103 120000      E     LCALL   ?C?PLDOPTR
0106 EA                MOV     A,R2
0107 49                ORL     A,R1
0108 4B                ORL     A,R3
0109 7003              JNZ     ?C0462
010B 020000      R     LJMP    ?C0672
010E         ?C0462:
                                           ; SOURCE LINE # 719
010E 900000      R     MOV     DPTR,#item
0111 E0                MOVX    A,@DPTR
0112 FB                MOV     R3,A
0113 A3                INC     DPTR
0114 E0                MOVX    A,@DPTR
C51 COMPILER V9.01   CJSON                                                                 06/17/2019 10:07:01 PAGE 240 

0115 FA                MOV     R2,A
0116 A3                INC     DPTR
0117 E0                MOVX    A,@DPTR
0118 F9                MOV     R1,A
0119 900014            MOV     DPTR,#014H
011C 120000      E     LCALL   ?C?PLDOPTR
011F EA                MOV     A,R2
0120 49                ORL     A,R1
0121 4B                ORL     A,R3
0122 6043              JZ      ?C0464
0124 900000      R     MOV     DPTR,#item
0127 E0                MOVX    A,@DPTR
0128 FB                MOV     R3,A
0129 A3                INC     DPTR
012A E0                MOVX    A,@DPTR
012B FA                MOV     R2,A
012C A3                INC     DPTR
012D E0                MOVX    A,@DPTR
012E F9                MOV     R1,A
012F 900014            MOV     DPTR,#014H
0132 120000      E     LCALL   ?C?PLDOPTR
0135 120000      R     LCALL   _cJSON_strdup
0138 C003              PUSH    AR3
013A C002              PUSH    AR2
013C C001              PUSH    AR1
013E 900000      R     MOV     DPTR,#newitem
0141 E0                MOVX    A,@DPTR
0142 FB                MOV     R3,A
0143 A3                INC     DPTR
0144 E0                MOVX    A,@DPTR
0145 FA                MOV     R2,A
0146 A3                INC     DPTR
0147 E0                MOVX    A,@DPTR
0148 F9                MOV     R1,A
0149 900014            MOV     DPTR,#014H
014C 120000      E     LCALL   ?C?PSTOPTR
014F 900000      R     MOV     DPTR,#newitem
0152 E0                MOVX    A,@DPTR
0153 FB                MOV     R3,A
0154 A3                INC     DPTR
0155 E0                MOVX    A,@DPTR
0156 FA                MOV     R2,A
0157 A3                INC     DPTR
0158 E0                MOVX    A,@DPTR
0159 F9                MOV     R1,A
015A 900014            MOV     DPTR,#014H
015D 120000      E     LCALL   ?C?PLDOPTR
0160 EA                MOV     A,R2
0161 49                ORL     A,R1
0162 4B                ORL     A,R3
0163 7002              JNZ     ?C0464
0165         ?C0671:
0165 8050              SJMP    ?C0672
0167         ?C0464:
                                           ; SOURCE LINE # 721
0167 900000      R     MOV     DPTR,#recurse
016A E0                MOVX    A,@DPTR
016B 7002              JNZ     ?C0581
016D A3                INC     DPTR
016E E0                MOVX    A,@DPTR
016F         ?C0581:
016F 7003              JNZ     ?C0466
C51 COMPILER V9.01   CJSON                                                                 06/17/2019 10:07:01 PAGE 241 

0171 020000      R     LJMP    ?C0673
0174         ?C0466:
                                           ; SOURCE LINE # 723
0174 900000      R     MOV     DPTR,#item
0177 E0                MOVX    A,@DPTR
0178 FB                MOV     R3,A
0179 A3                INC     DPTR
017A E0                MOVX    A,@DPTR
017B FA                MOV     R2,A
017C A3                INC     DPTR
017D E0                MOVX    A,@DPTR
017E F9                MOV     R1,A
017F 900006            MOV     DPTR,#06H
0182 120000      E     LCALL   ?C?PLDOPTR
0185 020000      R     LJMP    ?C0674
0188         ?C0467:
                                           ; SOURCE LINE # 724
0188 900000      R     MOV     DPTR,#cptr
018B E0                MOVX    A,@DPTR
018C FB                MOV     R3,A
018D A3                INC     DPTR
018E E0                MOVX    A,@DPTR
018F FA                MOV     R2,A
0190 A3                INC     DPTR
0191 E0                MOVX    A,@DPTR
0192 F9                MOV     R1,A
0193 EA                MOV     A,R2
0194 49                ORL     A,R1
0195 4B                ORL     A,R3
0196 7003              JNZ     $ + 5H
0198 020000      R     LJMP    ?C0468
                                           ; SOURCE LINE # 725
                                           ; SOURCE LINE # 726
019B 900000      R     MOV     DPTR,#cptr
019E A3                INC     DPTR
019F A3                INC     DPTR
01A0 E0                MOVX    A,@DPTR
01A1 7D01              MOV     R5,#01H
01A3 7C00              MOV     R4,#00H
01A5 120000      R     LCALL   _cJSON_Duplicate
01A8 900000      R     MOV     DPTR,#newchild
01AB EB                MOV     A,R3
01AC F0                MOVX    @DPTR,A
01AD A3                INC     DPTR
01AE EA                MOV     A,R2
01AF F0                MOVX    @DPTR,A
01B0 A3                INC     DPTR
01B1 E9                MOV     A,R1
01B2 F0                MOVX    @DPTR,A
                                           ; SOURCE LINE # 727
01B3 4A                ORL     A,R2
01B4 4B                ORL     A,R3
01B5 700D              JNZ     ?C0469
01B7         ?C0672:
01B7 900000      R     MOV     DPTR,#newitem
01BA 120000      R     LCALL   L?0695
01BD 7B00              MOV     R3,#00H
01BF 7A00              MOV     R2,#00H
01C1 7900              MOV     R1,#00H
01C3 22                RET     
01C4         ?C0469:
                                           ; SOURCE LINE # 728
C51 COMPILER V9.01   CJSON                                                                 06/17/2019 10:07:01 PAGE 242 

01C4 900000      R     MOV     DPTR,#nptr
01C7 E0                MOVX    A,@DPTR
01C8 FB                MOV     R3,A
01C9 A3                INC     DPTR
01CA E0                MOVX    A,@DPTR
01CB FA                MOV     R2,A
01CC A3                INC     DPTR
01CD E0                MOVX    A,@DPTR
01CE F9                MOV     R1,A
01CF EA                MOV     A,R2
01D0 49                ORL     A,R1
01D1 4B                ORL     A,R3
01D2 603C              JZ      ?C0470
01D4 A3                INC     DPTR
01D5 E0                MOVX    A,@DPTR
01D6 FB                MOV     R3,A
01D7 A3                INC     DPTR
01D8 E0                MOVX    A,@DPTR
01D9 FA                MOV     R2,A
01DA A3                INC     DPTR
01DB E0                MOVX    A,@DPTR
01DC F9                MOV     R1,A
01DD C003              PUSH    AR3
01DF C002              PUSH    AR2
01E1 C001              PUSH    AR1
01E3 900000      R     MOV     DPTR,#nptr
01E6 E0                MOVX    A,@DPTR
01E7 FB                MOV     R3,A
01E8 A3                INC     DPTR
01E9 E0                MOVX    A,@DPTR
01EA FA                MOV     R2,A
01EB A3                INC     DPTR
01EC E0                MOVX    A,@DPTR
01ED F9                MOV     R1,A
01EE 120000      E     LCALL   ?C?PSTPTR
01F1 900000      R     MOV     DPTR,#nptr
01F4 E0                MOVX    A,@DPTR
01F5 FB                MOV     R3,A
01F6 A3                INC     DPTR
01F7 E0                MOVX    A,@DPTR
01F8 FA                MOV     R2,A
01F9 A3                INC     DPTR
01FA E0                MOVX    A,@DPTR
01FB F9                MOV     R1,A
01FC C003              PUSH    AR3
01FE C002              PUSH    AR2
0200 C001              PUSH    AR1
0202 A3                INC     DPTR
0203 E0                MOVX    A,@DPTR
0204 FB                MOV     R3,A
0205 A3                INC     DPTR
0206 E0                MOVX    A,@DPTR
0207 FA                MOV     R2,A
0208 A3                INC     DPTR
0209 E0                MOVX    A,@DPTR
020A F9                MOV     R1,A
020B 900003            MOV     DPTR,#03H
020E 801F              SJMP    ?C0669
0210         ?C0470:
                                           ; SOURCE LINE # 729
0210 900000      R     MOV     DPTR,#newchild
0213 E0                MOVX    A,@DPTR
C51 COMPILER V9.01   CJSON                                                                 06/17/2019 10:07:01 PAGE 243 

0214 FB                MOV     R3,A
0215 A3                INC     DPTR
0216 E0                MOVX    A,@DPTR
0217 FA                MOV     R2,A
0218 A3                INC     DPTR
0219 E0                MOVX    A,@DPTR
021A F9                MOV     R1,A
021B C003              PUSH    AR3
021D C002              PUSH    AR2
021F C001              PUSH    AR1
0221 900000      R     MOV     DPTR,#newitem
0224 E0                MOVX    A,@DPTR
0225 FB                MOV     R3,A
0226 A3                INC     DPTR
0227 E0                MOVX    A,@DPTR
0228 FA                MOV     R2,A
0229 A3                INC     DPTR
022A E0                MOVX    A,@DPTR
022B F9                MOV     R1,A
022C 900006            MOV     DPTR,#06H
022F         ?C0669:
022F 120000      E     LCALL   ?C?PSTOPTR
0232 900000      R     MOV     DPTR,#newchild
0235 E0                MOVX    A,@DPTR
0236 F9                MOV     R1,A
0237 A3                INC     DPTR
0238 E0                MOVX    A,@DPTR
0239 FA                MOV     R2,A
023A A3                INC     DPTR
023B E0                MOVX    A,@DPTR
023C 900000      R     MOV     DPTR,#nptr
023F C9                XCH     A,R1
0240 F0                MOVX    @DPTR,A
0241 A3                INC     DPTR
0242 EA                MOV     A,R2
0243 F0                MOVX    @DPTR,A
0244 A3                INC     DPTR
0245 E9                MOV     A,R1
0246 F0                MOVX    @DPTR,A
0247         ?C0471:
                                           ; SOURCE LINE # 730
0247 900000      R     MOV     DPTR,#cptr
024A E0                MOVX    A,@DPTR
024B FB                MOV     R3,A
024C A3                INC     DPTR
024D E0                MOVX    A,@DPTR
024E FA                MOV     R2,A
024F A3                INC     DPTR
0250 E0                MOVX    A,@DPTR
0251 F9                MOV     R1,A
0252 120000      E     LCALL   ?C?PLDPTR
0255         ?C0674:
0255 900000      R     MOV     DPTR,#cptr
0258 EB                MOV     A,R3
0259 F0                MOVX    @DPTR,A
025A A3                INC     DPTR
025B EA                MOV     A,R2
025C F0                MOVX    @DPTR,A
025D A3                INC     DPTR
025E E9                MOV     A,R1
025F F0                MOVX    @DPTR,A
                                           ; SOURCE LINE # 731
C51 COMPILER V9.01   CJSON                                                                 06/17/2019 10:07:01 PAGE 244 

0260 020000      R     LJMP    ?C0467
0263         ?C0468:
                                           ; SOURCE LINE # 732
0263         ?C0673:
0263 900000      R     MOV     DPTR,#newitem
0266 E0                MOVX    A,@DPTR
0267 FB                MOV     R3,A
0268 A3                INC     DPTR
0269 E0                MOVX    A,@DPTR
026A FA                MOV     R2,A
026B A3                INC     DPTR
026C E0                MOVX    A,@DPTR
026D F9                MOV     R1,A
                                           ; SOURCE LINE # 733
026E         ?C0460:
026E 22                RET     
             ; FUNCTION _cJSON_Duplicate (END)

             ; FUNCTION _cJSON_Minify (BEGIN)
                                           ; SOURCE LINE # 735
0000 900000      R     MOV     DPTR,#json
0003 EB                MOV     A,R3
0004 F0                MOVX    @DPTR,A
0005 A3                INC     DPTR
0006 EA                MOV     A,R2
0007 F0                MOVX    @DPTR,A
0008 A3                INC     DPTR
0009 E9                MOV     A,R1
000A F0                MOVX    @DPTR,A
                                           ; SOURCE LINE # 736
                                           ; SOURCE LINE # 737
000B A3                INC     DPTR
000C EB                MOV     A,R3
000D F0                MOVX    @DPTR,A
000E A3                INC     DPTR
000F EA                MOV     A,R2
0010 F0                MOVX    @DPTR,A
0011 A3                INC     DPTR
0012 E9                MOV     A,R1
0013 F0                MOVX    @DPTR,A
0014         ?C0472:
                                           ; SOURCE LINE # 738
0014 900000      R     MOV     DPTR,#json
0017 E0                MOVX    A,@DPTR
0018 FB                MOV     R3,A
0019 A3                INC     DPTR
001A E0                MOVX    A,@DPTR
001B FA                MOV     R2,A
001C A3                INC     DPTR
001D E0                MOVX    A,@DPTR
001E F9                MOV     R1,A
001F 120000      E     LCALL   ?C?CLDPTR
0022 FF                MOV     R7,A
0023 7003              JNZ     $ + 5H
0025 020000      R     LJMP    ?C0473
                                           ; SOURCE LINE # 739
                                           ; SOURCE LINE # 740
0028 B42002            CJNE    A,#020H,?C0474
002B 8010              SJMP    ?C0677
002D         ?C0474:
                                           ; SOURCE LINE # 741
002D EF                MOV     A,R7
C51 COMPILER V9.01   CJSON                                                                 06/17/2019 10:07:01 PAGE 245 

002E B40902            CJNE    A,#09H,?C0476
0031         ?C0675:
0031 800A              SJMP    ?C0677
0033         ?C0476:
                                           ; SOURCE LINE # 742
0033 EF                MOV     A,R7
0034 B40D02            CJNE    A,#0DH,?C0478
0037         ?C0676:
0037 8004              SJMP    ?C0677
0039         ?C0478:
                                           ; SOURCE LINE # 743
0039 EF                MOV     A,R7
003A B40A09            CJNE    A,#0AH,?C0480
003D         ?C0677:
003D 900000      R     MOV     DPTR,#json+01H
0040 E4                CLR     A
0041 75F001            MOV     B,#01H
0044 8079              SJMP    ?C0678
0046         ?C0480:
                                           ; SOURCE LINE # 744
0046 EF                MOV     A,R7
0047 B42F29            CJNE    A,#02FH,?C0482
004A 900001            MOV     DPTR,#01H
004D 120000      E     LCALL   ?C?CLDOPTR
0050 B42F20            CJNE    A,#02FH,?C0482
0053         ?C0483:
0053 900000      R     MOV     DPTR,#json
0056 E0                MOVX    A,@DPTR
0057 FB                MOV     R3,A
0058 A3                INC     DPTR
0059 E0                MOVX    A,@DPTR
005A FA                MOV     R2,A
005B A3                INC     DPTR
005C E0                MOVX    A,@DPTR
005D F9                MOV     R1,A
005E 120000      E     LCALL   ?C?CLDPTR
0061 60B1              JZ      ?C0472
0063 640A              XRL     A,#0AH
0065 60AD              JZ      ?C0472
0067 900000      R     MOV     DPTR,#json+01H
006A E4                CLR     A
006B 75F001            MOV     B,#01H
006E 120000      E     LCALL   ?C?IILDX
0071 80E0              SJMP    ?C0483
0073         ?C0482:
                                           ; SOURCE LINE # 745
0073 900000      R     MOV     DPTR,#json
0076 E0                MOVX    A,@DPTR
0077 FB                MOV     R3,A
0078 A3                INC     DPTR
0079 E0                MOVX    A,@DPTR
007A FA                MOV     R2,A
007B A3                INC     DPTR
007C E0                MOVX    A,@DPTR
007D F9                MOV     R1,A
007E 120000      E     LCALL   ?C?CLDPTR
0081 642F              XRL     A,#02FH
0083 7040              JNZ     ?C0486
0085 900001            MOV     DPTR,#01H
0088 120000      E     LCALL   ?C?CLDOPTR
008B 642A              XRL     A,#02AH
008D 7036              JNZ     ?C0486
C51 COMPILER V9.01   CJSON                                                                 06/17/2019 10:07:01 PAGE 246 

008F         ?C0487:
008F 900000      R     MOV     DPTR,#json
0092 E0                MOVX    A,@DPTR
0093 FB                MOV     R3,A
0094 A3                INC     DPTR
0095 E0                MOVX    A,@DPTR
0096 FA                MOV     R2,A
0097 A3                INC     DPTR
0098 E0                MOVX    A,@DPTR
0099 F9                MOV     R1,A
009A 120000      E     LCALL   ?C?CLDPTR
009D 6019              JZ      ?C0488
009F B42A0A            CJNE    A,#02AH,?C0489
00A2 900001            MOV     DPTR,#01H
00A5 120000      E     LCALL   ?C?CLDOPTR
00A8 642F              XRL     A,#02FH
00AA 600C              JZ      ?C0488
00AC         ?C0489:
00AC 900000      R     MOV     DPTR,#json+01H
00AF E4                CLR     A
00B0 75F001            MOV     B,#01H
00B3 120000      E     LCALL   ?C?IILDX
00B6 80D7              SJMP    ?C0487
00B8         ?C0488:
00B8 900000      R     MOV     DPTR,#json+01H
00BB E4                CLR     A
00BC 75F002            MOV     B,#02H
00BF         ?C0678:
00BF 120000      E     LCALL   ?C?IILDX
00C2 020000      R     LJMP    ?C0472
00C5         ?C0486:
                                           ; SOURCE LINE # 746
00C5 900000      R     MOV     DPTR,#json
00C8 E0                MOVX    A,@DPTR
00C9 FB                MOV     R3,A
00CA A3                INC     DPTR
00CB E0                MOVX    A,@DPTR
00CC FA                MOV     R2,A
00CD A3                INC     DPTR
00CE E0                MOVX    A,@DPTR
00CF F9                MOV     R1,A
00D0 120000      E     LCALL   ?C?CLDPTR
00D3 6422              XRL     A,#022H
00D5 706E              JNZ     ?C0491
00D7 900000      R     MOV     DPTR,#json
00DA 8044              SJMP    ?C0679
00DC         ?C0492:
00DC 900000      R     MOV     DPTR,#json
00DF E0                MOVX    A,@DPTR
00E0 FB                MOV     R3,A
00E1 A3                INC     DPTR
00E2 E0                MOVX    A,@DPTR
00E3 FA                MOV     R2,A
00E4 A3                INC     DPTR
00E5 E0                MOVX    A,@DPTR
00E6 F9                MOV     R1,A
00E7 120000      E     LCALL   ?C?CLDPTR
00EA FF                MOV     R7,A
00EB 6058              JZ      ?C0680
00ED 6422              XRL     A,#022H
00EF 6054              JZ      ?C0680
00F1 EF                MOV     A,R7
C51 COMPILER V9.01   CJSON                                                                 06/17/2019 10:07:01 PAGE 247 

00F2 B45C26            CJNE    A,#05CH,?C0494
00F5 900000      R     MOV     DPTR,#json
00F8 A3                INC     DPTR
00F9 E4                CLR     A
00FA 75F001            MOV     B,#01H
00FD 120000      E     LCALL   ?C?ILDIX
0100 A9F0              MOV     R1,B
0102 FA                MOV     R2,A
0103 120000      E     LCALL   ?C?CLDPTR
0106 FF                MOV     R7,A
0107 900000      R     MOV     DPTR,#into
010A E0                MOVX    A,@DPTR
010B FB                MOV     R3,A
010C A3                INC     DPTR
010D E4                CLR     A
010E 75F001            MOV     B,#01H
0111 120000      E     LCALL   ?C?ILDIX
0114 A9F0              MOV     R1,B
0116 FA                MOV     R2,A
0117 EF                MOV     A,R7
0118 120000      E     LCALL   ?C?CSTPTR
011B         ?C0494:
011B 900000      R     MOV     DPTR,#json
011E E0                MOVX    A,@DPTR
011F FB                MOV     R3,A
0120         ?C0679:
0120 A3                INC     DPTR
0121 E4                CLR     A
0122 75F001            MOV     B,#01H
0125 120000      E     LCALL   ?C?ILDIX
0128 A9F0              MOV     R1,B
012A FA                MOV     R2,A
012B 120000      E     LCALL   ?C?CLDPTR
012E FF                MOV     R7,A
012F 900000      R     MOV     DPTR,#into
0132 E0                MOVX    A,@DPTR
0133 FB                MOV     R3,A
0134 A3                INC     DPTR
0135 E4                CLR     A
0136 75F001            MOV     B,#01H
0139 120000      E     LCALL   ?C?ILDIX
013C A9F0              MOV     R1,B
013E FA                MOV     R2,A
013F EF                MOV     A,R7
0140 120000      E     LCALL   ?C?CSTPTR
0143 8097              SJMP    ?C0492
0145         ?C0491:
                                           ; SOURCE LINE # 747
0145         ?C0680:
0145 900000      R     MOV     DPTR,#json
0148 E0                MOVX    A,@DPTR
0149 FB                MOV     R3,A
014A A3                INC     DPTR
014B E4                CLR     A
014C 75F001            MOV     B,#01H
014F 120000      E     LCALL   ?C?ILDIX
0152 A9F0              MOV     R1,B
0154 FA                MOV     R2,A
0155 120000      E     LCALL   ?C?CLDPTR
0158 FF                MOV     R7,A
0159 900000      R     MOV     DPTR,#into
015C E0                MOVX    A,@DPTR
C51 COMPILER V9.01   CJSON                                                                 06/17/2019 10:07:01 PAGE 248 

015D FB                MOV     R3,A
015E A3                INC     DPTR
015F E4                CLR     A
0160 75F001            MOV     B,#01H
0163 120000      E     LCALL   ?C?ILDIX
0166 A9F0              MOV     R1,B
0168 FA                MOV     R2,A
0169 EF                MOV     A,R7
016A 120000      E     LCALL   ?C?CSTPTR
                                           ; SOURCE LINE # 748
016D 020000      R     LJMP    ?C0472
0170         ?C0473:
                                           ; SOURCE LINE # 749
0170 900000      R     MOV     DPTR,#into
0173 E0                MOVX    A,@DPTR
0174 FB                MOV     R3,A
0175 A3                INC     DPTR
0176 E0                MOVX    A,@DPTR
0177 FA                MOV     R2,A
0178 A3                INC     DPTR
0179 E0                MOVX    A,@DPTR
017A F9                MOV     R1,A
017B E4                CLR     A
017C 020000      E     LJMP    ?C?CSTPTR
             ; FUNCTION _cJSON_Minify (END)

C51 COMPILER V9.01   CJSON                                                                 06/17/2019 10:07:01 PAGE 249 

NAME                                    CLASS   MSPACE  TYPE    OFFSET  SIZE
====                                    =====   ======  ====    ======  ====


_cJSON_DeleteItemFromArray . . . . . .  PUBLIC   CODE   PROC     0000H  -----
  array. . . . . . . . . . . . . . . .  * REG *  DATA   PTR      0001H  3
  which. . . . . . . . . . . . . . . .  * REG *  DATA   INT      0004H  2
_update. . . . . . . . . . . . . . . .  STATIC   CODE   PROC     000BH  -----
  p. . . . . . . . . . . . . . . . . .  AUTO     XDATA  PTR      0000H  3
  str. . . . . . . . . . . . . . . . .  * REG *  DATA   PTR      0001H  3
cJSON_Hooks. . . . . . . . . . . . . .  TYPEDEF  -----  STRUCT   -----  6
  malloc_fn. . . . . . . . . . . . . .  MEMBER   -----  PTR      0000H  3
  free_fn. . . . . . . . . . . . . . .  MEMBER   -----  PTR      0003H  3
cJSON_Hooks. . . . . . . . . . . . . .  * TAG *  -----  STRUCT   -----  6
  malloc_fn. . . . . . . . . . . . . .  MEMBER   -----  PTR      0000H  3
  free_fn. . . . . . . . . . . . . . .  MEMBER   -----  PTR      0003H  3
_cJSON_CreateIntArray. . . . . . . . .  PUBLIC   CODE   PROC     0000H  -----
  numbers. . . . . . . . . . . . . . .  AUTO     XDATA  PTR      0000H  3
  count. . . . . . . . . . . . . . . .  AUTO     XDATA  INT      0003H  2
  i. . . . . . . . . . . . . . . . . .  AUTO     XDATA  INT      0005H  2
  n. . . . . . . . . . . . . . . . . .  AUTO     XDATA  PTR      0007H  3
  p. . . . . . . . . . . . . . . . . .  AUTO     XDATA  PTR      000AH  3
  a. . . . . . . . . . . . . . . . . .  AUTO     XDATA  PTR      000DH  3
_sprintf . . . . . . . . . . . . . . .  EXTERN   CODE   PROC     -----  -----
_print_object. . . . . . . . . . . . .  STATIC   CODE   PROC     0000H  -----
  item . . . . . . . . . . . . . . . .  AUTO     XDATA  PTR      0000H  3
  depth. . . . . . . . . . . . . . . .  AUTO     XDATA  INT      0003H  2
  fmt. . . . . . . . . . . . . . . . .  AUTO     XDATA  INT      0005H  2
  p. . . . . . . . . . . . . . . . . .  AUTO     XDATA  PTR      0007H  3
  entries. . . . . . . . . . . . . . .  AUTO     XDATA  PTR      000AH  3
  names. . . . . . . . . . . . . . . .  AUTO     XDATA  PTR      000DH  3
  out. . . . . . . . . . . . . . . . .  AUTO     XDATA  PTR      0010H  3
  ptr. . . . . . . . . . . . . . . . .  AUTO     XDATA  PTR      0013H  3
  ret. . . . . . . . . . . . . . . . .  AUTO     XDATA  PTR      0016H  3
  str. . . . . . . . . . . . . . . . .  AUTO     XDATA  PTR      0019H  3
  len. . . . . . . . . . . . . . . . .  AUTO     XDATA  INT      001CH  2
  i. . . . . . . . . . . . . . . . . .  AUTO     XDATA  INT      001EH  2
  j. . . . . . . . . . . . . . . . . .  AUTO     XDATA  INT      0020H  2
  child. . . . . . . . . . . . . . . .  AUTO     XDATA  PTR      0022H  3
  numentries . . . . . . . . . . . . .  AUTO     XDATA  INT      0025H  2
  fail . . . . . . . . . . . . . . . .  AUTO     XDATA  INT      0027H  2
  tmplen . . . . . . . . . . . . . . .  AUTO     XDATA  U_INT    0029H  2
_parse_number. . . . . . . . . . . . .  STATIC   CODE   PROC     0000H  -----
  item . . . . . . . . . . . . . . . .  AUTO     XDATA  PTR      0000H  3
  num. . . . . . . . . . . . . . . . .  AUTO     XDATA  PTR      0003H  3
  n. . . . . . . . . . . . . . . . . .  AUTO     XDATA  FLOAT    0006H  4
  sign . . . . . . . . . . . . . . . .  AUTO     XDATA  FLOAT    000AH  4
  scale. . . . . . . . . . . . . . . .  AUTO     XDATA  FLOAT    000EH  4
  subscale . . . . . . . . . . . . . .  AUTO     XDATA  INT      0012H  2
  signsubscale . . . . . . . . . . . .  AUTO     XDATA  INT      0014H  2
_strncmp . . . . . . . . . . . . . . .  EXTERN   CODE   PROC     -----  -----
_create_reference. . . . . . . . . . .  STATIC   CODE   PROC     0008H  -----
  item . . . . . . . . . . . . . . . .  AUTO     XDATA  PTR      0000H  3
  ref. . . . . . . . . . . . . . . . .  AUTO     XDATA  PTR      0003H  3
_cJSON_ReplaceItemInArray. . . . . . .  PUBLIC   CODE   PROC     0000H  -----
  array. . . . . . . . . . . . . . . .  AUTO     XDATA  PTR      0000H  3
  which. . . . . . . . . . . . . . . .  AUTO     DATA   INT      0004H  2
  newitem. . . . . . . . . . . . . . .  AUTO     XDATA  PTR      0005H  3
  c. . . . . . . . . . . . . . . . . .  AUTO     XDATA  PTR      0008H  3
_cJSON_GetObjectItem . . . . . . . . .  PUBLIC   CODE   PROC     0000H  -----
  object . . . . . . . . . . . . . . .  AUTO     DATA   PTR      0001H  3
C51 COMPILER V9.01   CJSON                                                                 06/17/2019 10:07:01 PAGE 250 

NAME                                    CLASS   MSPACE  TYPE    OFFSET  SIZE
====                                    =====   ======  ====    ======  ====


  string . . . . . . . . . . . . . . .  AUTO     XDATA  PTR      0003H  3
  c. . . . . . . . . . . . . . . . . .  AUTO     XDATA  PTR      0006H  3
_cJSON_Print . . . . . . . . . . . . .  PUBLIC   CODE   PROC     0000H  -----
  item . . . . . . . . . . . . . . . .  * REG *  DATA   PTR      0001H  3
_tolower . . . . . . . . . . . . . . .  EXTERN   CODE   PROC     -----  -----
size_t . . . . . . . . . . . . . . . .  TYPEDEF  -----  U_INT    -----  2
_ensure. . . . . . . . . . . . . . . .  STATIC   CODE   PROC     000FH  -----
  p. . . . . . . . . . . . . . . . . .  AUTO     XDATA  PTR      0000H  3
  needed . . . . . . . . . . . . . . .  * REG *  DATA   INT      0004H  2
  newbuffer. . . . . . . . . . . . . .  AUTO     XDATA  PTR      0003H  3
  newsize. . . . . . . . . . . . . . .  AUTO     XDATA  INT      0006H  2
_parse_string. . . . . . . . . . . . .  STATIC   CODE   PROC     0016H  -----
  item . . . . . . . . . . . . . . . .  AUTO     XDATA  PTR      0000H  3
  str. . . . . . . . . . . . . . . . .  AUTO     XDATA  PTR      0003H  3
  ptr. . . . . . . . . . . . . . . . .  AUTO     XDATA  PTR      0006H  3
  ptr2 . . . . . . . . . . . . . . . .  AUTO     XDATA  PTR      0009H  3
  out. . . . . . . . . . . . . . . . .  AUTO     XDATA  PTR      000CH  3
  len. . . . . . . . . . . . . . . . .  AUTO     XDATA  INT      000FH  2
  uc . . . . . . . . . . . . . . . . .  AUTO     XDATA  U_INT    0011H  2
  uc2. . . . . . . . . . . . . . . . .  * REG *  DATA   U_INT    0004H  2
_strchr. . . . . . . . . . . . . . . .  EXTERN   CODE   PROC     -----  -----
_strlen. . . . . . . . . . . . . . . .  EXTERN   CODE   PROC     -----  -----
cJSON_New_Item . . . . . . . . . . . .  STATIC   CODE   PROC     0008H  -----
  node . . . . . . . . . . . . . . . .  AUTO     XDATA  PTR      0000H  3
_print_number. . . . . . . . . . . . .  STATIC   CODE   PROC     0000H  -----
  item . . . . . . . . . . . . . . . .  AUTO     XDATA  PTR      0000H  3
  p. . . . . . . . . . . . . . . . . .  AUTO     XDATA  PTR      0003H  3
  str. . . . . . . . . . . . . . . . .  AUTO     XDATA  PTR      0006H  3
  d. . . . . . . . . . . . . . . . . .  AUTO     XDATA  FLOAT    0009H  4
_cJSON_InitHooks . . . . . . . . . . .  PUBLIC   CODE   PROC     0000H  -----
  hooks. . . . . . . . . . . . . . . .  AUTO     XDATA  PTR      0000H  3
_fabs. . . . . . . . . . . . . . . . .  EXTERN   CODE   PROC     -----  -----
_parse_value . . . . . . . . . . . . .  STATIC   CODE   PROC     0016H  -----
  item . . . . . . . . . . . . . . . .  AUTO     XDATA  PTR      0000H  3
  value. . . . . . . . . . . . . . . .  AUTO     XDATA  PTR      0003H  3
cJSON. . . . . . . . . . . . . . . . .  TYPEDEF  -----  STRUCT   -----  23
  next . . . . . . . . . . . . . . . .  MEMBER   -----  PTR      0000H  3
  prev . . . . . . . . . . . . . . . .  MEMBER   -----  PTR      0003H  3
  child. . . . . . . . . . . . . . . .  MEMBER   -----  PTR      0006H  3
  type . . . . . . . . . . . . . . . .  MEMBER   -----  INT      0009H  2
  valuestring. . . . . . . . . . . . .  MEMBER   -----  PTR      000BH  3
  valueint . . . . . . . . . . . . . .  MEMBER   -----  INT      000EH  2
  valuedouble. . . . . . . . . . . . .  MEMBER   -----  FLOAT    0010H  4
  string . . . . . . . . . . . . . . .  MEMBER   -----  PTR      0014H  3
cJSON. . . . . . . . . . . . . . . . .  * TAG *  -----  STRUCT   -----  23
  next . . . . . . . . . . . . . . . .  MEMBER   -----  PTR      0000H  3
  prev . . . . . . . . . . . . . . . .  MEMBER   -----  PTR      0003H  3
  child. . . . . . . . . . . . . . . .  MEMBER   -----  PTR      0006H  3
  type . . . . . . . . . . . . . . . .  MEMBER   -----  INT      0009H  2
  valuestring. . . . . . . . . . . . .  MEMBER   -----  PTR      000BH  3
  valueint . . . . . . . . . . . . . .  MEMBER   -----  INT      000EH  2
  valuedouble. . . . . . . . . . . . .  MEMBER   -----  FLOAT    0010H  4
  string . . . . . . . . . . . . . . .  MEMBER   -----  PTR      0014H  3
_parse_array . . . . . . . . . . . . .  STATIC   CODE   PROC     0000H  -----
  item . . . . . . . . . . . . . . . .  AUTO     XDATA  PTR      0000H  3
  value. . . . . . . . . . . . . . . .  AUTO     XDATA  PTR      0003H  3
  new_item . . . . . . . . . . . . . .  AUTO     XDATA  PTR      0009H  3
C51 COMPILER V9.01   CJSON                                                                 06/17/2019 10:07:01 PAGE 251 

NAME                                    CLASS   MSPACE  TYPE    OFFSET  SIZE
====                                    =====   ======  ====    ======  ====


  child. . . . . . . . . . . . . . . .  AUTO     XDATA  PTR      0006H  3
_cJSON_Duplicate . . . . . . . . . . .  PUBLIC   CODE   PROC     0000H  -----
  item . . . . . . . . . . . . . . . .  AUTO     XDATA  PTR      0000H  3
  recurse. . . . . . . . . . . . . . .  AUTO     XDATA  INT      0003H  2
  newitem. . . . . . . . . . . . . . .  AUTO     XDATA  PTR      0005H  3
  cptr . . . . . . . . . . . . . . . .  AUTO     XDATA  PTR      0008H  3
  nptr . . . . . . . . . . . . . . . .  AUTO     XDATA  PTR      000BH  3
  newchild . . . . . . . . . . . . . .  AUTO     XDATA  PTR      000EH  3
_cJSON_PrintUnformatted. . . . . . . .  PUBLIC   CODE   PROC     0000H  -----
  item . . . . . . . . . . . . . . . .  * REG *  DATA   PTR      0001H  3
_cJSON_free. . . . . . . . . . . . . .  STATIC   XDATA  PTR      0000H  3
_free. . . . . . . . . . . . . . . . .  EXTERN   CODE   PROC     -----  -----
_floor . . . . . . . . . . . . . . . .  EXTERN   CODE   PROC     -----  -----
_cJSON_strdup. . . . . . . . . . . . .  STATIC   CODE   PROC     0008H  -----
  str. . . . . . . . . . . . . . . . .  AUTO     XDATA  PTR      0000H  3
  len. . . . . . . . . . . . . . . . .  AUTO     XDATA  U_INT    0003H  2
  copy . . . . . . . . . . . . . . . .  AUTO     XDATA  PTR      0005H  3
_print_string. . . . . . . . . . . . .  STATIC   CODE   PROC     0000H  -----
  item . . . . . . . . . . . . . . . .  AUTO     DATA   PTR      0001H  3
  p. . . . . . . . . . . . . . . . . .  AUTO     XDATA  PTR      0003H  3
printbuffer. . . . . . . . . . . . . .  TYPEDEF  -----  STRUCT   -----  7
  buffer . . . . . . . . . . . . . . .  MEMBER   -----  PTR      0000H  3
  length . . . . . . . . . . . . . . .  MEMBER   -----  INT      0003H  2
  offset . . . . . . . . . . . . . . .  MEMBER   -----  INT      0005H  2
_print_value . . . . . . . . . . . . .  STATIC   CODE   PROC     000CH  -----
  item . . . . . . . . . . . . . . . .  AUTO     XDATA  PTR      0000H  3
  depth. . . . . . . . . . . . . . . .  AUTO     XDATA  INT      0003H  2
  fmt. . . . . . . . . . . . . . . . .  AUTO     XDATA  INT      0005H  2
  p. . . . . . . . . . . . . . . . . .  AUTO     XDATA  PTR      0007H  3
  out. . . . . . . . . . . . . . . . .  AUTO     XDATA  PTR      000AH  3
_print_array . . . . . . . . . . . . .  STATIC   CODE   PROC     0000H  -----
  item . . . . . . . . . . . . . . . .  AUTO     XDATA  PTR      0000H  3
  depth. . . . . . . . . . . . . . . .  AUTO     XDATA  INT      0003H  2
  fmt. . . . . . . . . . . . . . . . .  AUTO     XDATA  INT      0005H  2
  p. . . . . . . . . . . . . . . . . .  AUTO     XDATA  PTR      0007H  3
  entries. . . . . . . . . . . . . . .  AUTO     XDATA  PTR      000AH  3
  out. . . . . . . . . . . . . . . . .  AUTO     XDATA  PTR      000DH  3
  ptr. . . . . . . . . . . . . . . . .  AUTO     XDATA  PTR      0010H  3
  ret. . . . . . . . . . . . . . . . .  AUTO     XDATA  PTR      0013H  3
  len. . . . . . . . . . . . . . . . .  AUTO     XDATA  INT      0016H  2
  child. . . . . . . . . . . . . . . .  AUTO     XDATA  PTR      0018H  3
  numentries . . . . . . . . . . . . .  AUTO     XDATA  INT      001BH  2
  i. . . . . . . . . . . . . . . . . .  AUTO     XDATA  INT      001DH  2
  fail . . . . . . . . . . . . . . . .  AUTO     XDATA  INT      001FH  2
  tmplen . . . . . . . . . . . . . . .  AUTO     XDATA  U_INT    0021H  2
cJSON_CreateObject . . . . . . . . . .  PUBLIC   CODE   PROC     0000H  -----
  item . . . . . . . . . . . . . . . .  * REG *  DATA   PTR      0001H  3
_cJSON_GetArrayItem. . . . . . . . . .  PUBLIC   CODE   PROC     0000H  -----
  array. . . . . . . . . . . . . . . .  * REG *  DATA   PTR      0001H  3
  item . . . . . . . . . . . . . . . .  * REG *  DATA   INT      0004H  2
  c. . . . . . . . . . . . . . . . . .  * REG *  DATA   PTR      0001H  3
_skip. . . . . . . . . . . . . . . . .  STATIC   CODE   PROC     0010H  -----
  in . . . . . . . . . . . . . . . . .  * REG *  DATA   PTR      0001H  3
_cJSON_PrintBuffered . . . . . . . . .  PUBLIC   CODE   PROC     0000H  -----
  item . . . . . . . . . . . . . . . .  AUTO     XDATA  PTR      0000H  3
  prebuffer. . . . . . . . . . . . . .  AUTO     XDATA  INT      0003H  2
  fmt. . . . . . . . . . . . . . . . .  AUTO     XDATA  INT      0005H  2
C51 COMPILER V9.01   CJSON                                                                 06/17/2019 10:07:01 PAGE 252 

NAME                                    CLASS   MSPACE  TYPE    OFFSET  SIZE
====                                    =====   ======  ====    ======  ====


  p. . . . . . . . . . . . . . . . . .  AUTO     XDATA  STRUCT   0007H  7
_cJSON_CreateDoubleArray . . . . . . .  PUBLIC   CODE   PROC     0000H  -----
  numbers. . . . . . . . . . . . . . .  AUTO     XDATA  PTR      0000H  3
  count. . . . . . . . . . . . . . . .  AUTO     XDATA  INT      0003H  2
  i. . . . . . . . . . . . . . . . . .  AUTO     XDATA  INT      0005H  2
  n. . . . . . . . . . . . . . . . . .  AUTO     XDATA  PTR      0007H  3
  p. . . . . . . . . . . . . . . . . .  AUTO     XDATA  PTR      000AH  3
  a. . . . . . . . . . . . . . . . . .  AUTO     XDATA  PTR      000DH  3
_cJSON_strcasecmp. . . . . . . . . . .  STATIC   CODE   PROC     0000H  -----
  s1 . . . . . . . . . . . . . . . . .  AUTO     XDATA  PTR      0000H  3
  s2 . . . . . . . . . . . . . . . . .  AUTO     XDATA  PTR      0003H  3
_cJSON_AddItemToObject . . . . . . . .  PUBLIC   CODE   PROC     0000H  -----
  object . . . . . . . . . . . . . . .  AUTO     XDATA  PTR      0000H  3
  string . . . . . . . . . . . . . . .  AUTO     XDATA  PTR      0003H  3
  item . . . . . . . . . . . . . . . .  AUTO     XDATA  PTR      0006H  3
_cJSON_GetArraySize. . . . . . . . . .  PUBLIC   CODE   PROC     0000H  -----
  array. . . . . . . . . . . . . . . .  * REG *  DATA   PTR      0001H  3
  c. . . . . . . . . . . . . . . . . .  * REG *  DATA   PTR      0001H  3
  i. . . . . . . . . . . . . . . . . .  * REG *  DATA   INT      0006H  2
_cJSON_CreateNumber. . . . . . . . . .  PUBLIC   CODE   PROC     0010H  -----
  num. . . . . . . . . . . . . . . . .  AUTO     XDATA  FLOAT    0000H  4
  item . . . . . . . . . . . . . . . .  AUTO     XDATA  PTR      0004H  3
_cJSON_ParseWithOpts . . . . . . . . .  PUBLIC   CODE   PROC     0000H  -----
  value. . . . . . . . . . . . . . . .  AUTO     XDATA  PTR      0000H  3
  return_parse_end . . . . . . . . . .  AUTO     XDATA  PTR      0003H  3
  require_null_terminated. . . . . . .  AUTO     XDATA  INT      0006H  2
  end. . . . . . . . . . . . . . . . .  AUTO     XDATA  PTR      0008H  3
  c. . . . . . . . . . . . . . . . . .  AUTO     XDATA  PTR      000BH  3
_cJSON_InsertItemInArray . . . . . . .  PUBLIC   CODE   PROC     0000H  -----
  array. . . . . . . . . . . . . . . .  AUTO     XDATA  PTR      0000H  3
  which. . . . . . . . . . . . . . . .  AUTO     DATA   INT      0004H  2
  newitem. . . . . . . . . . . . . . .  AUTO     XDATA  PTR      0005H  3
  c. . . . . . . . . . . . . . . . . .  AUTO     XDATA  PTR      0008H  3
cJSON_CreateFalse. . . . . . . . . . .  PUBLIC   CODE   PROC     0000H  -----
  item . . . . . . . . . . . . . . . .  * REG *  DATA   PTR      0001H  3
firstByteMark. . . . . . . . . . . . .  STATIC   XDATA  ARRAY    0003H  7
_cJSON_DetachItemFromObject. . . . . .  PUBLIC   CODE   PROC     0000H  -----
  object . . . . . . . . . . . . . . .  AUTO     XDATA  PTR      0000H  3
  string . . . . . . . . . . . . . . .  AUTO     XDATA  PTR      0003H  3
  i. . . . . . . . . . . . . . . . . .  AUTO     XDATA  INT      0006H  2
  c. . . . . . . . . . . . . . . . . .  AUTO     XDATA  PTR      0008H  3
_cJSON_AddItemReferenceToObject. . . .  PUBLIC   CODE   PROC     0000H  -----
  object . . . . . . . . . . . . . . .  AUTO     XDATA  PTR      0000H  3
  string . . . . . . . . . . . . . . .  AUTO     XDATA  PTR      0003H  3
  item . . . . . . . . . . . . . . . .  AUTO     XDATA  PTR      0006H  3
_cJSON_AddItemToObjectCS . . . . . . .  PUBLIC   CODE   PROC     0000H  -----
  object . . . . . . . . . . . . . . .  AUTO     XDATA  PTR      0000H  3
  string . . . . . . . . . . . . . . .  AUTO     XDATA  PTR      0003H  3
  item . . . . . . . . . . . . . . . .  AUTO     XDATA  PTR      0006H  3
_cJSON_CreateString. . . . . . . . . .  PUBLIC   CODE   PROC     0000H  -----
  string . . . . . . . . . . . . . . .  AUTO     XDATA  PTR      0000H  3
  item . . . . . . . . . . . . . . . .  AUTO     XDATA  PTR      0003H  3
_cJSON_CreateFloatArray. . . . . . . .  PUBLIC   CODE   PROC     0000H  -----
  numbers. . . . . . . . . . . . . . .  AUTO     XDATA  PTR      0000H  3
  count. . . . . . . . . . . . . . . .  AUTO     XDATA  INT      0003H  2
  i. . . . . . . . . . . . . . . . . .  AUTO     XDATA  INT      0005H  2
  n. . . . . . . . . . . . . . . . . .  AUTO     XDATA  PTR      0007H  3
C51 COMPILER V9.01   CJSON                                                                 06/17/2019 10:07:01 PAGE 253 

NAME                                    CLASS   MSPACE  TYPE    OFFSET  SIZE
====                                    =====   ======  ====    ======  ====


  p. . . . . . . . . . . . . . . . . .  AUTO     XDATA  PTR      000AH  3
  a. . . . . . . . . . . . . . . . . .  AUTO     XDATA  PTR      000DH  3
ep . . . . . . . . . . . . . . . . . .  STATIC   XDATA  PTR      000AH  3
_cJSON_CreateStringArray . . . . . . .  PUBLIC   CODE   PROC     0000H  -----
  strings. . . . . . . . . . . . . . .  AUTO     XDATA  PTR      0000H  3
  count. . . . . . . . . . . . . . . .  AUTO     XDATA  INT      0003H  2
  i. . . . . . . . . . . . . . . . . .  AUTO     XDATA  INT      0005H  2
  n. . . . . . . . . . . . . . . . . .  AUTO     XDATA  PTR      0007H  3
  p. . . . . . . . . . . . . . . . . .  AUTO     XDATA  PTR      000AH  3
  a. . . . . . . . . . . . . . . . . .  AUTO     XDATA  PTR      000DH  3
_cJSON_Delete. . . . . . . . . . . . .  PUBLIC   CODE   PROC     0008H  -----
  c. . . . . . . . . . . . . . . . . .  AUTO     XDATA  PTR      0000H  3
  next . . . . . . . . . . . . . . . .  AUTO     XDATA  PTR      0003H  3
_pow . . . . . . . . . . . . . . . . .  EXTERN   CODE   PROC     -----  -----
cJSON_CreateArray. . . . . . . . . . .  PUBLIC   CODE   PROC     000FH  -----
  item . . . . . . . . . . . . . . . .  * REG *  DATA   PTR      0001H  3
_cJSON_DeleteItemFromObject. . . . . .  PUBLIC   CODE   PROC     0000H  -----
  object . . . . . . . . . . . . . . .  AUTO     DATA   PTR      0001H  3
  string . . . . . . . . . . . . . . .  AUTO     XDATA  PTR      0003H  3
_cJSON_AddItemToArray. . . . . . . . .  PUBLIC   CODE   PROC     0008H  -----
  array. . . . . . . . . . . . . . . .  AUTO     XDATA  PTR      0000H  3
  item . . . . . . . . . . . . . . . .  AUTO     XDATA  PTR      0003H  3
  c. . . . . . . . . . . . . . . . . .  AUTO     XDATA  PTR      0006H  3
_print_string_ptr. . . . . . . . . . .  STATIC   CODE   PROC     0000H  -----
  str. . . . . . . . . . . . . . . . .  AUTO     XDATA  PTR      0000H  3
  p. . . . . . . . . . . . . . . . . .  AUTO     XDATA  PTR      0003H  3
  ptr. . . . . . . . . . . . . . . . .  AUTO     XDATA  PTR      0006H  3
  ptr2 . . . . . . . . . . . . . . . .  AUTO     XDATA  PTR      0009H  3
  out. . . . . . . . . . . . . . . . .  AUTO     XDATA  PTR      000CH  3
  len. . . . . . . . . . . . . . . . .  AUTO     XDATA  INT      000FH  2
  flag . . . . . . . . . . . . . . . .  AUTO     XDATA  INT      0011H  2
  token. . . . . . . . . . . . . . . .  AUTO     XDATA  U_CHAR   0013H  1
_pow2gt. . . . . . . . . . . . . . . .  STATIC   CODE   PROC     0000H  -----
  x. . . . . . . . . . . . . . . . . .  * REG *  DATA   INT      0004H  2
_cJSON_ReplaceItemInObject . . . . . .  PUBLIC   CODE   PROC     0000H  -----
  object . . . . . . . . . . . . . . .  AUTO     XDATA  PTR      0000H  3
  string . . . . . . . . . . . . . . .  AUTO     XDATA  PTR      0003H  3
  newitem. . . . . . . . . . . . . . .  AUTO     XDATA  PTR      0006H  3
  i. . . . . . . . . . . . . . . . . .  AUTO     XDATA  INT      0009H  2
  c. . . . . . . . . . . . . . . . . .  AUTO     XDATA  PTR      000BH  3
_cJSON_CreateBool. . . . . . . . . . .  PUBLIC   CODE   PROC     0000H  -----
  b. . . . . . . . . . . . . . . . . .  AUTO     XDATA  INT      0000H  2
  item . . . . . . . . . . . . . . . .  * REG *  DATA   PTR      0001H  3
cJSON_GetErrorPtr. . . . . . . . . . .  PUBLIC   CODE   PROC     0000H  -----
wchar_t. . . . . . . . . . . . . . . .  TYPEDEF  -----  CHAR     -----  1
_cJSON_Minify. . . . . . . . . . . . .  PUBLIC   CODE   PROC     0000H  -----
  json . . . . . . . . . . . . . . . .  AUTO     XDATA  PTR      0000H  3
  into . . . . . . . . . . . . . . . .  AUTO     XDATA  PTR      0003H  3
_suffix_object . . . . . . . . . . . .  STATIC   CODE   PROC     0008H  -----
  prev . . . . . . . . . . . . . . . .  AUTO     XDATA  PTR      0000H  3
  item . . . . . . . . . . . . . . . .  AUTO     XDATA  PTR      0003H  3
cJSON_CreateNull . . . . . . . . . . .  PUBLIC   CODE   PROC     0000H  -----
  item . . . . . . . . . . . . . . . .  * REG *  DATA   PTR      0001H  3
_cJSON_DetachItemFromArray . . . . . .  PUBLIC   CODE   PROC     0000H  -----
  array. . . . . . . . . . . . . . . .  AUTO     XDATA  PTR      0000H  3
  which. . . . . . . . . . . . . . . .  * REG *  DATA   INT      0004H  2
  c. . . . . . . . . . . . . . . . . .  AUTO     XDATA  PTR      0003H  3
C51 COMPILER V9.01   CJSON                                                                 06/17/2019 10:07:01 PAGE 254 

NAME                                    CLASS   MSPACE  TYPE    OFFSET  SIZE
====                                    =====   ======  ====    ======  ====


_parse_object. . . . . . . . . . . . .  STATIC   CODE   PROC     0000H  -----
  item . . . . . . . . . . . . . . . .  AUTO     XDATA  PTR      0000H  3
  value. . . . . . . . . . . . . . . .  AUTO     XDATA  PTR      0003H  3
  new_item . . . . . . . . . . . . . .  AUTO     XDATA  PTR      0009H  3
  child. . . . . . . . . . . . . . . .  AUTO     XDATA  PTR      0006H  3
_parse_hex4. . . . . . . . . . . . . .  STATIC   CODE   PROC     0000H  -----
  str. . . . . . . . . . . . . . . . .  * REG *  DATA   PTR      0001H  3
  h. . . . . . . . . . . . . . . . . .  * REG *  DATA   U_INT    0006H  2
_cJSON_AddItemReferenceToArray . . . .  PUBLIC   CODE   PROC     0000H  -----
  array. . . . . . . . . . . . . . . .  AUTO     XDATA  PTR      0000H  3
  item . . . . . . . . . . . . . . . .  AUTO     XDATA  PTR      0003H  3
cJSON_CreateTrue . . . . . . . . . . .  PUBLIC   CODE   PROC     0000H  -----
  item . . . . . . . . . . . . . . . .  * REG *  DATA   PTR      0001H  3
_cJSON_malloc. . . . . . . . . . . . .  STATIC   XDATA  PTR      000DH  3
_malloc. . . . . . . . . . . . . . . .  EXTERN   CODE   PROC     -----  -----
_cJSON_Parse . . . . . . . . . . . . .  PUBLIC   CODE   PROC     0000H  -----
  value. . . . . . . . . . . . . . . .  * REG *  DATA   PTR      0001H  3


MODULE INFORMATION:   STATIC OVERLAYABLE
   CODE SIZE        =  18942    ----
   CONSTANT SIZE    =     52    ----
   XDATA SIZE       =     16     490
   PDATA SIZE       =   ----    ----
   DATA SIZE        =   ----    ----
   IDATA SIZE       =   ----    ----
   BIT SIZE         =   ----    ----
END OF MODULE INFORMATION.


C51 COMPILATION COMPLETE.  2 WARNING(S),  0 ERROR(S)
